ARM GAS  C:\Users\igorn\AppData\Local\Temp\ccb8XmqW.s 			page 1


   1              		.cpu cortex-m4
   2              		.arch armv7e-m
   3              		.fpu fpv4-sp-d16
   4              		.eabi_attribute 27, 1
   5              		.eabi_attribute 28, 1
   6              		.eabi_attribute 20, 1
   7              		.eabi_attribute 21, 1
   8              		.eabi_attribute 23, 3
   9              		.eabi_attribute 24, 1
  10              		.eabi_attribute 25, 1
  11              		.eabi_attribute 26, 1
  12              		.eabi_attribute 30, 1
  13              		.eabi_attribute 34, 1
  14              		.eabi_attribute 18, 4
  15              		.file	"NOS_WS2812B_Strip.c"
  16              		.text
  17              	.Ltext0:
  18              		.cfi_sections	.debug_frame
  19              		.file 1 "Core/Src/NOS_LIB_Driver/Src/NOS_WS2812B_Strip.c"
  20              		.section	.text.NOS_WS2812B_Strip_FullInit,"ax",%progbits
  21              		.align	1
  22              		.global	NOS_WS2812B_Strip_FullInit
  23              		.syntax unified
  24              		.thumb
  25              		.thumb_func
  27              	NOS_WS2812B_Strip_FullInit:
  28              	.LVL0:
  29              	.LFB130:
   1:Core/Src/NOS_LIB_Driver/Src/NOS_WS2812B_Strip.c **** #include "NOS_WS2812B_Strip.h"
   2:Core/Src/NOS_LIB_Driver/Src/NOS_WS2812B_Strip.c **** #include "NOS_BaseColors.h"
   3:Core/Src/NOS_LIB_Driver/Src/NOS_WS2812B_Strip.c **** #include "WS2812B_Effects.h"
   4:Core/Src/NOS_LIB_Driver/Src/NOS_WS2812B_Strip.c **** 
   5:Core/Src/NOS_LIB_Driver/Src/NOS_WS2812B_Strip.c **** void NOS_WS2812B_Strip_FullInit(WS2812B_Strip* strip,uint8_t* buff,PixelColor* pixels,int lenght)
   6:Core/Src/NOS_LIB_Driver/Src/NOS_WS2812B_Strip.c **** {
  30              		.loc 1 6 1 view -0
  31              		.cfi_startproc
  32              		@ args = 0, pretend = 0, frame = 0
  33              		@ frame_needed = 0, uses_anonymous_args = 0
  34              		@ link register save eliminated.
   7:Core/Src/NOS_LIB_Driver/Src/NOS_WS2812B_Strip.c ****     strip->pixels = pixels;
  35              		.loc 1 7 5 view .LVU1
  36              		.loc 1 7 19 is_stmt 0 view .LVU2
  37 0000 4260     		str	r2, [r0, #4]
   8:Core/Src/NOS_LIB_Driver/Src/NOS_WS2812B_Strip.c ****     strip->frameBuffer = buff;
  38              		.loc 1 8 5 is_stmt 1 view .LVU3
  39              		.loc 1 8 24 is_stmt 0 view .LVU4
  40 0002 0160     		str	r1, [r0]
   9:Core/Src/NOS_LIB_Driver/Src/NOS_WS2812B_Strip.c ****     strip->pixelCount = lenght;
  41              		.loc 1 9 5 is_stmt 1 view .LVU5
  42              		.loc 1 9 23 is_stmt 0 view .LVU6
  43 0004 8360     		str	r3, [r0, #8]
  10:Core/Src/NOS_LIB_Driver/Src/NOS_WS2812B_Strip.c ****     strip->bright = 100;
  44              		.loc 1 10 5 is_stmt 1 view .LVU7
  45              		.loc 1 10 19 is_stmt 0 view .LVU8
  46 0006 6423     		movs	r3, #100
  47              	.LVL1:
  48              		.loc 1 10 19 view .LVU9
ARM GAS  C:\Users\igorn\AppData\Local\Temp\ccb8XmqW.s 			page 2


  49 0008 C360     		str	r3, [r0, #12]
  11:Core/Src/NOS_LIB_Driver/Src/NOS_WS2812B_Strip.c ****     strip->effectsCounter = 0;
  50              		.loc 1 11 5 is_stmt 1 view .LVU10
  51              		.loc 1 11 27 is_stmt 0 view .LVU11
  52 000a 0023     		movs	r3, #0
  53 000c 80F85031 		strb	r3, [r0, #336]
  12:Core/Src/NOS_LIB_Driver/Src/NOS_WS2812B_Strip.c **** }
  54              		.loc 1 12 1 view .LVU12
  55 0010 7047     		bx	lr
  56              		.cfi_endproc
  57              	.LFE130:
  59              		.section	.text.NOS_WS2812B_Strip_CoreSetPixel,"ax",%progbits
  60              		.align	1
  61              		.global	NOS_WS2812B_Strip_CoreSetPixel
  62              		.syntax unified
  63              		.thumb
  64              		.thumb_func
  66              	NOS_WS2812B_Strip_CoreSetPixel:
  67              	.LVL2:
  68              	.LFB131:
  13:Core/Src/NOS_LIB_Driver/Src/NOS_WS2812B_Strip.c **** 
  14:Core/Src/NOS_LIB_Driver/Src/NOS_WS2812B_Strip.c **** void NOS_WS2812B_Strip_CoreSetPixel(WS2812B_Strip* strip,int pixelPos,uint8_t r, uint8_t g, uint8_t
  15:Core/Src/NOS_LIB_Driver/Src/NOS_WS2812B_Strip.c **** {
  69              		.loc 1 15 1 is_stmt 1 view -0
  70              		.cfi_startproc
  71              		@ args = 4, pretend = 0, frame = 0
  72              		@ frame_needed = 0, uses_anonymous_args = 0
  73              		@ link register save eliminated.
  74              		.loc 1 15 1 is_stmt 0 view .LVU14
  75 0000 30B4     		push	{r4, r5}
  76              		.cfi_def_cfa_offset 8
  77              		.cfi_offset 4, -8
  78              		.cfi_offset 5, -4
  16:Core/Src/NOS_LIB_Driver/Src/NOS_WS2812B_Strip.c ****     if(strip->frameBuffer != NULL && pixelPos <= strip->pixelCount)
  79              		.loc 1 16 5 is_stmt 1 view .LVU15
  80              		.loc 1 16 13 is_stmt 0 view .LVU16
  81 0002 0468     		ldr	r4, [r0]
  82              		.loc 1 16 7 view .LVU17
  83 0004 6CB1     		cbz	r4, .L2
  84              		.loc 1 16 35 discriminator 1 view .LVU18
  85 0006 8568     		ldr	r5, [r0, #8]
  86 0008 8D42     		cmp	r5, r1
  87 000a 0ADB     		blt	.L2
  17:Core/Src/NOS_LIB_Driver/Src/NOS_WS2812B_Strip.c ****     {
  18:Core/Src/NOS_LIB_Driver/Src/NOS_WS2812B_Strip.c ****         strip->frameBuffer[pixelPos * 3] = r;
  88              		.loc 1 18 9 is_stmt 1 view .LVU19
  89              		.loc 1 18 37 is_stmt 0 view .LVU20
  90 000c 01EB4101 		add	r1, r1, r1, lsl #1
  91              	.LVL3:
  92              		.loc 1 18 42 view .LVU21
  93 0010 6254     		strb	r2, [r4, r1]
  19:Core/Src/NOS_LIB_Driver/Src/NOS_WS2812B_Strip.c ****         strip->frameBuffer[pixelPos * 3 + 1] = g;
  94              		.loc 1 19 9 is_stmt 1 view .LVU22
  95              		.loc 1 19 14 is_stmt 0 view .LVU23
  96 0012 0468     		ldr	r4, [r0]
  97              		.loc 1 19 27 view .LVU24
  98 0014 4A1C     		adds	r2, r1, #1
ARM GAS  C:\Users\igorn\AppData\Local\Temp\ccb8XmqW.s 			page 3


  99              	.LVL4:
 100              		.loc 1 19 46 view .LVU25
 101 0016 A354     		strb	r3, [r4, r2]
  20:Core/Src/NOS_LIB_Driver/Src/NOS_WS2812B_Strip.c ****         strip->frameBuffer[pixelPos * 3 + 2] = b;
 102              		.loc 1 20 9 is_stmt 1 view .LVU26
 103              		.loc 1 20 14 is_stmt 0 view .LVU27
 104 0018 0368     		ldr	r3, [r0]
 105              	.LVL5:
 106              		.loc 1 20 27 view .LVU28
 107 001a 0231     		adds	r1, r1, #2
 108              		.loc 1 20 46 view .LVU29
 109 001c 9DF80820 		ldrb	r2, [sp, #8]	@ zero_extendqisi2
 110              	.LVL6:
 111              		.loc 1 20 46 view .LVU30
 112 0020 5A54     		strb	r2, [r3, r1]
 113              	.LVL7:
 114              	.L2:
  21:Core/Src/NOS_LIB_Driver/Src/NOS_WS2812B_Strip.c ****     }
  22:Core/Src/NOS_LIB_Driver/Src/NOS_WS2812B_Strip.c **** }
 115              		.loc 1 22 1 view .LVU31
 116 0022 30BC     		pop	{r4, r5}
 117              		.cfi_restore 5
 118              		.cfi_restore 4
 119              		.cfi_def_cfa_offset 0
 120              	.LVL8:
 121              		.loc 1 22 1 view .LVU32
 122 0024 7047     		bx	lr
 123              		.cfi_endproc
 124              	.LFE131:
 126              		.section	.text.NOS_WS2812B_Strip_SetPixel,"ax",%progbits
 127              		.align	1
 128              		.global	NOS_WS2812B_Strip_SetPixel
 129              		.syntax unified
 130              		.thumb
 131              		.thumb_func
 133              	NOS_WS2812B_Strip_SetPixel:
 134              	.LVL9:
 135              	.LFB132:
  23:Core/Src/NOS_LIB_Driver/Src/NOS_WS2812B_Strip.c **** 
  24:Core/Src/NOS_LIB_Driver/Src/NOS_WS2812B_Strip.c **** void NOS_WS2812B_Strip_SetPixel(WS2812B_Strip* strip,int pixelPos,uint8_t r, uint8_t g, uint8_t b)
  25:Core/Src/NOS_LIB_Driver/Src/NOS_WS2812B_Strip.c **** {
 136              		.loc 1 25 1 is_stmt 1 view -0
 137              		.cfi_startproc
 138              		@ args = 4, pretend = 0, frame = 0
 139              		@ frame_needed = 0, uses_anonymous_args = 0
 140              		@ link register save eliminated.
 141              		.loc 1 25 1 is_stmt 0 view .LVU34
 142 0000 30B4     		push	{r4, r5}
 143              		.cfi_def_cfa_offset 8
 144              		.cfi_offset 4, -8
 145              		.cfi_offset 5, -4
  26:Core/Src/NOS_LIB_Driver/Src/NOS_WS2812B_Strip.c ****     if(strip->pixels != NULL && pixelPos <= strip->pixelCount)
 146              		.loc 1 26 5 is_stmt 1 view .LVU35
 147              		.loc 1 26 13 is_stmt 0 view .LVU36
 148 0002 4468     		ldr	r4, [r0, #4]
 149              		.loc 1 26 7 view .LVU37
 150 0004 6CB1     		cbz	r4, .L5
ARM GAS  C:\Users\igorn\AppData\Local\Temp\ccb8XmqW.s 			page 4


 151              		.loc 1 26 30 discriminator 1 view .LVU38
 152 0006 8568     		ldr	r5, [r0, #8]
 153 0008 8D42     		cmp	r5, r1
 154 000a 0ADB     		blt	.L5
  27:Core/Src/NOS_LIB_Driver/Src/NOS_WS2812B_Strip.c ****     {
  28:Core/Src/NOS_LIB_Driver/Src/NOS_WS2812B_Strip.c ****         strip->pixels[pixelPos].R = r;
 155              		.loc 1 28 9 is_stmt 1 view .LVU39
 156              		.loc 1 28 22 is_stmt 0 view .LVU40
 157 000c 01EB4101 		add	r1, r1, r1, lsl #1
 158              	.LVL10:
 159              		.loc 1 28 35 view .LVU41
 160 0010 6254     		strb	r2, [r4, r1]
  29:Core/Src/NOS_LIB_Driver/Src/NOS_WS2812B_Strip.c ****         strip->pixels[pixelPos].G = g;
 161              		.loc 1 29 9 is_stmt 1 view .LVU42
 162              		.loc 1 29 14 is_stmt 0 view .LVU43
 163 0012 4268     		ldr	r2, [r0, #4]
 164              	.LVL11:
 165              		.loc 1 29 22 view .LVU44
 166 0014 0A44     		add	r2, r2, r1
 167              		.loc 1 29 35 view .LVU45
 168 0016 5370     		strb	r3, [r2, #1]
 169              	.LVL12:
  30:Core/Src/NOS_LIB_Driver/Src/NOS_WS2812B_Strip.c ****         strip->pixels[pixelPos].B = b;
 170              		.loc 1 30 9 is_stmt 1 view .LVU46
 171              		.loc 1 30 14 is_stmt 0 view .LVU47
 172 0018 4368     		ldr	r3, [r0, #4]
 173              	.LVL13:
 174              		.loc 1 30 22 view .LVU48
 175 001a 0B44     		add	r3, r3, r1
 176              		.loc 1 30 35 view .LVU49
 177 001c 9DF80820 		ldrb	r2, [sp, #8]	@ zero_extendqisi2
 178              	.LVL14:
 179              		.loc 1 30 35 view .LVU50
 180 0020 9A70     		strb	r2, [r3, #2]
 181              	.L5:
  31:Core/Src/NOS_LIB_Driver/Src/NOS_WS2812B_Strip.c ****     }         
  32:Core/Src/NOS_LIB_Driver/Src/NOS_WS2812B_Strip.c **** }
 182              		.loc 1 32 1 view .LVU51
 183 0022 30BC     		pop	{r4, r5}
 184              		.cfi_restore 5
 185              		.cfi_restore 4
 186              		.cfi_def_cfa_offset 0
 187              	.LVL15:
 188              		.loc 1 32 1 view .LVU52
 189 0024 7047     		bx	lr
 190              		.cfi_endproc
 191              	.LFE132:
 193              		.section	.text.NOS_WS2812B_Strip_Clear,"ax",%progbits
 194              		.align	1
 195              		.global	NOS_WS2812B_Strip_Clear
 196              		.syntax unified
 197              		.thumb
 198              		.thumb_func
 200              	NOS_WS2812B_Strip_Clear:
 201              	.LVL16:
 202              	.LFB133:
  33:Core/Src/NOS_LIB_Driver/Src/NOS_WS2812B_Strip.c **** 
ARM GAS  C:\Users\igorn\AppData\Local\Temp\ccb8XmqW.s 			page 5


  34:Core/Src/NOS_LIB_Driver/Src/NOS_WS2812B_Strip.c **** void NOS_WS2812B_Strip_Clear(WS2812B_Strip* strip)
  35:Core/Src/NOS_LIB_Driver/Src/NOS_WS2812B_Strip.c **** {
 203              		.loc 1 35 1 is_stmt 1 view -0
 204              		.cfi_startproc
 205              		@ args = 0, pretend = 0, frame = 0
 206              		@ frame_needed = 0, uses_anonymous_args = 0
 207              		.loc 1 35 1 is_stmt 0 view .LVU54
 208 0000 30B5     		push	{r4, r5, lr}
 209              		.cfi_def_cfa_offset 12
 210              		.cfi_offset 4, -12
 211              		.cfi_offset 5, -8
 212              		.cfi_offset 14, -4
 213 0002 83B0     		sub	sp, sp, #12
 214              		.cfi_def_cfa_offset 24
 215 0004 0546     		mov	r5, r0
  36:Core/Src/NOS_LIB_Driver/Src/NOS_WS2812B_Strip.c ****     for(int i = 0; i < strip->pixelCount; i++)
 216              		.loc 1 36 5 is_stmt 1 view .LVU55
 217              	.LBB2:
 218              		.loc 1 36 9 view .LVU56
 219              	.LVL17:
 220              		.loc 1 36 13 is_stmt 0 view .LVU57
 221 0006 0024     		movs	r4, #0
 222              		.loc 1 36 5 view .LVU58
 223 0008 07E0     		b	.L9
 224              	.LVL18:
 225              	.L10:
  37:Core/Src/NOS_LIB_Driver/Src/NOS_WS2812B_Strip.c ****     {
  38:Core/Src/NOS_LIB_Driver/Src/NOS_WS2812B_Strip.c ****         NOS_WS2812B_Strip_SetPixel(strip,i,0,0,0);
 226              		.loc 1 38 9 is_stmt 1 discriminator 3 view .LVU59
 227 000a 0022     		movs	r2, #0
 228 000c 0092     		str	r2, [sp]
 229 000e 1346     		mov	r3, r2
 230 0010 2146     		mov	r1, r4
 231 0012 2846     		mov	r0, r5
 232 0014 FFF7FEFF 		bl	NOS_WS2812B_Strip_SetPixel
 233              	.LVL19:
  36:Core/Src/NOS_LIB_Driver/Src/NOS_WS2812B_Strip.c ****     for(int i = 0; i < strip->pixelCount; i++)
 234              		.loc 1 36 44 discriminator 3 view .LVU60
 235 0018 0134     		adds	r4, r4, #1
 236              	.LVL20:
 237              	.L9:
  36:Core/Src/NOS_LIB_Driver/Src/NOS_WS2812B_Strip.c ****     for(int i = 0; i < strip->pixelCount; i++)
 238              		.loc 1 36 22 discriminator 1 view .LVU61
  36:Core/Src/NOS_LIB_Driver/Src/NOS_WS2812B_Strip.c ****     for(int i = 0; i < strip->pixelCount; i++)
 239              		.loc 1 36 29 is_stmt 0 discriminator 1 view .LVU62
 240 001a AB68     		ldr	r3, [r5, #8]
  36:Core/Src/NOS_LIB_Driver/Src/NOS_WS2812B_Strip.c ****     for(int i = 0; i < strip->pixelCount; i++)
 241              		.loc 1 36 22 discriminator 1 view .LVU63
 242 001c A342     		cmp	r3, r4
 243 001e F4DC     		bgt	.L10
 244              	.LBE2:
  39:Core/Src/NOS_LIB_Driver/Src/NOS_WS2812B_Strip.c ****     }
  40:Core/Src/NOS_LIB_Driver/Src/NOS_WS2812B_Strip.c **** }
 245              		.loc 1 40 1 view .LVU64
 246 0020 03B0     		add	sp, sp, #12
 247              		.cfi_def_cfa_offset 12
 248              		@ sp needed
ARM GAS  C:\Users\igorn\AppData\Local\Temp\ccb8XmqW.s 			page 6


 249 0022 30BD     		pop	{r4, r5, pc}
 250              		.loc 1 40 1 view .LVU65
 251              		.cfi_endproc
 252              	.LFE133:
 254              		.section	.text.NOS_WS2812B_Strip_Update,"ax",%progbits
 255              		.align	1
 256              		.global	NOS_WS2812B_Strip_Update
 257              		.syntax unified
 258              		.thumb
 259              		.thumb_func
 261              	NOS_WS2812B_Strip_Update:
 262              	.LVL21:
 263              	.LFB134:
  41:Core/Src/NOS_LIB_Driver/Src/NOS_WS2812B_Strip.c **** 
  42:Core/Src/NOS_LIB_Driver/Src/NOS_WS2812B_Strip.c **** void NOS_WS2812B_Strip_Update(WS2812B_Strip* strip)
  43:Core/Src/NOS_LIB_Driver/Src/NOS_WS2812B_Strip.c **** {
 264              		.loc 1 43 1 is_stmt 1 view -0
 265              		.cfi_startproc
 266              		@ args = 0, pretend = 0, frame = 16
 267              		@ frame_needed = 0, uses_anonymous_args = 0
 268              		.loc 1 43 1 is_stmt 0 view .LVU67
 269 0000 30B5     		push	{r4, r5, lr}
 270              		.cfi_def_cfa_offset 12
 271              		.cfi_offset 4, -12
 272              		.cfi_offset 5, -8
 273              		.cfi_offset 14, -4
 274 0002 2DED028B 		vpush.64	{d8}
 275              		.cfi_def_cfa_offset 20
 276              		.cfi_offset 80, -20
 277              		.cfi_offset 81, -16
 278 0006 87B0     		sub	sp, sp, #28
 279              		.cfi_def_cfa_offset 48
 280 0008 0546     		mov	r5, r0
  44:Core/Src/NOS_LIB_Driver/Src/NOS_WS2812B_Strip.c ****     float coef = (float)strip->bright / 100;
 281              		.loc 1 44 5 is_stmt 1 view .LVU68
 282              		.loc 1 44 18 is_stmt 0 view .LVU69
 283 000a D0ED037A 		vldr.32	s15, [r0, #12]	@ int
 284 000e F8EEE77A 		vcvt.f32.s32	s15, s15
 285              		.loc 1 44 11 view .LVU70
 286 0012 9FED1F7A 		vldr.32	s14, .L16
 287 0016 87EE878A 		vdiv.f32	s16, s15, s14
 288              	.LVL22:
  45:Core/Src/NOS_LIB_Driver/Src/NOS_WS2812B_Strip.c ****     for(int i = 0; i < strip->pixelCount; i++)
 289              		.loc 1 45 5 is_stmt 1 view .LVU71
 290              	.LBB3:
 291              		.loc 1 45 9 view .LVU72
 292              		.loc 1 45 13 is_stmt 0 view .LVU73
 293 001a 0024     		movs	r4, #0
 294              		.loc 1 45 5 view .LVU74
 295 001c 30E0     		b	.L13
 296              	.LVL23:
 297              	.L14:
 298              	.LBB4:
  46:Core/Src/NOS_LIB_Driver/Src/NOS_WS2812B_Strip.c ****     {
  47:Core/Src/NOS_LIB_Driver/Src/NOS_WS2812B_Strip.c ****         uint8_t currR = (float)strip->pixels[i].R * coef;
 299              		.loc 1 47 9 is_stmt 1 discriminator 3 view .LVU75
 300              		.loc 1 47 37 is_stmt 0 discriminator 3 view .LVU76
ARM GAS  C:\Users\igorn\AppData\Local\Temp\ccb8XmqW.s 			page 7


 301 001e 6968     		ldr	r1, [r5, #4]
 302              		.loc 1 47 45 discriminator 3 view .LVU77
 303 0020 04EB4402 		add	r2, r4, r4, lsl #1
 304 0024 8B18     		adds	r3, r1, r2
 305              		.loc 1 47 48 discriminator 3 view .LVU78
 306 0026 8A5C     		ldrb	r2, [r1, r2]	@ zero_extendqisi2
 307 0028 07EE902A 		vmov	s15, r2	@ int
 308              		.loc 1 47 25 discriminator 3 view .LVU79
 309 002c F8EE677A 		vcvt.f32.u32	s15, s15
 310              		.loc 1 47 51 discriminator 3 view .LVU80
 311 0030 67EE887A 		vmul.f32	s15, s15, s16
 312              		.loc 1 47 17 discriminator 3 view .LVU81
 313 0034 FCEEE77A 		vcvt.u32.f32	s15, s15
 314 0038 CDED037A 		vstr.32	s15, [sp, #12]	@ int
 315              	.LVL24:
  48:Core/Src/NOS_LIB_Driver/Src/NOS_WS2812B_Strip.c ****         uint8_t currG = (float)strip->pixels[i].G * coef;
 316              		.loc 1 48 9 is_stmt 1 discriminator 3 view .LVU82
 317              		.loc 1 48 48 is_stmt 0 discriminator 3 view .LVU83
 318 003c 5A78     		ldrb	r2, [r3, #1]	@ zero_extendqisi2
 319 003e 07EE902A 		vmov	s15, r2	@ int
 320              		.loc 1 48 25 discriminator 3 view .LVU84
 321 0042 F8EE677A 		vcvt.f32.u32	s15, s15
 322              		.loc 1 48 51 discriminator 3 view .LVU85
 323 0046 67EE887A 		vmul.f32	s15, s15, s16
 324              		.loc 1 48 17 discriminator 3 view .LVU86
 325 004a FCEEE77A 		vcvt.u32.f32	s15, s15
 326 004e CDED047A 		vstr.32	s15, [sp, #16]	@ int
 327              	.LVL25:
  49:Core/Src/NOS_LIB_Driver/Src/NOS_WS2812B_Strip.c ****         uint8_t currB = (float)strip->pixels[i].B * coef;
 328              		.loc 1 49 9 is_stmt 1 discriminator 3 view .LVU87
 329              		.loc 1 49 48 is_stmt 0 discriminator 3 view .LVU88
 330 0052 9B78     		ldrb	r3, [r3, #2]	@ zero_extendqisi2
 331 0054 07EE903A 		vmov	s15, r3	@ int
 332              		.loc 1 49 25 discriminator 3 view .LVU89
 333 0058 F8EE677A 		vcvt.f32.u32	s15, s15
 334              		.loc 1 49 51 discriminator 3 view .LVU90
 335 005c 67EE887A 		vmul.f32	s15, s15, s16
 336              		.loc 1 49 17 discriminator 3 view .LVU91
 337 0060 FCEEE77A 		vcvt.u32.f32	s15, s15
 338 0064 CDED057A 		vstr.32	s15, [sp, #20]	@ int
 339 0068 9DF81430 		ldrb	r3, [sp, #20]	@ zero_extendqisi2
 340              	.LVL26:
  50:Core/Src/NOS_LIB_Driver/Src/NOS_WS2812B_Strip.c ****         NOS_WS2812B_Strip_CoreSetPixel(strip,i,currR,currG,currB);
 341              		.loc 1 50 9 is_stmt 1 discriminator 3 view .LVU92
 342 006c 0093     		str	r3, [sp]
 343 006e 9DF81030 		ldrb	r3, [sp, #16]	@ zero_extendqisi2
 344              	.LVL27:
 345              		.loc 1 50 9 is_stmt 0 discriminator 3 view .LVU93
 346 0072 9DF80C20 		ldrb	r2, [sp, #12]	@ zero_extendqisi2
 347 0076 2146     		mov	r1, r4
 348 0078 2846     		mov	r0, r5
 349 007a FFF7FEFF 		bl	NOS_WS2812B_Strip_CoreSetPixel
 350              	.LVL28:
 351              		.loc 1 50 9 discriminator 3 view .LVU94
 352              	.LBE4:
  45:Core/Src/NOS_LIB_Driver/Src/NOS_WS2812B_Strip.c ****     {
 353              		.loc 1 45 44 is_stmt 1 discriminator 3 view .LVU95
ARM GAS  C:\Users\igorn\AppData\Local\Temp\ccb8XmqW.s 			page 8


 354 007e 0134     		adds	r4, r4, #1
 355              	.LVL29:
 356              	.L13:
  45:Core/Src/NOS_LIB_Driver/Src/NOS_WS2812B_Strip.c ****     {
 357              		.loc 1 45 22 discriminator 1 view .LVU96
  45:Core/Src/NOS_LIB_Driver/Src/NOS_WS2812B_Strip.c ****     {
 358              		.loc 1 45 29 is_stmt 0 discriminator 1 view .LVU97
 359 0080 AB68     		ldr	r3, [r5, #8]
  45:Core/Src/NOS_LIB_Driver/Src/NOS_WS2812B_Strip.c ****     {
 360              		.loc 1 45 22 discriminator 1 view .LVU98
 361 0082 A342     		cmp	r3, r4
 362 0084 CBDC     		bgt	.L14
 363              	.LBE3:
  51:Core/Src/NOS_LIB_Driver/Src/NOS_WS2812B_Strip.c ****     }
  52:Core/Src/NOS_LIB_Driver/Src/NOS_WS2812B_Strip.c **** 
  53:Core/Src/NOS_LIB_Driver/Src/NOS_WS2812B_Strip.c **** }
 364              		.loc 1 53 1 view .LVU99
 365 0086 07B0     		add	sp, sp, #28
 366              		.cfi_def_cfa_offset 20
 367              		@ sp needed
 368 0088 BDEC028B 		vldm	sp!, {d8}
 369              		.cfi_restore 80
 370              		.cfi_restore 81
 371              		.cfi_def_cfa_offset 12
 372              	.LVL30:
 373              		.loc 1 53 1 view .LVU100
 374 008c 30BD     		pop	{r4, r5, pc}
 375              	.LVL31:
 376              	.L17:
 377              		.loc 1 53 1 view .LVU101
 378 008e 00BF     		.align	2
 379              	.L16:
 380 0090 0000C842 		.word	1120403456
 381              		.cfi_endproc
 382              	.LFE134:
 384              		.section	.text.NOS_WS2812B_Strip_ColorFill,"ax",%progbits
 385              		.align	1
 386              		.global	NOS_WS2812B_Strip_ColorFill
 387              		.syntax unified
 388              		.thumb
 389              		.thumb_func
 391              	NOS_WS2812B_Strip_ColorFill:
 392              	.LVL32:
 393              	.LFB136:
  54:Core/Src/NOS_LIB_Driver/Src/NOS_WS2812B_Strip.c **** 
  55:Core/Src/NOS_LIB_Driver/Src/NOS_WS2812B_Strip.c **** void NOS_WS2812B_Strip_TestFill(WS2812B_Strip* strip)
  56:Core/Src/NOS_LIB_Driver/Src/NOS_WS2812B_Strip.c **** {
  57:Core/Src/NOS_LIB_Driver/Src/NOS_WS2812B_Strip.c ****     int currPixel = 0;
  58:Core/Src/NOS_LIB_Driver/Src/NOS_WS2812B_Strip.c ****     int currColor = 0;
  59:Core/Src/NOS_LIB_Driver/Src/NOS_WS2812B_Strip.c ****     
  60:Core/Src/NOS_LIB_Driver/Src/NOS_WS2812B_Strip.c ****     while(currPixel < strip->pixelCount)
  61:Core/Src/NOS_LIB_Driver/Src/NOS_WS2812B_Strip.c ****     {
  62:Core/Src/NOS_LIB_Driver/Src/NOS_WS2812B_Strip.c ****         NOS_WS2812B_Strip_SetPixelByPixelColor(strip,currPixel,NOS_GetBaseColor(currColor));
  63:Core/Src/NOS_LIB_Driver/Src/NOS_WS2812B_Strip.c ****         
  64:Core/Src/NOS_LIB_Driver/Src/NOS_WS2812B_Strip.c ****         currColor++;
  65:Core/Src/NOS_LIB_Driver/Src/NOS_WS2812B_Strip.c ****         if(currColor > 11)
  66:Core/Src/NOS_LIB_Driver/Src/NOS_WS2812B_Strip.c ****         {
ARM GAS  C:\Users\igorn\AppData\Local\Temp\ccb8XmqW.s 			page 9


  67:Core/Src/NOS_LIB_Driver/Src/NOS_WS2812B_Strip.c ****             currColor = 0;
  68:Core/Src/NOS_LIB_Driver/Src/NOS_WS2812B_Strip.c ****         }
  69:Core/Src/NOS_LIB_Driver/Src/NOS_WS2812B_Strip.c **** 
  70:Core/Src/NOS_LIB_Driver/Src/NOS_WS2812B_Strip.c ****         currPixel++;
  71:Core/Src/NOS_LIB_Driver/Src/NOS_WS2812B_Strip.c ****     }
  72:Core/Src/NOS_LIB_Driver/Src/NOS_WS2812B_Strip.c **** }
  73:Core/Src/NOS_LIB_Driver/Src/NOS_WS2812B_Strip.c **** 
  74:Core/Src/NOS_LIB_Driver/Src/NOS_WS2812B_Strip.c **** void NOS_WS2812B_Strip_ColorFill(WS2812B_Strip* strip,PixelColor color)
  75:Core/Src/NOS_LIB_Driver/Src/NOS_WS2812B_Strip.c **** {
 394              		.loc 1 75 1 is_stmt 1 view -0
 395              		.cfi_startproc
 396              		@ args = 0, pretend = 0, frame = 8
 397              		@ frame_needed = 0, uses_anonymous_args = 0
 398              		.loc 1 75 1 is_stmt 0 view .LVU103
 399 0000 30B5     		push	{r4, r5, lr}
 400              		.cfi_def_cfa_offset 12
 401              		.cfi_offset 4, -12
 402              		.cfi_offset 5, -8
 403              		.cfi_offset 14, -4
 404 0002 85B0     		sub	sp, sp, #20
 405              		.cfi_def_cfa_offset 32
 406 0004 0546     		mov	r5, r0
 407 0006 0391     		str	r1, [sp, #12]
  76:Core/Src/NOS_LIB_Driver/Src/NOS_WS2812B_Strip.c ****     for(int i = 0; i < strip->pixelCount; i++)
 408              		.loc 1 76 5 is_stmt 1 view .LVU104
 409              	.LBB5:
 410              		.loc 1 76 9 view .LVU105
 411              	.LVL33:
 412              		.loc 1 76 13 is_stmt 0 view .LVU106
 413 0008 0024     		movs	r4, #0
 414              		.loc 1 76 5 view .LVU107
 415 000a 0BE0     		b	.L19
 416              	.LVL34:
 417              	.L20:
  77:Core/Src/NOS_LIB_Driver/Src/NOS_WS2812B_Strip.c ****     {
  78:Core/Src/NOS_LIB_Driver/Src/NOS_WS2812B_Strip.c ****         NOS_WS2812B_Strip_SetPixel(strip,i,color.R,color.G,color.B);
 418              		.loc 1 78 9 is_stmt 1 discriminator 3 view .LVU108
 419 000c 9DF80E30 		ldrb	r3, [sp, #14]	@ zero_extendqisi2
 420 0010 0093     		str	r3, [sp]
 421 0012 9DF80D30 		ldrb	r3, [sp, #13]	@ zero_extendqisi2
 422 0016 9DF80C20 		ldrb	r2, [sp, #12]	@ zero_extendqisi2
 423 001a 2146     		mov	r1, r4
 424 001c 2846     		mov	r0, r5
 425 001e FFF7FEFF 		bl	NOS_WS2812B_Strip_SetPixel
 426              	.LVL35:
  76:Core/Src/NOS_LIB_Driver/Src/NOS_WS2812B_Strip.c ****     for(int i = 0; i < strip->pixelCount; i++)
 427              		.loc 1 76 44 discriminator 3 view .LVU109
 428 0022 0134     		adds	r4, r4, #1
 429              	.LVL36:
 430              	.L19:
  76:Core/Src/NOS_LIB_Driver/Src/NOS_WS2812B_Strip.c ****     for(int i = 0; i < strip->pixelCount; i++)
 431              		.loc 1 76 22 discriminator 1 view .LVU110
  76:Core/Src/NOS_LIB_Driver/Src/NOS_WS2812B_Strip.c ****     for(int i = 0; i < strip->pixelCount; i++)
 432              		.loc 1 76 29 is_stmt 0 discriminator 1 view .LVU111
 433 0024 AB68     		ldr	r3, [r5, #8]
  76:Core/Src/NOS_LIB_Driver/Src/NOS_WS2812B_Strip.c ****     for(int i = 0; i < strip->pixelCount; i++)
 434              		.loc 1 76 22 discriminator 1 view .LVU112
ARM GAS  C:\Users\igorn\AppData\Local\Temp\ccb8XmqW.s 			page 10


 435 0026 A342     		cmp	r3, r4
 436 0028 F0DC     		bgt	.L20
 437              	.LBE5:
  79:Core/Src/NOS_LIB_Driver/Src/NOS_WS2812B_Strip.c ****     }
  80:Core/Src/NOS_LIB_Driver/Src/NOS_WS2812B_Strip.c **** }
 438              		.loc 1 80 1 view .LVU113
 439 002a 05B0     		add	sp, sp, #20
 440              		.cfi_def_cfa_offset 12
 441              		@ sp needed
 442 002c 30BD     		pop	{r4, r5, pc}
 443              		.loc 1 80 1 view .LVU114
 444              		.cfi_endproc
 445              	.LFE136:
 447              		.section	.text.NOS_WS2812B_Strip_SetPixelByRGB,"ax",%progbits
 448              		.align	1
 449              		.global	NOS_WS2812B_Strip_SetPixelByRGB
 450              		.syntax unified
 451              		.thumb
 452              		.thumb_func
 454              	NOS_WS2812B_Strip_SetPixelByRGB:
 455              	.LVL37:
 456              	.LFB137:
  81:Core/Src/NOS_LIB_Driver/Src/NOS_WS2812B_Strip.c **** 
  82:Core/Src/NOS_LIB_Driver/Src/NOS_WS2812B_Strip.c **** void NOS_WS2812B_Strip_SetPixelByRGB(WS2812B_Strip* strip,int pixelPos,uint32_t rgb)
  83:Core/Src/NOS_LIB_Driver/Src/NOS_WS2812B_Strip.c **** {
 457              		.loc 1 83 1 is_stmt 1 view -0
 458              		.cfi_startproc
 459              		@ args = 0, pretend = 0, frame = 0
 460              		@ frame_needed = 0, uses_anonymous_args = 0
 461              		.loc 1 83 1 is_stmt 0 view .LVU116
 462 0000 00B5     		push	{lr}
 463              		.cfi_def_cfa_offset 4
 464              		.cfi_offset 14, -4
 465 0002 83B0     		sub	sp, sp, #12
 466              		.cfi_def_cfa_offset 16
  84:Core/Src/NOS_LIB_Driver/Src/NOS_WS2812B_Strip.c ****     uint8_t R = (rgb & 0x00FF0000) >> 16;
 467              		.loc 1 84 5 is_stmt 1 view .LVU117
 468              	.LVL38:
  85:Core/Src/NOS_LIB_Driver/Src/NOS_WS2812B_Strip.c ****     uint8_t G = (rgb & 0x0000FF00) >> 8;
 469              		.loc 1 85 5 view .LVU118
  86:Core/Src/NOS_LIB_Driver/Src/NOS_WS2812B_Strip.c ****     uint8_t B = rgb & 0x000000FF;
 470              		.loc 1 86 5 view .LVU119
 471              		.loc 1 86 13 is_stmt 0 view .LVU120
 472 0004 D3B2     		uxtb	r3, r2
 473              	.LVL39:
  87:Core/Src/NOS_LIB_Driver/Src/NOS_WS2812B_Strip.c **** 
  88:Core/Src/NOS_LIB_Driver/Src/NOS_WS2812B_Strip.c ****     NOS_WS2812B_Strip_SetPixel(strip,pixelPos,R,G,B);
 474              		.loc 1 88 5 is_stmt 1 view .LVU121
 475 0006 0093     		str	r3, [sp]
 476 0008 C2F30723 		ubfx	r3, r2, #8, #8
 477              	.LVL40:
 478              		.loc 1 88 5 is_stmt 0 view .LVU122
 479 000c C2F30742 		ubfx	r2, r2, #16, #8
 480              	.LVL41:
 481              		.loc 1 88 5 view .LVU123
 482 0010 FFF7FEFF 		bl	NOS_WS2812B_Strip_SetPixel
 483              	.LVL42:
ARM GAS  C:\Users\igorn\AppData\Local\Temp\ccb8XmqW.s 			page 11


  89:Core/Src/NOS_LIB_Driver/Src/NOS_WS2812B_Strip.c **** }
 484              		.loc 1 89 1 view .LVU124
 485 0014 03B0     		add	sp, sp, #12
 486              		.cfi_def_cfa_offset 4
 487              		@ sp needed
 488 0016 5DF804FB 		ldr	pc, [sp], #4
 489              		.cfi_endproc
 490              	.LFE137:
 492              		.section	.text.NOS_WS2812B_Strip_SetPixelByPixelColor,"ax",%progbits
 493              		.align	1
 494              		.global	NOS_WS2812B_Strip_SetPixelByPixelColor
 495              		.syntax unified
 496              		.thumb
 497              		.thumb_func
 499              	NOS_WS2812B_Strip_SetPixelByPixelColor:
 500              	.LVL43:
 501              	.LFB138:
  90:Core/Src/NOS_LIB_Driver/Src/NOS_WS2812B_Strip.c **** 
  91:Core/Src/NOS_LIB_Driver/Src/NOS_WS2812B_Strip.c **** void NOS_WS2812B_Strip_SetPixelByPixelColor(WS2812B_Strip* strip,int pixelPos, PixelColor color)
  92:Core/Src/NOS_LIB_Driver/Src/NOS_WS2812B_Strip.c **** {
 502              		.loc 1 92 1 is_stmt 1 view -0
 503              		.cfi_startproc
 504              		@ args = 0, pretend = 0, frame = 8
 505              		@ frame_needed = 0, uses_anonymous_args = 0
 506              		.loc 1 92 1 is_stmt 0 view .LVU126
 507 0000 00B5     		push	{lr}
 508              		.cfi_def_cfa_offset 4
 509              		.cfi_offset 14, -4
 510 0002 85B0     		sub	sp, sp, #20
 511              		.cfi_def_cfa_offset 24
 512 0004 0392     		str	r2, [sp, #12]
  93:Core/Src/NOS_LIB_Driver/Src/NOS_WS2812B_Strip.c ****     NOS_WS2812B_Strip_SetPixel(strip,pixelPos,color.R,color.G,color.B);
 513              		.loc 1 93 5 is_stmt 1 view .LVU127
 514 0006 9DF80E30 		ldrb	r3, [sp, #14]	@ zero_extendqisi2
 515 000a 0093     		str	r3, [sp]
 516 000c 9DF80D30 		ldrb	r3, [sp, #13]	@ zero_extendqisi2
 517 0010 9DF80C20 		ldrb	r2, [sp, #12]	@ zero_extendqisi2
 518 0014 FFF7FEFF 		bl	NOS_WS2812B_Strip_SetPixel
 519              	.LVL44:
  94:Core/Src/NOS_LIB_Driver/Src/NOS_WS2812B_Strip.c **** }
 520              		.loc 1 94 1 is_stmt 0 view .LVU128
 521 0018 05B0     		add	sp, sp, #20
 522              		.cfi_def_cfa_offset 4
 523              		@ sp needed
 524 001a 5DF804FB 		ldr	pc, [sp], #4
 525              		.cfi_endproc
 526              	.LFE138:
 528              		.section	.text.NOS_WS2812B_Strip_TestFill,"ax",%progbits
 529              		.align	1
 530              		.global	NOS_WS2812B_Strip_TestFill
 531              		.syntax unified
 532              		.thumb
 533              		.thumb_func
 535              	NOS_WS2812B_Strip_TestFill:
 536              	.LVL45:
 537              	.LFB135:
  56:Core/Src/NOS_LIB_Driver/Src/NOS_WS2812B_Strip.c ****     int currPixel = 0;
ARM GAS  C:\Users\igorn\AppData\Local\Temp\ccb8XmqW.s 			page 12


 538              		.loc 1 56 1 is_stmt 1 view -0
 539              		.cfi_startproc
 540              		@ args = 0, pretend = 0, frame = 8
 541              		@ frame_needed = 0, uses_anonymous_args = 0
  56:Core/Src/NOS_LIB_Driver/Src/NOS_WS2812B_Strip.c ****     int currPixel = 0;
 542              		.loc 1 56 1 is_stmt 0 view .LVU130
 543 0000 70B5     		push	{r4, r5, r6, lr}
 544              		.cfi_def_cfa_offset 16
 545              		.cfi_offset 4, -16
 546              		.cfi_offset 5, -12
 547              		.cfi_offset 6, -8
 548              		.cfi_offset 14, -4
 549 0002 82B0     		sub	sp, sp, #8
 550              		.cfi_def_cfa_offset 24
 551 0004 0646     		mov	r6, r0
  57:Core/Src/NOS_LIB_Driver/Src/NOS_WS2812B_Strip.c ****     int currColor = 0;
 552              		.loc 1 57 5 is_stmt 1 view .LVU131
 553              	.LVL46:
  58:Core/Src/NOS_LIB_Driver/Src/NOS_WS2812B_Strip.c ****     
 554              		.loc 1 58 5 view .LVU132
  60:Core/Src/NOS_LIB_Driver/Src/NOS_WS2812B_Strip.c ****     {
 555              		.loc 1 60 5 view .LVU133
  58:Core/Src/NOS_LIB_Driver/Src/NOS_WS2812B_Strip.c ****     
 556              		.loc 1 58 9 is_stmt 0 view .LVU134
 557 0006 0024     		movs	r4, #0
  57:Core/Src/NOS_LIB_Driver/Src/NOS_WS2812B_Strip.c ****     int currColor = 0;
 558              		.loc 1 57 9 view .LVU135
 559 0008 2546     		mov	r5, r4
  60:Core/Src/NOS_LIB_Driver/Src/NOS_WS2812B_Strip.c ****     {
 560              		.loc 1 60 10 view .LVU136
 561 000a 00E0     		b	.L27
 562              	.LVL47:
 563              	.L28:
  70:Core/Src/NOS_LIB_Driver/Src/NOS_WS2812B_Strip.c ****     }
 564              		.loc 1 70 9 is_stmt 1 view .LVU137
  70:Core/Src/NOS_LIB_Driver/Src/NOS_WS2812B_Strip.c ****     }
 565              		.loc 1 70 18 is_stmt 0 view .LVU138
 566 000c 0135     		adds	r5, r5, #1
 567              	.LVL48:
 568              	.L27:
  60:Core/Src/NOS_LIB_Driver/Src/NOS_WS2812B_Strip.c ****     {
 569              		.loc 1 60 21 is_stmt 1 view .LVU139
  60:Core/Src/NOS_LIB_Driver/Src/NOS_WS2812B_Strip.c ****     {
 570              		.loc 1 60 28 is_stmt 0 view .LVU140
 571 000e B368     		ldr	r3, [r6, #8]
  60:Core/Src/NOS_LIB_Driver/Src/NOS_WS2812B_Strip.c ****     {
 572              		.loc 1 60 21 view .LVU141
 573 0010 AB42     		cmp	r3, r5
 574 0012 16DD     		ble	.L32
  62:Core/Src/NOS_LIB_Driver/Src/NOS_WS2812B_Strip.c ****         
 575              		.loc 1 62 9 is_stmt 1 view .LVU142
 576 0014 E0B2     		uxtb	r0, r4
 577 0016 FFF7FEFF 		bl	NOS_GetBaseColor
 578              	.LVL49:
 579 001a 8DF80400 		strb	r0, [sp, #4]
 580 001e C0F30723 		ubfx	r3, r0, #8, #8
 581 0022 8DF80530 		strb	r3, [sp, #5]
ARM GAS  C:\Users\igorn\AppData\Local\Temp\ccb8XmqW.s 			page 13


 582 0026 C0F30740 		ubfx	r0, r0, #16, #8
 583 002a 8DF80600 		strb	r0, [sp, #6]
 584 002e 019A     		ldr	r2, [sp, #4]
 585 0030 2946     		mov	r1, r5
 586 0032 3046     		mov	r0, r6
 587 0034 FFF7FEFF 		bl	NOS_WS2812B_Strip_SetPixelByPixelColor
 588              	.LVL50:
  64:Core/Src/NOS_LIB_Driver/Src/NOS_WS2812B_Strip.c ****         if(currColor > 11)
 589              		.loc 1 64 9 view .LVU143
  64:Core/Src/NOS_LIB_Driver/Src/NOS_WS2812B_Strip.c ****         if(currColor > 11)
 590              		.loc 1 64 18 is_stmt 0 view .LVU144
 591 0038 0134     		adds	r4, r4, #1
 592              	.LVL51:
  65:Core/Src/NOS_LIB_Driver/Src/NOS_WS2812B_Strip.c ****         {
 593              		.loc 1 65 9 is_stmt 1 view .LVU145
  65:Core/Src/NOS_LIB_Driver/Src/NOS_WS2812B_Strip.c ****         {
 594              		.loc 1 65 11 is_stmt 0 view .LVU146
 595 003a 0B2C     		cmp	r4, #11
 596 003c E6DD     		ble	.L28
  67:Core/Src/NOS_LIB_Driver/Src/NOS_WS2812B_Strip.c ****         }
 597              		.loc 1 67 23 view .LVU147
 598 003e 0024     		movs	r4, #0
 599              	.LVL52:
  67:Core/Src/NOS_LIB_Driver/Src/NOS_WS2812B_Strip.c ****         }
 600              		.loc 1 67 23 view .LVU148
 601 0040 E4E7     		b	.L28
 602              	.LVL53:
 603              	.L32:
  72:Core/Src/NOS_LIB_Driver/Src/NOS_WS2812B_Strip.c **** 
 604              		.loc 1 72 1 view .LVU149
 605 0042 02B0     		add	sp, sp, #8
 606              		.cfi_def_cfa_offset 16
 607              		@ sp needed
 608 0044 70BD     		pop	{r4, r5, r6, pc}
  72:Core/Src/NOS_LIB_Driver/Src/NOS_WS2812B_Strip.c **** 
 609              		.loc 1 72 1 view .LVU150
 610              		.cfi_endproc
 611              	.LFE135:
 613              		.section	.text.NOS_WS2812B_Strip_SetBright,"ax",%progbits
 614              		.align	1
 615              		.global	NOS_WS2812B_Strip_SetBright
 616              		.syntax unified
 617              		.thumb
 618              		.thumb_func
 620              	NOS_WS2812B_Strip_SetBright:
 621              	.LVL54:
 622              	.LFB139:
  95:Core/Src/NOS_LIB_Driver/Src/NOS_WS2812B_Strip.c **** 
  96:Core/Src/NOS_LIB_Driver/Src/NOS_WS2812B_Strip.c **** void NOS_WS2812B_Strip_SetBright(WS2812B_Strip* strip,uint8_t bright)
  97:Core/Src/NOS_LIB_Driver/Src/NOS_WS2812B_Strip.c **** {
 623              		.loc 1 97 1 is_stmt 1 view -0
 624              		.cfi_startproc
 625              		@ args = 0, pretend = 0, frame = 0
 626              		@ frame_needed = 0, uses_anonymous_args = 0
 627              		@ link register save eliminated.
  98:Core/Src/NOS_LIB_Driver/Src/NOS_WS2812B_Strip.c ****     strip->bright = bright;
 628              		.loc 1 98 5 view .LVU152
ARM GAS  C:\Users\igorn\AppData\Local\Temp\ccb8XmqW.s 			page 14


 629              		.loc 1 98 19 is_stmt 0 view .LVU153
 630 0000 C160     		str	r1, [r0, #12]
  99:Core/Src/NOS_LIB_Driver/Src/NOS_WS2812B_Strip.c **** }
 631              		.loc 1 99 1 view .LVU154
 632 0002 7047     		bx	lr
 633              		.cfi_endproc
 634              	.LFE139:
 636              		.section	.text.NOS_WS2812B_Strip_Effect_Breathe_Init,"ax",%progbits
 637              		.align	1
 638              		.global	NOS_WS2812B_Strip_Effect_Breathe_Init
 639              		.syntax unified
 640              		.thumb
 641              		.thumb_func
 643              	NOS_WS2812B_Strip_Effect_Breathe_Init:
 644              	.LVL55:
 645              	.LFB140:
 100:Core/Src/NOS_LIB_Driver/Src/NOS_WS2812B_Strip.c **** 
 101:Core/Src/NOS_LIB_Driver/Src/NOS_WS2812B_Strip.c **** void NOS_WS2812B_Strip_Effect_Breathe_Init(Effect_Struct* effect,uint16_t speed,uint16_t step,uint1
 102:Core/Src/NOS_LIB_Driver/Src/NOS_WS2812B_Strip.c **** {
 646              		.loc 1 102 1 is_stmt 1 view -0
 647              		.cfi_startproc
 648              		@ args = 4, pretend = 0, frame = 0
 649              		@ frame_needed = 0, uses_anonymous_args = 0
 650              		.loc 1 102 1 is_stmt 0 view .LVU156
 651 0000 2DE9F041 		push	{r4, r5, r6, r7, r8, lr}
 652              		.cfi_def_cfa_offset 24
 653              		.cfi_offset 4, -24
 654              		.cfi_offset 5, -20
 655              		.cfi_offset 6, -16
 656              		.cfi_offset 7, -12
 657              		.cfi_offset 8, -8
 658              		.cfi_offset 14, -4
 659 0004 0446     		mov	r4, r0
 660 0006 0F46     		mov	r7, r1
 661 0008 1546     		mov	r5, r2
 662 000a 1E46     		mov	r6, r3
 663 000c BDF81880 		ldrh	r8, [sp, #24]
 103:Core/Src/NOS_LIB_Driver/Src/NOS_WS2812B_Strip.c ****         NOS_Math_SinValue_Init(&effect->value,minValue,maxValue,step);
 664              		.loc 1 103 9 is_stmt 1 view .LVU157
 665 0010 1346     		mov	r3, r2
 666              	.LVL56:
 667              		.loc 1 103 9 is_stmt 0 view .LVU158
 668 0012 4246     		mov	r2, r8
 669              	.LVL57:
 670              		.loc 1 103 9 view .LVU159
 671 0014 3146     		mov	r1, r6
 672              	.LVL58:
 673              		.loc 1 103 9 view .LVU160
 674 0016 FFF7FEFF 		bl	NOS_Math_SinValue_Init
 675              	.LVL59:
 104:Core/Src/NOS_LIB_Driver/Src/NOS_WS2812B_Strip.c ****         effect->minValue = minValue;
 676              		.loc 1 104 9 is_stmt 1 view .LVU161
 677              		.loc 1 104 26 is_stmt 0 view .LVU162
 678 001a 6683     		strh	r6, [r4, #26]	@ movhi
 105:Core/Src/NOS_LIB_Driver/Src/NOS_WS2812B_Strip.c ****         effect->maxValue = maxValue;
 679              		.loc 1 105 9 is_stmt 1 view .LVU163
 680              		.loc 1 105 26 is_stmt 0 view .LVU164
ARM GAS  C:\Users\igorn\AppData\Local\Temp\ccb8XmqW.s 			page 15


 681 001c A4F81C80 		strh	r8, [r4, #28]	@ movhi
 106:Core/Src/NOS_LIB_Driver/Src/NOS_WS2812B_Strip.c ****         effect->speed.data = speed;
 682              		.loc 1 106 9 is_stmt 1 view .LVU165
 683              		.loc 1 106 28 is_stmt 0 view .LVU166
 684 0020 A782     		strh	r7, [r4, #20]	@ movhi
 107:Core/Src/NOS_LIB_Driver/Src/NOS_WS2812B_Strip.c ****         effect->step.data = step;
 685              		.loc 1 107 9 is_stmt 1 view .LVU167
 686              		.loc 1 107 27 is_stmt 0 view .LVU168
 687 0022 E582     		strh	r5, [r4, #22]	@ movhi
 108:Core/Src/NOS_LIB_Driver/Src/NOS_WS2812B_Strip.c ****         effect->enabled = true;
 688              		.loc 1 108 9 is_stmt 1 view .LVU169
 689              		.loc 1 108 25 is_stmt 0 view .LVU170
 690 0024 0123     		movs	r3, #1
 691 0026 A377     		strb	r3, [r4, #30]
 109:Core/Src/NOS_LIB_Driver/Src/NOS_WS2812B_Strip.c ****         effect->effectId = 0x20;   
 692              		.loc 1 109 9 is_stmt 1 view .LVU171
 693              		.loc 1 109 26 is_stmt 0 view .LVU172
 694 0028 2023     		movs	r3, #32
 695 002a E377     		strb	r3, [r4, #31]
 110:Core/Src/NOS_LIB_Driver/Src/NOS_WS2812B_Strip.c **** }
 696              		.loc 1 110 1 view .LVU173
 697 002c BDE8F081 		pop	{r4, r5, r6, r7, r8, pc}
 698              		.loc 1 110 1 view .LVU174
 699              		.cfi_endproc
 700              	.LFE140:
 702              		.section	.text.NOS_WS2812B_Strip_Effect_Breathe_Handler,"ax",%progbits
 703              		.align	1
 704              		.global	NOS_WS2812B_Strip_Effect_Breathe_Handler
 705              		.syntax unified
 706              		.thumb
 707              		.thumb_func
 709              	NOS_WS2812B_Strip_Effect_Breathe_Handler:
 710              	.LVL60:
 711              	.LFB143:
 111:Core/Src/NOS_LIB_Driver/Src/NOS_WS2812B_Strip.c **** 
 112:Core/Src/NOS_LIB_Driver/Src/NOS_WS2812B_Strip.c **** void NOS_WS2812B_Strip_Effects_AddEffect(WS2812B_Strip* strip,Effect_Struct effect)
 113:Core/Src/NOS_LIB_Driver/Src/NOS_WS2812B_Strip.c **** {
 114:Core/Src/NOS_LIB_Driver/Src/NOS_WS2812B_Strip.c ****     if(strip->effectsCounter < 10)
 115:Core/Src/NOS_LIB_Driver/Src/NOS_WS2812B_Strip.c ****     {
 116:Core/Src/NOS_LIB_Driver/Src/NOS_WS2812B_Strip.c ****         switch(effect.effectId)
 117:Core/Src/NOS_LIB_Driver/Src/NOS_WS2812B_Strip.c ****         {
 118:Core/Src/NOS_LIB_Driver/Src/NOS_WS2812B_Strip.c ****             case 0x20:
 119:Core/Src/NOS_LIB_Driver/Src/NOS_WS2812B_Strip.c ****                 NOS_WS2812B_Strip_Effect_Breathe_Init(&strip->effects[strip->effectsCounter],effect
 120:Core/Src/NOS_LIB_Driver/Src/NOS_WS2812B_Strip.c ****                 break;
 121:Core/Src/NOS_LIB_Driver/Src/NOS_WS2812B_Strip.c ****             case 0x21:
 122:Core/Src/NOS_LIB_Driver/Src/NOS_WS2812B_Strip.c ****                 NOS_WS2812B_Strip_Effect_Rainbow_Init(&strip->effects[strip->effectsCounter],effect
 123:Core/Src/NOS_LIB_Driver/Src/NOS_WS2812B_Strip.c ****                 break;
 124:Core/Src/NOS_LIB_Driver/Src/NOS_WS2812B_Strip.c ****         }
 125:Core/Src/NOS_LIB_Driver/Src/NOS_WS2812B_Strip.c **** 
 126:Core/Src/NOS_LIB_Driver/Src/NOS_WS2812B_Strip.c ****         strip->effectsCounter++;
 127:Core/Src/NOS_LIB_Driver/Src/NOS_WS2812B_Strip.c ****     }
 128:Core/Src/NOS_LIB_Driver/Src/NOS_WS2812B_Strip.c **** }
 129:Core/Src/NOS_LIB_Driver/Src/NOS_WS2812B_Strip.c **** 
 130:Core/Src/NOS_LIB_Driver/Src/NOS_WS2812B_Strip.c **** void NOS_WS2812B_Strip_Effects_Handler(WS2812B_Strip* strip)
 131:Core/Src/NOS_LIB_Driver/Src/NOS_WS2812B_Strip.c **** {
 132:Core/Src/NOS_LIB_Driver/Src/NOS_WS2812B_Strip.c ****     for(int i = 0; i < strip->effectsCounter; i++)
 133:Core/Src/NOS_LIB_Driver/Src/NOS_WS2812B_Strip.c ****     {
ARM GAS  C:\Users\igorn\AppData\Local\Temp\ccb8XmqW.s 			page 16


 134:Core/Src/NOS_LIB_Driver/Src/NOS_WS2812B_Strip.c ****         switch(strip->effects[i].effectId)
 135:Core/Src/NOS_LIB_Driver/Src/NOS_WS2812B_Strip.c ****         {
 136:Core/Src/NOS_LIB_Driver/Src/NOS_WS2812B_Strip.c ****             case 0x20:
 137:Core/Src/NOS_LIB_Driver/Src/NOS_WS2812B_Strip.c ****                 NOS_WS2812B_Strip_Effect_Breathe_Handler(strip,&strip->effects[i]);
 138:Core/Src/NOS_LIB_Driver/Src/NOS_WS2812B_Strip.c ****                 break;
 139:Core/Src/NOS_LIB_Driver/Src/NOS_WS2812B_Strip.c ****             case 0x21:
 140:Core/Src/NOS_LIB_Driver/Src/NOS_WS2812B_Strip.c ****                 NOS_WS2812B_Strip_Effect_Rainbow_Handler(strip,&strip->effects[i]);
 141:Core/Src/NOS_LIB_Driver/Src/NOS_WS2812B_Strip.c ****                 break;
 142:Core/Src/NOS_LIB_Driver/Src/NOS_WS2812B_Strip.c ****         }
 143:Core/Src/NOS_LIB_Driver/Src/NOS_WS2812B_Strip.c ****     }
 144:Core/Src/NOS_LIB_Driver/Src/NOS_WS2812B_Strip.c **** }
 145:Core/Src/NOS_LIB_Driver/Src/NOS_WS2812B_Strip.c **** 
 146:Core/Src/NOS_LIB_Driver/Src/NOS_WS2812B_Strip.c **** void NOS_WS2812B_Strip_Effect_Breathe_Handler(WS2812B_Strip* strip,Effect_Struct* effect)
 147:Core/Src/NOS_LIB_Driver/Src/NOS_WS2812B_Strip.c **** {
 712              		.loc 1 147 1 is_stmt 1 view -0
 713              		.cfi_startproc
 714              		@ args = 0, pretend = 0, frame = 0
 715              		@ frame_needed = 0, uses_anonymous_args = 0
 148:Core/Src/NOS_LIB_Driver/Src/NOS_WS2812B_Strip.c ****     if(strip != NULL)
 716              		.loc 1 148 5 view .LVU176
 717              		.loc 1 148 7 is_stmt 0 view .LVU177
 718 0000 D0B1     		cbz	r0, .L40
 147:Core/Src/NOS_LIB_Driver/Src/NOS_WS2812B_Strip.c ****     if(strip != NULL)
 719              		.loc 1 147 1 view .LVU178
 720 0002 38B5     		push	{r3, r4, r5, lr}
 721              		.cfi_def_cfa_offset 16
 722              		.cfi_offset 3, -16
 723              		.cfi_offset 4, -12
 724              		.cfi_offset 5, -8
 725              		.cfi_offset 14, -4
 726 0004 0C46     		mov	r4, r1
 727 0006 0546     		mov	r5, r0
 149:Core/Src/NOS_LIB_Driver/Src/NOS_WS2812B_Strip.c ****     {
 150:Core/Src/NOS_LIB_Driver/Src/NOS_WS2812B_Strip.c ****         if(effect != NULL)
 728              		.loc 1 150 9 is_stmt 1 view .LVU179
 729              		.loc 1 150 11 is_stmt 0 view .LVU180
 730 0008 41B1     		cbz	r1, .L36
 151:Core/Src/NOS_LIB_Driver/Src/NOS_WS2812B_Strip.c ****         {
 152:Core/Src/NOS_LIB_Driver/Src/NOS_WS2812B_Strip.c ****             if(effect->enabled)
 731              		.loc 1 152 13 is_stmt 1 view .LVU181
 732              		.loc 1 152 22 is_stmt 0 view .LVU182
 733 000a 8B7F     		ldrb	r3, [r1, #30]	@ zero_extendqisi2
 734              		.loc 1 152 15 view .LVU183
 735 000c 33B1     		cbz	r3, .L36
 153:Core/Src/NOS_LIB_Driver/Src/NOS_WS2812B_Strip.c ****             {
 154:Core/Src/NOS_LIB_Driver/Src/NOS_WS2812B_Strip.c ****                 if(effect->timer > effect->speed.data)
 736              		.loc 1 154 17 is_stmt 1 view .LVU184
 737              		.loc 1 154 26 is_stmt 0 view .LVU185
 738 000e 0A8B     		ldrh	r2, [r1, #24]
 739              		.loc 1 154 49 view .LVU186
 740 0010 8B8A     		ldrh	r3, [r1, #20]
 741              		.loc 1 154 19 view .LVU187
 742 0012 9A42     		cmp	r2, r3
 743 0014 03D8     		bhi	.L43
 744              	.LVL61:
 745              	.L38:
 155:Core/Src/NOS_LIB_Driver/Src/NOS_WS2812B_Strip.c ****                 {
ARM GAS  C:\Users\igorn\AppData\Local\Temp\ccb8XmqW.s 			page 17


 156:Core/Src/NOS_LIB_Driver/Src/NOS_WS2812B_Strip.c ****                     NOS_Math_SinValue_Handler(&effect->value);
 157:Core/Src/NOS_LIB_Driver/Src/NOS_WS2812B_Strip.c ****                     NOS_WS2812B_Strip_SetBright(strip,effect->value.value);
 158:Core/Src/NOS_LIB_Driver/Src/NOS_WS2812B_Strip.c ****                     NOS_WS2812B_Strip_Update(strip);
 159:Core/Src/NOS_LIB_Driver/Src/NOS_WS2812B_Strip.c ****                     effect->timer = 0;
 160:Core/Src/NOS_LIB_Driver/Src/NOS_WS2812B_Strip.c ****                 }
 161:Core/Src/NOS_LIB_Driver/Src/NOS_WS2812B_Strip.c ****                 effect->timer++;
 746              		.loc 1 161 17 is_stmt 1 view .LVU188
 747              		.loc 1 161 23 is_stmt 0 view .LVU189
 748 0016 238B     		ldrh	r3, [r4, #24]
 749              		.loc 1 161 30 view .LVU190
 750 0018 0133     		adds	r3, r3, #1
 751 001a 2383     		strh	r3, [r4, #24]	@ movhi
 752              	.L36:
 162:Core/Src/NOS_LIB_Driver/Src/NOS_WS2812B_Strip.c ****             }
 163:Core/Src/NOS_LIB_Driver/Src/NOS_WS2812B_Strip.c ****         }
 164:Core/Src/NOS_LIB_Driver/Src/NOS_WS2812B_Strip.c ****     }
 165:Core/Src/NOS_LIB_Driver/Src/NOS_WS2812B_Strip.c **** }
 753              		.loc 1 165 1 view .LVU191
 754 001c 38BD     		pop	{r3, r4, r5, pc}
 755              	.LVL62:
 756              	.L43:
 156:Core/Src/NOS_LIB_Driver/Src/NOS_WS2812B_Strip.c ****                     NOS_WS2812B_Strip_SetBright(strip,effect->value.value);
 757              		.loc 1 156 21 is_stmt 1 view .LVU192
 758 001e 0846     		mov	r0, r1
 759              	.LVL63:
 156:Core/Src/NOS_LIB_Driver/Src/NOS_WS2812B_Strip.c ****                     NOS_WS2812B_Strip_SetBright(strip,effect->value.value);
 760              		.loc 1 156 21 is_stmt 0 view .LVU193
 761 0020 FFF7FEFF 		bl	NOS_Math_SinValue_Handler
 762              	.LVL64:
 157:Core/Src/NOS_LIB_Driver/Src/NOS_WS2812B_Strip.c ****                     NOS_WS2812B_Strip_Update(strip);
 763              		.loc 1 157 21 is_stmt 1 view .LVU194
 764 0024 2178     		ldrb	r1, [r4]	@ zero_extendqisi2
 765 0026 2846     		mov	r0, r5
 766 0028 FFF7FEFF 		bl	NOS_WS2812B_Strip_SetBright
 767              	.LVL65:
 158:Core/Src/NOS_LIB_Driver/Src/NOS_WS2812B_Strip.c ****                     effect->timer = 0;
 768              		.loc 1 158 21 view .LVU195
 769 002c 2846     		mov	r0, r5
 770 002e FFF7FEFF 		bl	NOS_WS2812B_Strip_Update
 771              	.LVL66:
 159:Core/Src/NOS_LIB_Driver/Src/NOS_WS2812B_Strip.c ****                 }
 772              		.loc 1 159 21 view .LVU196
 159:Core/Src/NOS_LIB_Driver/Src/NOS_WS2812B_Strip.c ****                 }
 773              		.loc 1 159 35 is_stmt 0 view .LVU197
 774 0032 0023     		movs	r3, #0
 775 0034 2383     		strh	r3, [r4, #24]	@ movhi
 776 0036 EEE7     		b	.L38
 777              	.LVL67:
 778              	.L40:
 779              		.cfi_def_cfa_offset 0
 780              		.cfi_restore 3
 781              		.cfi_restore 4
 782              		.cfi_restore 5
 783              		.cfi_restore 14
 159:Core/Src/NOS_LIB_Driver/Src/NOS_WS2812B_Strip.c ****                 }
 784              		.loc 1 159 35 view .LVU198
 785 0038 7047     		bx	lr
ARM GAS  C:\Users\igorn\AppData\Local\Temp\ccb8XmqW.s 			page 18


 786              		.cfi_endproc
 787              	.LFE143:
 789              		.section	.text.NOS_WS2812B_Strip_Effect_Rainbow_Init,"ax",%progbits
 790              		.align	1
 791              		.global	NOS_WS2812B_Strip_Effect_Rainbow_Init
 792              		.syntax unified
 793              		.thumb
 794              		.thumb_func
 796              	NOS_WS2812B_Strip_Effect_Rainbow_Init:
 797              	.LVL68:
 798              	.LFB145:
 166:Core/Src/NOS_LIB_Driver/Src/NOS_WS2812B_Strip.c **** 
 167:Core/Src/NOS_LIB_Driver/Src/NOS_WS2812B_Strip.c **** void NOS_WS2812B_Strip_Effects_UpdateEffect(WS2812B_Strip* strip,Effect_Struct effect,uint8_t pos)
 168:Core/Src/NOS_LIB_Driver/Src/NOS_WS2812B_Strip.c **** {
 169:Core/Src/NOS_LIB_Driver/Src/NOS_WS2812B_Strip.c ****     if(pos < 10)
 170:Core/Src/NOS_LIB_Driver/Src/NOS_WS2812B_Strip.c ****     {
 171:Core/Src/NOS_LIB_Driver/Src/NOS_WS2812B_Strip.c ****         switch(effect.effectId)
 172:Core/Src/NOS_LIB_Driver/Src/NOS_WS2812B_Strip.c ****         {
 173:Core/Src/NOS_LIB_Driver/Src/NOS_WS2812B_Strip.c ****             case 0x20:
 174:Core/Src/NOS_LIB_Driver/Src/NOS_WS2812B_Strip.c ****                 NOS_WS2812B_Strip_Effect_Breathe_Init(&strip->effects[pos],effect.speed.data,effect
 175:Core/Src/NOS_LIB_Driver/Src/NOS_WS2812B_Strip.c ****                 break;
 176:Core/Src/NOS_LIB_Driver/Src/NOS_WS2812B_Strip.c ****             case 0x21:
 177:Core/Src/NOS_LIB_Driver/Src/NOS_WS2812B_Strip.c ****                 NOS_WS2812B_Strip_Effect_Rainbow_Init(&strip->effects[pos],effect.speed.data,effect
 178:Core/Src/NOS_LIB_Driver/Src/NOS_WS2812B_Strip.c ****                 break;
 179:Core/Src/NOS_LIB_Driver/Src/NOS_WS2812B_Strip.c ****         }
 180:Core/Src/NOS_LIB_Driver/Src/NOS_WS2812B_Strip.c ****     }
 181:Core/Src/NOS_LIB_Driver/Src/NOS_WS2812B_Strip.c **** }
 182:Core/Src/NOS_LIB_Driver/Src/NOS_WS2812B_Strip.c **** 
 183:Core/Src/NOS_LIB_Driver/Src/NOS_WS2812B_Strip.c **** void NOS_WS2812B_Strip_Effect_Rainbow_Init(Effect_Struct* effect,uint16_t speed,uint16_t step,uint1
 184:Core/Src/NOS_LIB_Driver/Src/NOS_WS2812B_Strip.c **** {
 799              		.loc 1 184 1 is_stmt 1 view -0
 800              		.cfi_startproc
 801              		@ args = 4, pretend = 0, frame = 0
 802              		@ frame_needed = 0, uses_anonymous_args = 0
 803              		.loc 1 184 1 is_stmt 0 view .LVU200
 804 0000 2DE9F041 		push	{r4, r5, r6, r7, r8, lr}
 805              		.cfi_def_cfa_offset 24
 806              		.cfi_offset 4, -24
 807              		.cfi_offset 5, -20
 808              		.cfi_offset 6, -16
 809              		.cfi_offset 7, -12
 810              		.cfi_offset 8, -8
 811              		.cfi_offset 14, -4
 812 0004 0446     		mov	r4, r0
 813 0006 0F46     		mov	r7, r1
 814 0008 1546     		mov	r5, r2
 815 000a 1E46     		mov	r6, r3
 816 000c BDF81880 		ldrh	r8, [sp, #24]
 185:Core/Src/NOS_LIB_Driver/Src/NOS_WS2812B_Strip.c ****         NOS_Math_SinValue_Init(&effect->value,minValue,maxValue,step);
 817              		.loc 1 185 9 is_stmt 1 view .LVU201
 818 0010 1346     		mov	r3, r2
 819              	.LVL69:
 820              		.loc 1 185 9 is_stmt 0 view .LVU202
 821 0012 4246     		mov	r2, r8
 822              	.LVL70:
 823              		.loc 1 185 9 view .LVU203
 824 0014 3146     		mov	r1, r6
ARM GAS  C:\Users\igorn\AppData\Local\Temp\ccb8XmqW.s 			page 19


 825              	.LVL71:
 826              		.loc 1 185 9 view .LVU204
 827 0016 FFF7FEFF 		bl	NOS_Math_SinValue_Init
 828              	.LVL72:
 186:Core/Src/NOS_LIB_Driver/Src/NOS_WS2812B_Strip.c ****         effect->minValue = minValue;
 829              		.loc 1 186 9 is_stmt 1 view .LVU205
 830              		.loc 1 186 26 is_stmt 0 view .LVU206
 831 001a 6683     		strh	r6, [r4, #26]	@ movhi
 187:Core/Src/NOS_LIB_Driver/Src/NOS_WS2812B_Strip.c ****         effect->maxValue = maxValue;
 832              		.loc 1 187 9 is_stmt 1 view .LVU207
 833              		.loc 1 187 26 is_stmt 0 view .LVU208
 834 001c A4F81C80 		strh	r8, [r4, #28]	@ movhi
 188:Core/Src/NOS_LIB_Driver/Src/NOS_WS2812B_Strip.c ****         effect->speed.data = speed;
 835              		.loc 1 188 9 is_stmt 1 view .LVU209
 836              		.loc 1 188 28 is_stmt 0 view .LVU210
 837 0020 A782     		strh	r7, [r4, #20]	@ movhi
 189:Core/Src/NOS_LIB_Driver/Src/NOS_WS2812B_Strip.c ****         effect->step.data = step;
 838              		.loc 1 189 9 is_stmt 1 view .LVU211
 839              		.loc 1 189 27 is_stmt 0 view .LVU212
 840 0022 E582     		strh	r5, [r4, #22]	@ movhi
 190:Core/Src/NOS_LIB_Driver/Src/NOS_WS2812B_Strip.c ****         effect->enabled = true;
 841              		.loc 1 190 9 is_stmt 1 view .LVU213
 842              		.loc 1 190 25 is_stmt 0 view .LVU214
 843 0024 0123     		movs	r3, #1
 844 0026 A377     		strb	r3, [r4, #30]
 191:Core/Src/NOS_LIB_Driver/Src/NOS_WS2812B_Strip.c ****         effect->effectId = 0x21;  
 845              		.loc 1 191 9 is_stmt 1 view .LVU215
 846              		.loc 1 191 26 is_stmt 0 view .LVU216
 847 0028 2123     		movs	r3, #33
 848 002a E377     		strb	r3, [r4, #31]
 192:Core/Src/NOS_LIB_Driver/Src/NOS_WS2812B_Strip.c **** }
 849              		.loc 1 192 1 view .LVU217
 850 002c BDE8F081 		pop	{r4, r5, r6, r7, r8, pc}
 851              		.loc 1 192 1 view .LVU218
 852              		.cfi_endproc
 853              	.LFE145:
 855              		.section	.text.NOS_WS2812B_Strip_Effects_AddEffect,"ax",%progbits
 856              		.align	1
 857              		.global	NOS_WS2812B_Strip_Effects_AddEffect
 858              		.syntax unified
 859              		.thumb
 860              		.thumb_func
 862              	NOS_WS2812B_Strip_Effects_AddEffect:
 863              	.LVL73:
 864              	.LFB141:
 113:Core/Src/NOS_LIB_Driver/Src/NOS_WS2812B_Strip.c ****     if(strip->effectsCounter < 10)
 865              		.loc 1 113 1 is_stmt 1 view -0
 866              		.cfi_startproc
 867              		@ args = 36, pretend = 16, frame = 0
 868              		@ frame_needed = 0, uses_anonymous_args = 0
 113:Core/Src/NOS_LIB_Driver/Src/NOS_WS2812B_Strip.c ****     if(strip->effectsCounter < 10)
 869              		.loc 1 113 1 is_stmt 0 view .LVU220
 870 0000 84B0     		sub	sp, sp, #16
 871              		.cfi_def_cfa_offset 16
 872 0002 10B5     		push	{r4, lr}
 873              		.cfi_def_cfa_offset 24
 874              		.cfi_offset 4, -24
ARM GAS  C:\Users\igorn\AppData\Local\Temp\ccb8XmqW.s 			page 20


 875              		.cfi_offset 14, -20
 876 0004 82B0     		sub	sp, sp, #8
 877              		.cfi_def_cfa_offset 32
 878 0006 0446     		mov	r4, r0
 879 0008 05A8     		add	r0, sp, #20
 880              	.LVL74:
 113:Core/Src/NOS_LIB_Driver/Src/NOS_WS2812B_Strip.c ****     if(strip->effectsCounter < 10)
 881              		.loc 1 113 1 view .LVU221
 882 000a 80E80E00 		stm	r0, {r1, r2, r3}
 114:Core/Src/NOS_LIB_Driver/Src/NOS_WS2812B_Strip.c ****     {
 883              		.loc 1 114 5 is_stmt 1 view .LVU222
 114:Core/Src/NOS_LIB_Driver/Src/NOS_WS2812B_Strip.c ****     {
 884              		.loc 1 114 13 is_stmt 0 view .LVU223
 885 000e 94F85001 		ldrb	r0, [r4, #336]	@ zero_extendqisi2
 114:Core/Src/NOS_LIB_Driver/Src/NOS_WS2812B_Strip.c ****     {
 886              		.loc 1 114 7 view .LVU224
 887 0012 0928     		cmp	r0, #9
 888 0014 0AD8     		bhi	.L46
 116:Core/Src/NOS_LIB_Driver/Src/NOS_WS2812B_Strip.c ****         {
 889              		.loc 1 116 9 is_stmt 1 view .LVU225
 116:Core/Src/NOS_LIB_Driver/Src/NOS_WS2812B_Strip.c ****         {
 890              		.loc 1 116 22 is_stmt 0 view .LVU226
 891 0016 9DF83330 		ldrb	r3, [sp, #51]	@ zero_extendqisi2
 116:Core/Src/NOS_LIB_Driver/Src/NOS_WS2812B_Strip.c ****         {
 892              		.loc 1 116 9 view .LVU227
 893 001a 202B     		cmp	r3, #32
 894 001c 0BD0     		beq	.L48
 895 001e 212B     		cmp	r3, #33
 896 0020 18D0     		beq	.L49
 897              	.L50:
 126:Core/Src/NOS_LIB_Driver/Src/NOS_WS2812B_Strip.c ****     }
 898              		.loc 1 126 9 is_stmt 1 view .LVU228
 126:Core/Src/NOS_LIB_Driver/Src/NOS_WS2812B_Strip.c ****     }
 899              		.loc 1 126 14 is_stmt 0 view .LVU229
 900 0022 94F85031 		ldrb	r3, [r4, #336]	@ zero_extendqisi2
 126:Core/Src/NOS_LIB_Driver/Src/NOS_WS2812B_Strip.c ****     }
 901              		.loc 1 126 30 view .LVU230
 902 0026 0133     		adds	r3, r3, #1
 903 0028 84F85031 		strb	r3, [r4, #336]
 904              	.L46:
 128:Core/Src/NOS_LIB_Driver/Src/NOS_WS2812B_Strip.c **** 
 905              		.loc 1 128 1 view .LVU231
 906 002c 02B0     		add	sp, sp, #8
 907              		.cfi_remember_state
 908              		.cfi_def_cfa_offset 24
 909              		@ sp needed
 910 002e BDE81040 		pop	{r4, lr}
 911              		.cfi_restore 14
 912              		.cfi_restore 4
 913              		.cfi_def_cfa_offset 16
 914              	.LVL75:
 128:Core/Src/NOS_LIB_Driver/Src/NOS_WS2812B_Strip.c **** 
 915              		.loc 1 128 1 view .LVU232
 916 0032 04B0     		add	sp, sp, #16
 917              		.cfi_def_cfa_offset 0
 918 0034 7047     		bx	lr
 919              	.LVL76:
ARM GAS  C:\Users\igorn\AppData\Local\Temp\ccb8XmqW.s 			page 21


 920              	.L48:
 921              		.cfi_restore_state
 119:Core/Src/NOS_LIB_Driver/Src/NOS_WS2812B_Strip.c ****                 break;
 922              		.loc 1 119 17 is_stmt 1 view .LVU233
 923 0036 4001     		lsls	r0, r0, #5
 924 0038 1030     		adds	r0, r0, #16
 925 003a BDF83030 		ldrh	r3, [sp, #48]
 926 003e 0093     		str	r3, [sp]
 927 0040 BDF82E30 		ldrh	r3, [sp, #46]
 928 0044 BDF82A20 		ldrh	r2, [sp, #42]
 929 0048 BDF82810 		ldrh	r1, [sp, #40]
 930 004c 2044     		add	r0, r0, r4
 931 004e FFF7FEFF 		bl	NOS_WS2812B_Strip_Effect_Breathe_Init
 932              	.LVL77:
 120:Core/Src/NOS_LIB_Driver/Src/NOS_WS2812B_Strip.c ****             case 0x21:
 933              		.loc 1 120 17 view .LVU234
 934 0052 E6E7     		b	.L50
 935              	.L49:
 122:Core/Src/NOS_LIB_Driver/Src/NOS_WS2812B_Strip.c ****                 break;
 936              		.loc 1 122 17 view .LVU235
 937 0054 4001     		lsls	r0, r0, #5
 938 0056 1030     		adds	r0, r0, #16
 939 0058 BDF83030 		ldrh	r3, [sp, #48]
 940 005c 0093     		str	r3, [sp]
 941 005e BDF82E30 		ldrh	r3, [sp, #46]
 942 0062 BDF82A20 		ldrh	r2, [sp, #42]
 943 0066 BDF82810 		ldrh	r1, [sp, #40]
 944 006a 2044     		add	r0, r0, r4
 945 006c FFF7FEFF 		bl	NOS_WS2812B_Strip_Effect_Rainbow_Init
 946              	.LVL78:
 123:Core/Src/NOS_LIB_Driver/Src/NOS_WS2812B_Strip.c ****         }
 947              		.loc 1 123 17 view .LVU236
 948 0070 D7E7     		b	.L50
 949              		.cfi_endproc
 950              	.LFE141:
 952              		.section	.text.NOS_WS2812B_Strip_Effects_UpdateEffect,"ax",%progbits
 953              		.align	1
 954              		.global	NOS_WS2812B_Strip_Effects_UpdateEffect
 955              		.syntax unified
 956              		.thumb
 957              		.thumb_func
 959              	NOS_WS2812B_Strip_Effects_UpdateEffect:
 960              	.LVL79:
 961              	.LFB144:
 168:Core/Src/NOS_LIB_Driver/Src/NOS_WS2812B_Strip.c ****     if(pos < 10)
 962              		.loc 1 168 1 view -0
 963              		.cfi_startproc
 964              		@ args = 40, pretend = 16, frame = 0
 965              		@ frame_needed = 0, uses_anonymous_args = 0
 168:Core/Src/NOS_LIB_Driver/Src/NOS_WS2812B_Strip.c ****     if(pos < 10)
 966              		.loc 1 168 1 is_stmt 0 view .LVU238
 967 0000 84B0     		sub	sp, sp, #16
 968              		.cfi_def_cfa_offset 16
 969 0002 00B5     		push	{lr}
 970              		.cfi_def_cfa_offset 20
 971              		.cfi_offset 14, -20
 972 0004 83B0     		sub	sp, sp, #12
ARM GAS  C:\Users\igorn\AppData\Local\Temp\ccb8XmqW.s 			page 22


 973              		.cfi_def_cfa_offset 32
 974 0006 0DF1140C 		add	ip, sp, #20
 975 000a 8CE80E00 		stm	ip, {r1, r2, r3}
 976 000e 9DF83430 		ldrb	r3, [sp, #52]	@ zero_extendqisi2
 169:Core/Src/NOS_LIB_Driver/Src/NOS_WS2812B_Strip.c ****     {
 977              		.loc 1 169 5 is_stmt 1 view .LVU239
 169:Core/Src/NOS_LIB_Driver/Src/NOS_WS2812B_Strip.c ****     {
 978              		.loc 1 169 7 is_stmt 0 view .LVU240
 979 0012 092B     		cmp	r3, #9
 980 0014 05D8     		bhi	.L52
 171:Core/Src/NOS_LIB_Driver/Src/NOS_WS2812B_Strip.c ****         {
 981              		.loc 1 171 9 is_stmt 1 view .LVU241
 171:Core/Src/NOS_LIB_Driver/Src/NOS_WS2812B_Strip.c ****         {
 982              		.loc 1 171 22 is_stmt 0 view .LVU242
 983 0016 9DF83320 		ldrb	r2, [sp, #51]	@ zero_extendqisi2
 171:Core/Src/NOS_LIB_Driver/Src/NOS_WS2812B_Strip.c ****         {
 984              		.loc 1 171 9 view .LVU243
 985 001a 202A     		cmp	r2, #32
 986 001c 06D0     		beq	.L54
 987 001e 212A     		cmp	r2, #33
 988 0020 14D0     		beq	.L55
 989              	.LVL80:
 990              	.L52:
 181:Core/Src/NOS_LIB_Driver/Src/NOS_WS2812B_Strip.c **** 
 991              		.loc 1 181 1 view .LVU244
 992 0022 03B0     		add	sp, sp, #12
 993              		.cfi_remember_state
 994              		.cfi_def_cfa_offset 20
 995              		@ sp needed
 996 0024 5DF804EB 		ldr	lr, [sp], #4
 997              		.cfi_restore 14
 998              		.cfi_def_cfa_offset 16
 999 0028 04B0     		add	sp, sp, #16
 1000              		.cfi_def_cfa_offset 0
 1001 002a 7047     		bx	lr
 1002              	.LVL81:
 1003              	.L54:
 1004              		.cfi_restore_state
 174:Core/Src/NOS_LIB_Driver/Src/NOS_WS2812B_Strip.c ****                 break;
 1005              		.loc 1 174 17 is_stmt 1 view .LVU245
 1006 002c 5B01     		lsls	r3, r3, #5
 1007 002e 03F1100C 		add	ip, r3, #16
 1008 0032 BDF83030 		ldrh	r3, [sp, #48]
 1009 0036 0093     		str	r3, [sp]
 1010 0038 BDF82E30 		ldrh	r3, [sp, #46]
 1011 003c BDF82A20 		ldrh	r2, [sp, #42]
 1012 0040 BDF82810 		ldrh	r1, [sp, #40]
 1013 0044 6044     		add	r0, r0, ip
 1014              	.LVL82:
 174:Core/Src/NOS_LIB_Driver/Src/NOS_WS2812B_Strip.c ****                 break;
 1015              		.loc 1 174 17 is_stmt 0 view .LVU246
 1016 0046 FFF7FEFF 		bl	NOS_WS2812B_Strip_Effect_Breathe_Init
 1017              	.LVL83:
 175:Core/Src/NOS_LIB_Driver/Src/NOS_WS2812B_Strip.c ****             case 0x21:
 1018              		.loc 1 175 17 is_stmt 1 view .LVU247
 1019 004a EAE7     		b	.L52
 1020              	.LVL84:
ARM GAS  C:\Users\igorn\AppData\Local\Temp\ccb8XmqW.s 			page 23


 1021              	.L55:
 177:Core/Src/NOS_LIB_Driver/Src/NOS_WS2812B_Strip.c ****                 break;
 1022              		.loc 1 177 17 view .LVU248
 1023 004c 5B01     		lsls	r3, r3, #5
 1024 004e 03F1100C 		add	ip, r3, #16
 1025 0052 BDF83030 		ldrh	r3, [sp, #48]
 1026 0056 0093     		str	r3, [sp]
 1027 0058 BDF82E30 		ldrh	r3, [sp, #46]
 1028 005c BDF82A20 		ldrh	r2, [sp, #42]
 1029 0060 BDF82810 		ldrh	r1, [sp, #40]
 1030 0064 6044     		add	r0, r0, ip
 1031              	.LVL85:
 177:Core/Src/NOS_LIB_Driver/Src/NOS_WS2812B_Strip.c ****                 break;
 1032              		.loc 1 177 17 is_stmt 0 view .LVU249
 1033 0066 FFF7FEFF 		bl	NOS_WS2812B_Strip_Effect_Rainbow_Init
 1034              	.LVL86:
 178:Core/Src/NOS_LIB_Driver/Src/NOS_WS2812B_Strip.c ****         }
 1035              		.loc 1 178 17 is_stmt 1 view .LVU250
 181:Core/Src/NOS_LIB_Driver/Src/NOS_WS2812B_Strip.c **** 
 1036              		.loc 1 181 1 is_stmt 0 view .LVU251
 1037 006a DAE7     		b	.L52
 1038              		.cfi_endproc
 1039              	.LFE144:
 1041              		.section	.text.NOS_WS2812B_Strip_Effect_Rainbow_Handler,"ax",%progbits
 1042              		.align	1
 1043              		.global	NOS_WS2812B_Strip_Effect_Rainbow_Handler
 1044              		.syntax unified
 1045              		.thumb
 1046              		.thumb_func
 1048              	NOS_WS2812B_Strip_Effect_Rainbow_Handler:
 1049              	.LVL87:
 1050              	.LFB146:
 193:Core/Src/NOS_LIB_Driver/Src/NOS_WS2812B_Strip.c **** 
 194:Core/Src/NOS_LIB_Driver/Src/NOS_WS2812B_Strip.c **** void NOS_WS2812B_Strip_Effect_Rainbow_Handler(WS2812B_Strip* strip,Effect_Struct* effect)
 195:Core/Src/NOS_LIB_Driver/Src/NOS_WS2812B_Strip.c **** {
 1051              		.loc 1 195 1 is_stmt 1 view -0
 1052              		.cfi_startproc
 1053              		@ args = 0, pretend = 0, frame = 8
 1054              		@ frame_needed = 0, uses_anonymous_args = 0
 196:Core/Src/NOS_LIB_Driver/Src/NOS_WS2812B_Strip.c ****     if(strip != NULL)
 1055              		.loc 1 196 5 view .LVU253
 1056              		.loc 1 196 7 is_stmt 0 view .LVU254
 1057 0000 0028     		cmp	r0, #0
 1058 0002 00F04F81 		beq	.L76
 195:Core/Src/NOS_LIB_Driver/Src/NOS_WS2812B_Strip.c ****     if(strip != NULL)
 1059              		.loc 1 195 1 view .LVU255
 1060 0006 2DE9F041 		push	{r4, r5, r6, r7, r8, lr}
 1061              		.cfi_def_cfa_offset 24
 1062              		.cfi_offset 4, -24
 1063              		.cfi_offset 5, -20
 1064              		.cfi_offset 6, -16
 1065              		.cfi_offset 7, -12
 1066              		.cfi_offset 8, -8
 1067              		.cfi_offset 14, -4
 1068 000a 82B0     		sub	sp, sp, #8
 1069              		.cfi_def_cfa_offset 32
 1070 000c 0C46     		mov	r4, r1
ARM GAS  C:\Users\igorn\AppData\Local\Temp\ccb8XmqW.s 			page 24


 1071 000e 0546     		mov	r5, r0
 197:Core/Src/NOS_LIB_Driver/Src/NOS_WS2812B_Strip.c ****     {
 198:Core/Src/NOS_LIB_Driver/Src/NOS_WS2812B_Strip.c ****         if(effect != NULL)
 1072              		.loc 1 198 9 is_stmt 1 view .LVU256
 1073              		.loc 1 198 11 is_stmt 0 view .LVU257
 1074 0010 41B1     		cbz	r1, .L57
 199:Core/Src/NOS_LIB_Driver/Src/NOS_WS2812B_Strip.c ****         {
 200:Core/Src/NOS_LIB_Driver/Src/NOS_WS2812B_Strip.c ****             if(effect->enabled)
 1075              		.loc 1 200 13 is_stmt 1 view .LVU258
 1076              		.loc 1 200 22 is_stmt 0 view .LVU259
 1077 0012 8B7F     		ldrb	r3, [r1, #30]	@ zero_extendqisi2
 1078              		.loc 1 200 15 view .LVU260
 1079 0014 33B1     		cbz	r3, .L57
 201:Core/Src/NOS_LIB_Driver/Src/NOS_WS2812B_Strip.c ****             {
 202:Core/Src/NOS_LIB_Driver/Src/NOS_WS2812B_Strip.c ****                 if(effect->timer > effect->speed.data)
 1080              		.loc 1 202 17 is_stmt 1 view .LVU261
 1081              		.loc 1 202 26 is_stmt 0 view .LVU262
 1082 0016 0A8B     		ldrh	r2, [r1, #24]
 1083              		.loc 1 202 49 view .LVU263
 1084 0018 8B8A     		ldrh	r3, [r1, #20]
 1085              		.loc 1 202 19 view .LVU264
 1086 001a 9A42     		cmp	r2, r3
 1087 001c 05D8     		bhi	.L79
 1088              	.LVL88:
 1089              	.L59:
 203:Core/Src/NOS_LIB_Driver/Src/NOS_WS2812B_Strip.c ****                 {
 204:Core/Src/NOS_LIB_Driver/Src/NOS_WS2812B_Strip.c ****                     NOS_Math_SinValue_Handler(&effect->value);
 205:Core/Src/NOS_LIB_Driver/Src/NOS_WS2812B_Strip.c **** 
 206:Core/Src/NOS_LIB_Driver/Src/NOS_WS2812B_Strip.c ****                     uint16_t number = NOS_Math_GetSinValue(&effect->value);
 207:Core/Src/NOS_LIB_Driver/Src/NOS_WS2812B_Strip.c ****                     uint8_t iteration = number / 0x7F;
 208:Core/Src/NOS_LIB_Driver/Src/NOS_WS2812B_Strip.c **** 
 209:Core/Src/NOS_LIB_Driver/Src/NOS_WS2812B_Strip.c ****                     PixelColor curr = { 0,0,0 };
 210:Core/Src/NOS_LIB_Driver/Src/NOS_WS2812B_Strip.c **** 
 211:Core/Src/NOS_LIB_Driver/Src/NOS_WS2812B_Strip.c ****                     switch (iteration)
 212:Core/Src/NOS_LIB_Driver/Src/NOS_WS2812B_Strip.c ****                     {
 213:Core/Src/NOS_LIB_Driver/Src/NOS_WS2812B_Strip.c ****                         case 0:
 214:Core/Src/NOS_LIB_Driver/Src/NOS_WS2812B_Strip.c ****                         curr = NOS_GetBaseColor((NOS_BaseColors)iteration);
 215:Core/Src/NOS_LIB_Driver/Src/NOS_WS2812B_Strip.c ****                         curr.G = number;
 216:Core/Src/NOS_LIB_Driver/Src/NOS_WS2812B_Strip.c ****                         break;
 217:Core/Src/NOS_LIB_Driver/Src/NOS_WS2812B_Strip.c **** 
 218:Core/Src/NOS_LIB_Driver/Src/NOS_WS2812B_Strip.c ****                         case 1:
 219:Core/Src/NOS_LIB_Driver/Src/NOS_WS2812B_Strip.c ****                         curr = NOS_GetBaseColor((NOS_BaseColors)iteration);
 220:Core/Src/NOS_LIB_Driver/Src/NOS_WS2812B_Strip.c ****                         number = number - 0x7F * iteration;
 221:Core/Src/NOS_LIB_Driver/Src/NOS_WS2812B_Strip.c ****                         curr.G = 0x7F + number;
 222:Core/Src/NOS_LIB_Driver/Src/NOS_WS2812B_Strip.c ****                         break;
 223:Core/Src/NOS_LIB_Driver/Src/NOS_WS2812B_Strip.c **** 
 224:Core/Src/NOS_LIB_Driver/Src/NOS_WS2812B_Strip.c ****                         case 2:
 225:Core/Src/NOS_LIB_Driver/Src/NOS_WS2812B_Strip.c ****                         curr = NOS_GetBaseColor((NOS_BaseColors)iteration);
 226:Core/Src/NOS_LIB_Driver/Src/NOS_WS2812B_Strip.c ****                         number = number - 0x7F * iteration;
 227:Core/Src/NOS_LIB_Driver/Src/NOS_WS2812B_Strip.c ****                         curr.B = 0xFF - number;
 228:Core/Src/NOS_LIB_Driver/Src/NOS_WS2812B_Strip.c ****                         break;
 229:Core/Src/NOS_LIB_Driver/Src/NOS_WS2812B_Strip.c **** 
 230:Core/Src/NOS_LIB_Driver/Src/NOS_WS2812B_Strip.c ****                         case 3:
 231:Core/Src/NOS_LIB_Driver/Src/NOS_WS2812B_Strip.c ****                         curr = NOS_GetBaseColor((NOS_BaseColors)iteration);
 232:Core/Src/NOS_LIB_Driver/Src/NOS_WS2812B_Strip.c ****                         number = number - 0x7F * iteration;
 233:Core/Src/NOS_LIB_Driver/Src/NOS_WS2812B_Strip.c ****                         curr.B = 0x7F - number;
 234:Core/Src/NOS_LIB_Driver/Src/NOS_WS2812B_Strip.c ****                         break;
ARM GAS  C:\Users\igorn\AppData\Local\Temp\ccb8XmqW.s 			page 25


 235:Core/Src/NOS_LIB_Driver/Src/NOS_WS2812B_Strip.c **** 
 236:Core/Src/NOS_LIB_Driver/Src/NOS_WS2812B_Strip.c ****                         case 4:
 237:Core/Src/NOS_LIB_Driver/Src/NOS_WS2812B_Strip.c ****                         curr = NOS_GetBaseColor((NOS_BaseColors)iteration);
 238:Core/Src/NOS_LIB_Driver/Src/NOS_WS2812B_Strip.c ****                         number = number - 0x7F * iteration;
 239:Core/Src/NOS_LIB_Driver/Src/NOS_WS2812B_Strip.c ****                         curr.R = number;
 240:Core/Src/NOS_LIB_Driver/Src/NOS_WS2812B_Strip.c ****                         break;
 241:Core/Src/NOS_LIB_Driver/Src/NOS_WS2812B_Strip.c **** 
 242:Core/Src/NOS_LIB_Driver/Src/NOS_WS2812B_Strip.c ****                         case 5:
 243:Core/Src/NOS_LIB_Driver/Src/NOS_WS2812B_Strip.c ****                         curr = NOS_GetBaseColor((NOS_BaseColors)iteration);
 244:Core/Src/NOS_LIB_Driver/Src/NOS_WS2812B_Strip.c ****                         number = number - 0x7F * iteration;
 245:Core/Src/NOS_LIB_Driver/Src/NOS_WS2812B_Strip.c ****                         curr.R = 0x7F + number;
 246:Core/Src/NOS_LIB_Driver/Src/NOS_WS2812B_Strip.c ****                         break;
 247:Core/Src/NOS_LIB_Driver/Src/NOS_WS2812B_Strip.c **** 
 248:Core/Src/NOS_LIB_Driver/Src/NOS_WS2812B_Strip.c ****                         case 6:
 249:Core/Src/NOS_LIB_Driver/Src/NOS_WS2812B_Strip.c ****                         curr = NOS_GetBaseColor((NOS_BaseColors)iteration);
 250:Core/Src/NOS_LIB_Driver/Src/NOS_WS2812B_Strip.c ****                         number = number - 0x7F * iteration;
 251:Core/Src/NOS_LIB_Driver/Src/NOS_WS2812B_Strip.c ****                         curr.G = 0xFF - number;
 252:Core/Src/NOS_LIB_Driver/Src/NOS_WS2812B_Strip.c ****                         break;
 253:Core/Src/NOS_LIB_Driver/Src/NOS_WS2812B_Strip.c **** 
 254:Core/Src/NOS_LIB_Driver/Src/NOS_WS2812B_Strip.c ****                         case 7:
 255:Core/Src/NOS_LIB_Driver/Src/NOS_WS2812B_Strip.c ****                         curr = NOS_GetBaseColor((NOS_BaseColors)iteration);
 256:Core/Src/NOS_LIB_Driver/Src/NOS_WS2812B_Strip.c ****                         number = number - 0x7F * iteration;
 257:Core/Src/NOS_LIB_Driver/Src/NOS_WS2812B_Strip.c ****                         curr.G = 0x7F - number;
 258:Core/Src/NOS_LIB_Driver/Src/NOS_WS2812B_Strip.c ****                         break;
 259:Core/Src/NOS_LIB_Driver/Src/NOS_WS2812B_Strip.c **** 
 260:Core/Src/NOS_LIB_Driver/Src/NOS_WS2812B_Strip.c ****                         case 8:
 261:Core/Src/NOS_LIB_Driver/Src/NOS_WS2812B_Strip.c ****                         curr = NOS_GetBaseColor((NOS_BaseColors)iteration);
 262:Core/Src/NOS_LIB_Driver/Src/NOS_WS2812B_Strip.c ****                         number = number - 0x7F * iteration;
 263:Core/Src/NOS_LIB_Driver/Src/NOS_WS2812B_Strip.c ****                         curr.B = number;
 264:Core/Src/NOS_LIB_Driver/Src/NOS_WS2812B_Strip.c ****                         break;
 265:Core/Src/NOS_LIB_Driver/Src/NOS_WS2812B_Strip.c **** 
 266:Core/Src/NOS_LIB_Driver/Src/NOS_WS2812B_Strip.c ****                         case 9:
 267:Core/Src/NOS_LIB_Driver/Src/NOS_WS2812B_Strip.c ****                         curr = NOS_GetBaseColor((NOS_BaseColors)iteration);
 268:Core/Src/NOS_LIB_Driver/Src/NOS_WS2812B_Strip.c ****                         number = number - 0x7F * iteration;
 269:Core/Src/NOS_LIB_Driver/Src/NOS_WS2812B_Strip.c ****                         curr.B = 0x7F + number;
 270:Core/Src/NOS_LIB_Driver/Src/NOS_WS2812B_Strip.c ****                         break;
 271:Core/Src/NOS_LIB_Driver/Src/NOS_WS2812B_Strip.c **** 
 272:Core/Src/NOS_LIB_Driver/Src/NOS_WS2812B_Strip.c ****                         case 10:
 273:Core/Src/NOS_LIB_Driver/Src/NOS_WS2812B_Strip.c ****                         curr = NOS_GetBaseColor((NOS_BaseColors)iteration);
 274:Core/Src/NOS_LIB_Driver/Src/NOS_WS2812B_Strip.c ****                         number = number - 0x7F * iteration;
 275:Core/Src/NOS_LIB_Driver/Src/NOS_WS2812B_Strip.c ****                         curr.R = 0xFF - number;
 276:Core/Src/NOS_LIB_Driver/Src/NOS_WS2812B_Strip.c ****                         break;
 277:Core/Src/NOS_LIB_Driver/Src/NOS_WS2812B_Strip.c **** 
 278:Core/Src/NOS_LIB_Driver/Src/NOS_WS2812B_Strip.c ****                         case 11:
 279:Core/Src/NOS_LIB_Driver/Src/NOS_WS2812B_Strip.c ****                         curr = NOS_GetBaseColor((NOS_BaseColors)iteration);
 280:Core/Src/NOS_LIB_Driver/Src/NOS_WS2812B_Strip.c ****                         number = number - 0x7F * iteration;
 281:Core/Src/NOS_LIB_Driver/Src/NOS_WS2812B_Strip.c ****                         curr.R = 0x7F - number;
 282:Core/Src/NOS_LIB_Driver/Src/NOS_WS2812B_Strip.c ****                         break;
 283:Core/Src/NOS_LIB_Driver/Src/NOS_WS2812B_Strip.c **** 
 284:Core/Src/NOS_LIB_Driver/Src/NOS_WS2812B_Strip.c ****                         default:
 285:Core/Src/NOS_LIB_Driver/Src/NOS_WS2812B_Strip.c ****                         break;
 286:Core/Src/NOS_LIB_Driver/Src/NOS_WS2812B_Strip.c ****                     }
 287:Core/Src/NOS_LIB_Driver/Src/NOS_WS2812B_Strip.c ****                     
 288:Core/Src/NOS_LIB_Driver/Src/NOS_WS2812B_Strip.c **** 
 289:Core/Src/NOS_LIB_Driver/Src/NOS_WS2812B_Strip.c ****                     NOS_WS2812B_Strip_ColorFill(strip,curr);
 290:Core/Src/NOS_LIB_Driver/Src/NOS_WS2812B_Strip.c ****                     NOS_WS2812B_Strip_Update(strip);
 291:Core/Src/NOS_LIB_Driver/Src/NOS_WS2812B_Strip.c ****                     effect->timer = 0;
ARM GAS  C:\Users\igorn\AppData\Local\Temp\ccb8XmqW.s 			page 26


 292:Core/Src/NOS_LIB_Driver/Src/NOS_WS2812B_Strip.c ****                 }
 293:Core/Src/NOS_LIB_Driver/Src/NOS_WS2812B_Strip.c ****                 effect->timer++;
 1090              		.loc 1 293 17 is_stmt 1 view .LVU265
 1091              		.loc 1 293 23 is_stmt 0 view .LVU266
 1092 001e 238B     		ldrh	r3, [r4, #24]
 1093              		.loc 1 293 30 view .LVU267
 1094 0020 0133     		adds	r3, r3, #1
 1095 0022 2383     		strh	r3, [r4, #24]	@ movhi
 1096              	.L57:
 294:Core/Src/NOS_LIB_Driver/Src/NOS_WS2812B_Strip.c ****             }
 295:Core/Src/NOS_LIB_Driver/Src/NOS_WS2812B_Strip.c ****         }
 296:Core/Src/NOS_LIB_Driver/Src/NOS_WS2812B_Strip.c ****     }
 297:Core/Src/NOS_LIB_Driver/Src/NOS_WS2812B_Strip.c **** }
 1097              		.loc 1 297 1 view .LVU268
 1098 0024 02B0     		add	sp, sp, #8
 1099              		.cfi_remember_state
 1100              		.cfi_def_cfa_offset 24
 1101              		@ sp needed
 1102 0026 BDE8F081 		pop	{r4, r5, r6, r7, r8, pc}
 1103              	.LVL89:
 1104              	.L79:
 1105              		.cfi_restore_state
 1106              	.LBB6:
 204:Core/Src/NOS_LIB_Driver/Src/NOS_WS2812B_Strip.c **** 
 1107              		.loc 1 204 21 is_stmt 1 view .LVU269
 1108 002a 0846     		mov	r0, r1
 1109              	.LVL90:
 204:Core/Src/NOS_LIB_Driver/Src/NOS_WS2812B_Strip.c **** 
 1110              		.loc 1 204 21 is_stmt 0 view .LVU270
 1111 002c FFF7FEFF 		bl	NOS_Math_SinValue_Handler
 1112              	.LVL91:
 206:Core/Src/NOS_LIB_Driver/Src/NOS_WS2812B_Strip.c ****                     uint8_t iteration = number / 0x7F;
 1113              		.loc 1 206 21 is_stmt 1 view .LVU271
 206:Core/Src/NOS_LIB_Driver/Src/NOS_WS2812B_Strip.c ****                     uint8_t iteration = number / 0x7F;
 1114              		.loc 1 206 39 is_stmt 0 view .LVU272
 1115 0030 2046     		mov	r0, r4
 1116 0032 FFF7FEFF 		bl	NOS_Math_GetSinValue
 1117              	.LVL92:
 1118 0036 0646     		mov	r6, r0
 206:Core/Src/NOS_LIB_Driver/Src/NOS_WS2812B_Strip.c ****                     uint8_t iteration = number / 0x7F;
 1119              		.loc 1 206 30 view .LVU273
 1120 0038 87B2     		uxth	r7, r0
 1121              	.LVL93:
 207:Core/Src/NOS_LIB_Driver/Src/NOS_WS2812B_Strip.c **** 
 1122              		.loc 1 207 21 is_stmt 1 view .LVU274
 207:Core/Src/NOS_LIB_Driver/Src/NOS_WS2812B_Strip.c **** 
 1123              		.loc 1 207 29 is_stmt 0 view .LVU275
 1124 003a 9B4B     		ldr	r3, .L80
 1125 003c A3FB0723 		umull	r2, r3, r3, r7
 1126 0040 FA1A     		subs	r2, r7, r3
 1127 0042 03EB5203 		add	r3, r3, r2, lsr #1
 1128 0046 C3F38F18 		ubfx	r8, r3, #6, #16
 1129 004a C3F38710 		ubfx	r0, r3, #6, #8
 1130              	.LVL94:
 209:Core/Src/NOS_LIB_Driver/Src/NOS_WS2812B_Strip.c **** 
 1131              		.loc 1 209 21 is_stmt 1 view .LVU276
 209:Core/Src/NOS_LIB_Driver/Src/NOS_WS2812B_Strip.c **** 
ARM GAS  C:\Users\igorn\AppData\Local\Temp\ccb8XmqW.s 			page 27


 1132              		.loc 1 209 32 is_stmt 0 view .LVU277
 1133 004e 0023     		movs	r3, #0
 1134 0050 8DF80430 		strb	r3, [sp, #4]
 1135 0054 8DF80530 		strb	r3, [sp, #5]
 1136 0058 8DF80630 		strb	r3, [sp, #6]
 211:Core/Src/NOS_LIB_Driver/Src/NOS_WS2812B_Strip.c ****                     {
 1137              		.loc 1 211 21 is_stmt 1 view .LVU278
 1138 005c 0B28     		cmp	r0, #11
 1139 005e 1BD8     		bhi	.L60
 1140 0060 DFE810F0 		tbh	[pc, r0, lsl #1]
 1141              	.L62:
 1142 0064 0C00     		.2byte	(.L73-.L62)/2
 1143 0066 2400     		.2byte	(.L72-.L62)/2
 1144 0068 3B00     		.2byte	(.L71-.L62)/2
 1145 006a 5200     		.2byte	(.L70-.L62)/2
 1146 006c 6A00     		.2byte	(.L69-.L62)/2
 1147 006e 7F00     		.2byte	(.L68-.L62)/2
 1148 0070 9600     		.2byte	(.L67-.L62)/2
 1149 0072 AD00     		.2byte	(.L66-.L62)/2
 1150 0074 C500     		.2byte	(.L65-.L62)/2
 1151 0076 DA00     		.2byte	(.L64-.L62)/2
 1152 0078 F100     		.2byte	(.L63-.L62)/2
 1153 007a 0801     		.2byte	(.L61-.L62)/2
 1154              		.p2align 1
 1155              	.L73:
 214:Core/Src/NOS_LIB_Driver/Src/NOS_WS2812B_Strip.c ****                         curr.G = number;
 1156              		.loc 1 214 25 view .LVU279
 214:Core/Src/NOS_LIB_Driver/Src/NOS_WS2812B_Strip.c ****                         curr.G = number;
 1157              		.loc 1 214 32 is_stmt 0 view .LVU280
 1158 007c FFF7FEFF 		bl	NOS_GetBaseColor
 1159              	.LVL95:
 214:Core/Src/NOS_LIB_Driver/Src/NOS_WS2812B_Strip.c ****                         curr.G = number;
 1160              		.loc 1 214 32 view .LVU281
 1161 0080 8DF80400 		strb	r0, [sp, #4]
 1162 0084 C0F30723 		ubfx	r3, r0, #8, #8
 1163 0088 8DF80530 		strb	r3, [sp, #5]
 1164 008c C0F30740 		ubfx	r0, r0, #16, #8
 1165 0090 8DF80600 		strb	r0, [sp, #6]
 215:Core/Src/NOS_LIB_Driver/Src/NOS_WS2812B_Strip.c ****                         break;
 1166              		.loc 1 215 25 is_stmt 1 view .LVU282
 215:Core/Src/NOS_LIB_Driver/Src/NOS_WS2812B_Strip.c ****                         break;
 1167              		.loc 1 215 32 is_stmt 0 view .LVU283
 1168 0094 8DF80560 		strb	r6, [sp, #5]
 216:Core/Src/NOS_LIB_Driver/Src/NOS_WS2812B_Strip.c **** 
 1169              		.loc 1 216 25 is_stmt 1 view .LVU284
 1170              	.LVL96:
 1171              	.L60:
 289:Core/Src/NOS_LIB_Driver/Src/NOS_WS2812B_Strip.c ****                     NOS_WS2812B_Strip_Update(strip);
 1172              		.loc 1 289 21 view .LVU285
 1173 0098 0199     		ldr	r1, [sp, #4]
 1174 009a 2846     		mov	r0, r5
 1175 009c FFF7FEFF 		bl	NOS_WS2812B_Strip_ColorFill
 1176              	.LVL97:
 290:Core/Src/NOS_LIB_Driver/Src/NOS_WS2812B_Strip.c ****                     effect->timer = 0;
 1177              		.loc 1 290 21 view .LVU286
 1178 00a0 2846     		mov	r0, r5
 1179 00a2 FFF7FEFF 		bl	NOS_WS2812B_Strip_Update
ARM GAS  C:\Users\igorn\AppData\Local\Temp\ccb8XmqW.s 			page 28


 1180              	.LVL98:
 291:Core/Src/NOS_LIB_Driver/Src/NOS_WS2812B_Strip.c ****                 }
 1181              		.loc 1 291 21 view .LVU287
 291:Core/Src/NOS_LIB_Driver/Src/NOS_WS2812B_Strip.c ****                 }
 1182              		.loc 1 291 35 is_stmt 0 view .LVU288
 1183 00a6 0023     		movs	r3, #0
 1184 00a8 2383     		strh	r3, [r4, #24]	@ movhi
 1185 00aa B8E7     		b	.L59
 1186              	.LVL99:
 1187              	.L72:
 219:Core/Src/NOS_LIB_Driver/Src/NOS_WS2812B_Strip.c ****                         number = number - 0x7F * iteration;
 1188              		.loc 1 219 25 is_stmt 1 view .LVU289
 219:Core/Src/NOS_LIB_Driver/Src/NOS_WS2812B_Strip.c ****                         number = number - 0x7F * iteration;
 1189              		.loc 1 219 32 is_stmt 0 view .LVU290
 1190 00ac FFF7FEFF 		bl	NOS_GetBaseColor
 1191              	.LVL100:
 219:Core/Src/NOS_LIB_Driver/Src/NOS_WS2812B_Strip.c ****                         number = number - 0x7F * iteration;
 1192              		.loc 1 219 32 view .LVU291
 1193 00b0 8DF80400 		strb	r0, [sp, #4]
 1194 00b4 C0F30723 		ubfx	r3, r0, #8, #8
 1195 00b8 8DF80530 		strb	r3, [sp, #5]
 1196 00bc C0F30740 		ubfx	r0, r0, #16, #8
 1197 00c0 8DF80600 		strb	r0, [sp, #6]
 220:Core/Src/NOS_LIB_Driver/Src/NOS_WS2812B_Strip.c ****                         curr.G = 0x7F + number;
 1198              		.loc 1 220 25 is_stmt 1 view .LVU292
 220:Core/Src/NOS_LIB_Driver/Src/NOS_WS2812B_Strip.c ****                         curr.G = 0x7F + number;
 1199              		.loc 1 220 41 is_stmt 0 view .LVU293
 1200 00c4 5FFA88F8 		uxtb	r8, r8
 1201 00c8 A8EBC818 		sub	r8, r8, r8, lsl #7
 220:Core/Src/NOS_LIB_Driver/Src/NOS_WS2812B_Strip.c ****                         curr.G = 0x7F + number;
 1202              		.loc 1 220 32 view .LVU294
 1203 00cc 17FA88F3 		uxtah	r3, r7, r8
 1204 00d0 9BB2     		uxth	r3, r3
 1205              	.LVL101:
 221:Core/Src/NOS_LIB_Driver/Src/NOS_WS2812B_Strip.c ****                         break;
 1206              		.loc 1 221 25 is_stmt 1 view .LVU295
 221:Core/Src/NOS_LIB_Driver/Src/NOS_WS2812B_Strip.c ****                         break;
 1207              		.loc 1 221 39 is_stmt 0 view .LVU296
 1208 00d2 7F33     		adds	r3, r3, #127
 1209              	.LVL102:
 221:Core/Src/NOS_LIB_Driver/Src/NOS_WS2812B_Strip.c ****                         break;
 1210              		.loc 1 221 32 view .LVU297
 1211 00d4 8DF80530 		strb	r3, [sp, #5]
 222:Core/Src/NOS_LIB_Driver/Src/NOS_WS2812B_Strip.c **** 
 1212              		.loc 1 222 25 is_stmt 1 view .LVU298
 1213 00d8 DEE7     		b	.L60
 1214              	.LVL103:
 1215              	.L71:
 225:Core/Src/NOS_LIB_Driver/Src/NOS_WS2812B_Strip.c ****                         number = number - 0x7F * iteration;
 1216              		.loc 1 225 25 view .LVU299
 225:Core/Src/NOS_LIB_Driver/Src/NOS_WS2812B_Strip.c ****                         number = number - 0x7F * iteration;
 1217              		.loc 1 225 32 is_stmt 0 view .LVU300
 1218 00da FFF7FEFF 		bl	NOS_GetBaseColor
 1219              	.LVL104:
 225:Core/Src/NOS_LIB_Driver/Src/NOS_WS2812B_Strip.c ****                         number = number - 0x7F * iteration;
 1220              		.loc 1 225 32 view .LVU301
 1221 00de 8DF80400 		strb	r0, [sp, #4]
ARM GAS  C:\Users\igorn\AppData\Local\Temp\ccb8XmqW.s 			page 29


 1222 00e2 C0F30723 		ubfx	r3, r0, #8, #8
 1223 00e6 8DF80530 		strb	r3, [sp, #5]
 1224 00ea C0F30740 		ubfx	r0, r0, #16, #8
 1225 00ee 8DF80600 		strb	r0, [sp, #6]
 226:Core/Src/NOS_LIB_Driver/Src/NOS_WS2812B_Strip.c ****                         curr.B = 0xFF - number;
 1226              		.loc 1 226 25 is_stmt 1 view .LVU302
 226:Core/Src/NOS_LIB_Driver/Src/NOS_WS2812B_Strip.c ****                         curr.B = 0xFF - number;
 1227              		.loc 1 226 41 is_stmt 0 view .LVU303
 1228 00f2 5FFA88F8 		uxtb	r8, r8
 1229 00f6 A8EBC818 		sub	r8, r8, r8, lsl #7
 226:Core/Src/NOS_LIB_Driver/Src/NOS_WS2812B_Strip.c ****                         curr.B = 0xFF - number;
 1230              		.loc 1 226 32 view .LVU304
 1231 00fa 17FA88F3 		uxtah	r3, r7, r8
 1232 00fe 9BB2     		uxth	r3, r3
 1233              	.LVL105:
 227:Core/Src/NOS_LIB_Driver/Src/NOS_WS2812B_Strip.c ****                         break;
 1234              		.loc 1 227 25 is_stmt 1 view .LVU305
 227:Core/Src/NOS_LIB_Driver/Src/NOS_WS2812B_Strip.c ****                         break;
 1235              		.loc 1 227 39 is_stmt 0 view .LVU306
 1236 0100 DB43     		mvns	r3, r3
 1237              	.LVL106:
 227:Core/Src/NOS_LIB_Driver/Src/NOS_WS2812B_Strip.c ****                         break;
 1238              		.loc 1 227 32 view .LVU307
 1239 0102 8DF80630 		strb	r3, [sp, #6]
 228:Core/Src/NOS_LIB_Driver/Src/NOS_WS2812B_Strip.c **** 
 1240              		.loc 1 228 25 is_stmt 1 view .LVU308
 1241 0106 C7E7     		b	.L60
 1242              	.LVL107:
 1243              	.L70:
 231:Core/Src/NOS_LIB_Driver/Src/NOS_WS2812B_Strip.c ****                         number = number - 0x7F * iteration;
 1244              		.loc 1 231 25 view .LVU309
 231:Core/Src/NOS_LIB_Driver/Src/NOS_WS2812B_Strip.c ****                         number = number - 0x7F * iteration;
 1245              		.loc 1 231 32 is_stmt 0 view .LVU310
 1246 0108 FFF7FEFF 		bl	NOS_GetBaseColor
 1247              	.LVL108:
 231:Core/Src/NOS_LIB_Driver/Src/NOS_WS2812B_Strip.c ****                         number = number - 0x7F * iteration;
 1248              		.loc 1 231 32 view .LVU311
 1249 010c 8DF80400 		strb	r0, [sp, #4]
 1250 0110 C0F30723 		ubfx	r3, r0, #8, #8
 1251 0114 8DF80530 		strb	r3, [sp, #5]
 1252 0118 C0F30740 		ubfx	r0, r0, #16, #8
 1253 011c 8DF80600 		strb	r0, [sp, #6]
 232:Core/Src/NOS_LIB_Driver/Src/NOS_WS2812B_Strip.c ****                         curr.B = 0x7F - number;
 1254              		.loc 1 232 25 is_stmt 1 view .LVU312
 232:Core/Src/NOS_LIB_Driver/Src/NOS_WS2812B_Strip.c ****                         curr.B = 0x7F - number;
 1255              		.loc 1 232 41 is_stmt 0 view .LVU313
 1256 0120 5FFA88F8 		uxtb	r8, r8
 1257 0124 A8EBC818 		sub	r8, r8, r8, lsl #7
 232:Core/Src/NOS_LIB_Driver/Src/NOS_WS2812B_Strip.c ****                         curr.B = 0x7F - number;
 1258              		.loc 1 232 32 view .LVU314
 1259 0128 17FA88F3 		uxtah	r3, r7, r8
 1260 012c 9BB2     		uxth	r3, r3
 1261              	.LVL109:
 233:Core/Src/NOS_LIB_Driver/Src/NOS_WS2812B_Strip.c ****                         break;
 1262              		.loc 1 233 25 is_stmt 1 view .LVU315
 233:Core/Src/NOS_LIB_Driver/Src/NOS_WS2812B_Strip.c ****                         break;
 1263              		.loc 1 233 39 is_stmt 0 view .LVU316
ARM GAS  C:\Users\igorn\AppData\Local\Temp\ccb8XmqW.s 			page 30


 1264 012e C3F17F03 		rsb	r3, r3, #127
 1265              	.LVL110:
 233:Core/Src/NOS_LIB_Driver/Src/NOS_WS2812B_Strip.c ****                         break;
 1266              		.loc 1 233 32 view .LVU317
 1267 0132 8DF80630 		strb	r3, [sp, #6]
 234:Core/Src/NOS_LIB_Driver/Src/NOS_WS2812B_Strip.c **** 
 1268              		.loc 1 234 25 is_stmt 1 view .LVU318
 1269 0136 AFE7     		b	.L60
 1270              	.LVL111:
 1271              	.L69:
 237:Core/Src/NOS_LIB_Driver/Src/NOS_WS2812B_Strip.c ****                         number = number - 0x7F * iteration;
 1272              		.loc 1 237 25 view .LVU319
 237:Core/Src/NOS_LIB_Driver/Src/NOS_WS2812B_Strip.c ****                         number = number - 0x7F * iteration;
 1273              		.loc 1 237 32 is_stmt 0 view .LVU320
 1274 0138 FFF7FEFF 		bl	NOS_GetBaseColor
 1275              	.LVL112:
 237:Core/Src/NOS_LIB_Driver/Src/NOS_WS2812B_Strip.c ****                         number = number - 0x7F * iteration;
 1276              		.loc 1 237 32 view .LVU321
 1277 013c 8DF80400 		strb	r0, [sp, #4]
 1278 0140 C0F30723 		ubfx	r3, r0, #8, #8
 1279 0144 8DF80530 		strb	r3, [sp, #5]
 1280 0148 C0F30740 		ubfx	r0, r0, #16, #8
 1281 014c 8DF80600 		strb	r0, [sp, #6]
 238:Core/Src/NOS_LIB_Driver/Src/NOS_WS2812B_Strip.c ****                         curr.R = number;
 1282              		.loc 1 238 25 is_stmt 1 view .LVU322
 238:Core/Src/NOS_LIB_Driver/Src/NOS_WS2812B_Strip.c ****                         curr.R = number;
 1283              		.loc 1 238 41 is_stmt 0 view .LVU323
 1284 0150 5FFA88F8 		uxtb	r8, r8
 1285 0154 A8EBC818 		sub	r8, r8, r8, lsl #7
 238:Core/Src/NOS_LIB_Driver/Src/NOS_WS2812B_Strip.c ****                         curr.R = number;
 1286              		.loc 1 238 32 view .LVU324
 1287 0158 17FA88F3 		uxtah	r3, r7, r8
 1288              	.LVL113:
 239:Core/Src/NOS_LIB_Driver/Src/NOS_WS2812B_Strip.c ****                         break;
 1289              		.loc 1 239 25 is_stmt 1 view .LVU325
 239:Core/Src/NOS_LIB_Driver/Src/NOS_WS2812B_Strip.c ****                         break;
 1290              		.loc 1 239 32 is_stmt 0 view .LVU326
 1291 015c 8DF80430 		strb	r3, [sp, #4]
 240:Core/Src/NOS_LIB_Driver/Src/NOS_WS2812B_Strip.c **** 
 1292              		.loc 1 240 25 is_stmt 1 view .LVU327
 1293 0160 9AE7     		b	.L60
 1294              	.LVL114:
 1295              	.L68:
 243:Core/Src/NOS_LIB_Driver/Src/NOS_WS2812B_Strip.c ****                         number = number - 0x7F * iteration;
 1296              		.loc 1 243 25 view .LVU328
 243:Core/Src/NOS_LIB_Driver/Src/NOS_WS2812B_Strip.c ****                         number = number - 0x7F * iteration;
 1297              		.loc 1 243 32 is_stmt 0 view .LVU329
 1298 0162 FFF7FEFF 		bl	NOS_GetBaseColor
 1299              	.LVL115:
 243:Core/Src/NOS_LIB_Driver/Src/NOS_WS2812B_Strip.c ****                         number = number - 0x7F * iteration;
 1300              		.loc 1 243 32 view .LVU330
 1301 0166 8DF80400 		strb	r0, [sp, #4]
 1302 016a C0F30723 		ubfx	r3, r0, #8, #8
 1303 016e 8DF80530 		strb	r3, [sp, #5]
 1304 0172 C0F30740 		ubfx	r0, r0, #16, #8
 1305 0176 8DF80600 		strb	r0, [sp, #6]
 244:Core/Src/NOS_LIB_Driver/Src/NOS_WS2812B_Strip.c ****                         curr.R = 0x7F + number;
ARM GAS  C:\Users\igorn\AppData\Local\Temp\ccb8XmqW.s 			page 31


 1306              		.loc 1 244 25 is_stmt 1 view .LVU331
 244:Core/Src/NOS_LIB_Driver/Src/NOS_WS2812B_Strip.c ****                         curr.R = 0x7F + number;
 1307              		.loc 1 244 41 is_stmt 0 view .LVU332
 1308 017a 5FFA88F8 		uxtb	r8, r8
 1309 017e A8EBC818 		sub	r8, r8, r8, lsl #7
 244:Core/Src/NOS_LIB_Driver/Src/NOS_WS2812B_Strip.c ****                         curr.R = 0x7F + number;
 1310              		.loc 1 244 32 view .LVU333
 1311 0182 17FA88F3 		uxtah	r3, r7, r8
 1312 0186 9BB2     		uxth	r3, r3
 1313              	.LVL116:
 245:Core/Src/NOS_LIB_Driver/Src/NOS_WS2812B_Strip.c ****                         break;
 1314              		.loc 1 245 25 is_stmt 1 view .LVU334
 245:Core/Src/NOS_LIB_Driver/Src/NOS_WS2812B_Strip.c ****                         break;
 1315              		.loc 1 245 39 is_stmt 0 view .LVU335
 1316 0188 7F33     		adds	r3, r3, #127
 1317              	.LVL117:
 245:Core/Src/NOS_LIB_Driver/Src/NOS_WS2812B_Strip.c ****                         break;
 1318              		.loc 1 245 32 view .LVU336
 1319 018a 8DF80430 		strb	r3, [sp, #4]
 246:Core/Src/NOS_LIB_Driver/Src/NOS_WS2812B_Strip.c **** 
 1320              		.loc 1 246 25 is_stmt 1 view .LVU337
 1321 018e 83E7     		b	.L60
 1322              	.LVL118:
 1323              	.L67:
 249:Core/Src/NOS_LIB_Driver/Src/NOS_WS2812B_Strip.c ****                         number = number - 0x7F * iteration;
 1324              		.loc 1 249 25 view .LVU338
 249:Core/Src/NOS_LIB_Driver/Src/NOS_WS2812B_Strip.c ****                         number = number - 0x7F * iteration;
 1325              		.loc 1 249 32 is_stmt 0 view .LVU339
 1326 0190 FFF7FEFF 		bl	NOS_GetBaseColor
 1327              	.LVL119:
 249:Core/Src/NOS_LIB_Driver/Src/NOS_WS2812B_Strip.c ****                         number = number - 0x7F * iteration;
 1328              		.loc 1 249 32 view .LVU340
 1329 0194 8DF80400 		strb	r0, [sp, #4]
 1330 0198 C0F30723 		ubfx	r3, r0, #8, #8
 1331 019c 8DF80530 		strb	r3, [sp, #5]
 1332 01a0 C0F30740 		ubfx	r0, r0, #16, #8
 1333 01a4 8DF80600 		strb	r0, [sp, #6]
 250:Core/Src/NOS_LIB_Driver/Src/NOS_WS2812B_Strip.c ****                         curr.G = 0xFF - number;
 1334              		.loc 1 250 25 is_stmt 1 view .LVU341
 250:Core/Src/NOS_LIB_Driver/Src/NOS_WS2812B_Strip.c ****                         curr.G = 0xFF - number;
 1335              		.loc 1 250 41 is_stmt 0 view .LVU342
 1336 01a8 5FFA88F8 		uxtb	r8, r8
 1337 01ac A8EBC818 		sub	r8, r8, r8, lsl #7
 250:Core/Src/NOS_LIB_Driver/Src/NOS_WS2812B_Strip.c ****                         curr.G = 0xFF - number;
 1338              		.loc 1 250 32 view .LVU343
 1339 01b0 17FA88F3 		uxtah	r3, r7, r8
 1340 01b4 9BB2     		uxth	r3, r3
 1341              	.LVL120:
 251:Core/Src/NOS_LIB_Driver/Src/NOS_WS2812B_Strip.c ****                         break;
 1342              		.loc 1 251 25 is_stmt 1 view .LVU344
 251:Core/Src/NOS_LIB_Driver/Src/NOS_WS2812B_Strip.c ****                         break;
 1343              		.loc 1 251 39 is_stmt 0 view .LVU345
 1344 01b6 DB43     		mvns	r3, r3
 1345              	.LVL121:
 251:Core/Src/NOS_LIB_Driver/Src/NOS_WS2812B_Strip.c ****                         break;
 1346              		.loc 1 251 32 view .LVU346
 1347 01b8 8DF80530 		strb	r3, [sp, #5]
ARM GAS  C:\Users\igorn\AppData\Local\Temp\ccb8XmqW.s 			page 32


 252:Core/Src/NOS_LIB_Driver/Src/NOS_WS2812B_Strip.c **** 
 1348              		.loc 1 252 25 is_stmt 1 view .LVU347
 1349 01bc 6CE7     		b	.L60
 1350              	.LVL122:
 1351              	.L66:
 255:Core/Src/NOS_LIB_Driver/Src/NOS_WS2812B_Strip.c ****                         number = number - 0x7F * iteration;
 1352              		.loc 1 255 25 view .LVU348
 255:Core/Src/NOS_LIB_Driver/Src/NOS_WS2812B_Strip.c ****                         number = number - 0x7F * iteration;
 1353              		.loc 1 255 32 is_stmt 0 view .LVU349
 1354 01be FFF7FEFF 		bl	NOS_GetBaseColor
 1355              	.LVL123:
 255:Core/Src/NOS_LIB_Driver/Src/NOS_WS2812B_Strip.c ****                         number = number - 0x7F * iteration;
 1356              		.loc 1 255 32 view .LVU350
 1357 01c2 8DF80400 		strb	r0, [sp, #4]
 1358 01c6 C0F30723 		ubfx	r3, r0, #8, #8
 1359 01ca 8DF80530 		strb	r3, [sp, #5]
 1360 01ce C0F30740 		ubfx	r0, r0, #16, #8
 1361 01d2 8DF80600 		strb	r0, [sp, #6]
 256:Core/Src/NOS_LIB_Driver/Src/NOS_WS2812B_Strip.c ****                         curr.G = 0x7F - number;
 1362              		.loc 1 256 25 is_stmt 1 view .LVU351
 256:Core/Src/NOS_LIB_Driver/Src/NOS_WS2812B_Strip.c ****                         curr.G = 0x7F - number;
 1363              		.loc 1 256 41 is_stmt 0 view .LVU352
 1364 01d6 5FFA88F8 		uxtb	r8, r8
 1365 01da A8EBC818 		sub	r8, r8, r8, lsl #7
 256:Core/Src/NOS_LIB_Driver/Src/NOS_WS2812B_Strip.c ****                         curr.G = 0x7F - number;
 1366              		.loc 1 256 32 view .LVU353
 1367 01de 17FA88F3 		uxtah	r3, r7, r8
 1368 01e2 9BB2     		uxth	r3, r3
 1369              	.LVL124:
 257:Core/Src/NOS_LIB_Driver/Src/NOS_WS2812B_Strip.c ****                         break;
 1370              		.loc 1 257 25 is_stmt 1 view .LVU354
 257:Core/Src/NOS_LIB_Driver/Src/NOS_WS2812B_Strip.c ****                         break;
 1371              		.loc 1 257 39 is_stmt 0 view .LVU355
 1372 01e4 C3F17F03 		rsb	r3, r3, #127
 1373              	.LVL125:
 257:Core/Src/NOS_LIB_Driver/Src/NOS_WS2812B_Strip.c ****                         break;
 1374              		.loc 1 257 32 view .LVU356
 1375 01e8 8DF80530 		strb	r3, [sp, #5]
 258:Core/Src/NOS_LIB_Driver/Src/NOS_WS2812B_Strip.c **** 
 1376              		.loc 1 258 25 is_stmt 1 view .LVU357
 1377 01ec 54E7     		b	.L60
 1378              	.LVL126:
 1379              	.L65:
 261:Core/Src/NOS_LIB_Driver/Src/NOS_WS2812B_Strip.c ****                         number = number - 0x7F * iteration;
 1380              		.loc 1 261 25 view .LVU358
 261:Core/Src/NOS_LIB_Driver/Src/NOS_WS2812B_Strip.c ****                         number = number - 0x7F * iteration;
 1381              		.loc 1 261 32 is_stmt 0 view .LVU359
 1382 01ee FFF7FEFF 		bl	NOS_GetBaseColor
 1383              	.LVL127:
 261:Core/Src/NOS_LIB_Driver/Src/NOS_WS2812B_Strip.c ****                         number = number - 0x7F * iteration;
 1384              		.loc 1 261 32 view .LVU360
 1385 01f2 8DF80400 		strb	r0, [sp, #4]
 1386 01f6 C0F30723 		ubfx	r3, r0, #8, #8
 1387 01fa 8DF80530 		strb	r3, [sp, #5]
 1388 01fe C0F30740 		ubfx	r0, r0, #16, #8
 1389 0202 8DF80600 		strb	r0, [sp, #6]
 262:Core/Src/NOS_LIB_Driver/Src/NOS_WS2812B_Strip.c ****                         curr.B = number;
ARM GAS  C:\Users\igorn\AppData\Local\Temp\ccb8XmqW.s 			page 33


 1390              		.loc 1 262 25 is_stmt 1 view .LVU361
 262:Core/Src/NOS_LIB_Driver/Src/NOS_WS2812B_Strip.c ****                         curr.B = number;
 1391              		.loc 1 262 41 is_stmt 0 view .LVU362
 1392 0206 5FFA88F8 		uxtb	r8, r8
 1393 020a A8EBC818 		sub	r8, r8, r8, lsl #7
 262:Core/Src/NOS_LIB_Driver/Src/NOS_WS2812B_Strip.c ****                         curr.B = number;
 1394              		.loc 1 262 32 view .LVU363
 1395 020e 17FA88F3 		uxtah	r3, r7, r8
 1396              	.LVL128:
 263:Core/Src/NOS_LIB_Driver/Src/NOS_WS2812B_Strip.c ****                         break;
 1397              		.loc 1 263 25 is_stmt 1 view .LVU364
 263:Core/Src/NOS_LIB_Driver/Src/NOS_WS2812B_Strip.c ****                         break;
 1398              		.loc 1 263 32 is_stmt 0 view .LVU365
 1399 0212 8DF80630 		strb	r3, [sp, #6]
 264:Core/Src/NOS_LIB_Driver/Src/NOS_WS2812B_Strip.c **** 
 1400              		.loc 1 264 25 is_stmt 1 view .LVU366
 1401 0216 3FE7     		b	.L60
 1402              	.LVL129:
 1403              	.L64:
 267:Core/Src/NOS_LIB_Driver/Src/NOS_WS2812B_Strip.c ****                         number = number - 0x7F * iteration;
 1404              		.loc 1 267 25 view .LVU367
 267:Core/Src/NOS_LIB_Driver/Src/NOS_WS2812B_Strip.c ****                         number = number - 0x7F * iteration;
 1405              		.loc 1 267 32 is_stmt 0 view .LVU368
 1406 0218 FFF7FEFF 		bl	NOS_GetBaseColor
 1407              	.LVL130:
 267:Core/Src/NOS_LIB_Driver/Src/NOS_WS2812B_Strip.c ****                         number = number - 0x7F * iteration;
 1408              		.loc 1 267 32 view .LVU369
 1409 021c 8DF80400 		strb	r0, [sp, #4]
 1410 0220 C0F30723 		ubfx	r3, r0, #8, #8
 1411 0224 8DF80530 		strb	r3, [sp, #5]
 1412 0228 C0F30740 		ubfx	r0, r0, #16, #8
 1413 022c 8DF80600 		strb	r0, [sp, #6]
 268:Core/Src/NOS_LIB_Driver/Src/NOS_WS2812B_Strip.c ****                         curr.B = 0x7F + number;
 1414              		.loc 1 268 25 is_stmt 1 view .LVU370
 268:Core/Src/NOS_LIB_Driver/Src/NOS_WS2812B_Strip.c ****                         curr.B = 0x7F + number;
 1415              		.loc 1 268 41 is_stmt 0 view .LVU371
 1416 0230 5FFA88F8 		uxtb	r8, r8
 1417 0234 A8EBC818 		sub	r8, r8, r8, lsl #7
 268:Core/Src/NOS_LIB_Driver/Src/NOS_WS2812B_Strip.c ****                         curr.B = 0x7F + number;
 1418              		.loc 1 268 32 view .LVU372
 1419 0238 17FA88F3 		uxtah	r3, r7, r8
 1420 023c 9BB2     		uxth	r3, r3
 1421              	.LVL131:
 269:Core/Src/NOS_LIB_Driver/Src/NOS_WS2812B_Strip.c ****                         break;
 1422              		.loc 1 269 25 is_stmt 1 view .LVU373
 269:Core/Src/NOS_LIB_Driver/Src/NOS_WS2812B_Strip.c ****                         break;
 1423              		.loc 1 269 39 is_stmt 0 view .LVU374
 1424 023e 7F33     		adds	r3, r3, #127
 1425              	.LVL132:
 269:Core/Src/NOS_LIB_Driver/Src/NOS_WS2812B_Strip.c ****                         break;
 1426              		.loc 1 269 32 view .LVU375
 1427 0240 8DF80630 		strb	r3, [sp, #6]
 270:Core/Src/NOS_LIB_Driver/Src/NOS_WS2812B_Strip.c **** 
 1428              		.loc 1 270 25 is_stmt 1 view .LVU376
 1429 0244 28E7     		b	.L60
 1430              	.LVL133:
 1431              	.L63:
ARM GAS  C:\Users\igorn\AppData\Local\Temp\ccb8XmqW.s 			page 34


 273:Core/Src/NOS_LIB_Driver/Src/NOS_WS2812B_Strip.c ****                         number = number - 0x7F * iteration;
 1432              		.loc 1 273 25 view .LVU377
 273:Core/Src/NOS_LIB_Driver/Src/NOS_WS2812B_Strip.c ****                         number = number - 0x7F * iteration;
 1433              		.loc 1 273 32 is_stmt 0 view .LVU378
 1434 0246 FFF7FEFF 		bl	NOS_GetBaseColor
 1435              	.LVL134:
 273:Core/Src/NOS_LIB_Driver/Src/NOS_WS2812B_Strip.c ****                         number = number - 0x7F * iteration;
 1436              		.loc 1 273 32 view .LVU379
 1437 024a 8DF80400 		strb	r0, [sp, #4]
 1438 024e C0F30723 		ubfx	r3, r0, #8, #8
 1439 0252 8DF80530 		strb	r3, [sp, #5]
 1440 0256 C0F30740 		ubfx	r0, r0, #16, #8
 1441 025a 8DF80600 		strb	r0, [sp, #6]
 274:Core/Src/NOS_LIB_Driver/Src/NOS_WS2812B_Strip.c ****                         curr.R = 0xFF - number;
 1442              		.loc 1 274 25 is_stmt 1 view .LVU380
 274:Core/Src/NOS_LIB_Driver/Src/NOS_WS2812B_Strip.c ****                         curr.R = 0xFF - number;
 1443              		.loc 1 274 41 is_stmt 0 view .LVU381
 1444 025e 5FFA88F8 		uxtb	r8, r8
 1445 0262 A8EBC818 		sub	r8, r8, r8, lsl #7
 274:Core/Src/NOS_LIB_Driver/Src/NOS_WS2812B_Strip.c ****                         curr.R = 0xFF - number;
 1446              		.loc 1 274 32 view .LVU382
 1447 0266 17FA88F3 		uxtah	r3, r7, r8
 1448 026a 9BB2     		uxth	r3, r3
 1449              	.LVL135:
 275:Core/Src/NOS_LIB_Driver/Src/NOS_WS2812B_Strip.c ****                         break;
 1450              		.loc 1 275 25 is_stmt 1 view .LVU383
 275:Core/Src/NOS_LIB_Driver/Src/NOS_WS2812B_Strip.c ****                         break;
 1451              		.loc 1 275 39 is_stmt 0 view .LVU384
 1452 026c DB43     		mvns	r3, r3
 1453              	.LVL136:
 275:Core/Src/NOS_LIB_Driver/Src/NOS_WS2812B_Strip.c ****                         break;
 1454              		.loc 1 275 32 view .LVU385
 1455 026e 8DF80430 		strb	r3, [sp, #4]
 276:Core/Src/NOS_LIB_Driver/Src/NOS_WS2812B_Strip.c **** 
 1456              		.loc 1 276 25 is_stmt 1 view .LVU386
 1457 0272 11E7     		b	.L60
 1458              	.LVL137:
 1459              	.L61:
 279:Core/Src/NOS_LIB_Driver/Src/NOS_WS2812B_Strip.c ****                         number = number - 0x7F * iteration;
 1460              		.loc 1 279 25 view .LVU387
 279:Core/Src/NOS_LIB_Driver/Src/NOS_WS2812B_Strip.c ****                         number = number - 0x7F * iteration;
 1461              		.loc 1 279 32 is_stmt 0 view .LVU388
 1462 0274 FFF7FEFF 		bl	NOS_GetBaseColor
 1463              	.LVL138:
 279:Core/Src/NOS_LIB_Driver/Src/NOS_WS2812B_Strip.c ****                         number = number - 0x7F * iteration;
 1464              		.loc 1 279 32 view .LVU389
 1465 0278 8DF80400 		strb	r0, [sp, #4]
 1466 027c C0F30723 		ubfx	r3, r0, #8, #8
 1467 0280 8DF80530 		strb	r3, [sp, #5]
 1468 0284 C0F30740 		ubfx	r0, r0, #16, #8
 1469 0288 8DF80600 		strb	r0, [sp, #6]
 280:Core/Src/NOS_LIB_Driver/Src/NOS_WS2812B_Strip.c ****                         curr.R = 0x7F - number;
 1470              		.loc 1 280 25 is_stmt 1 view .LVU390
 280:Core/Src/NOS_LIB_Driver/Src/NOS_WS2812B_Strip.c ****                         curr.R = 0x7F - number;
 1471              		.loc 1 280 41 is_stmt 0 view .LVU391
 1472 028c 5FFA88F8 		uxtb	r8, r8
 1473 0290 A8EBC818 		sub	r8, r8, r8, lsl #7
ARM GAS  C:\Users\igorn\AppData\Local\Temp\ccb8XmqW.s 			page 35


 280:Core/Src/NOS_LIB_Driver/Src/NOS_WS2812B_Strip.c ****                         curr.R = 0x7F - number;
 1474              		.loc 1 280 32 view .LVU392
 1475 0294 17FA88F3 		uxtah	r3, r7, r8
 1476 0298 9BB2     		uxth	r3, r3
 1477              	.LVL139:
 281:Core/Src/NOS_LIB_Driver/Src/NOS_WS2812B_Strip.c ****                         break;
 1478              		.loc 1 281 25 is_stmt 1 view .LVU393
 281:Core/Src/NOS_LIB_Driver/Src/NOS_WS2812B_Strip.c ****                         break;
 1479              		.loc 1 281 39 is_stmt 0 view .LVU394
 1480 029a C3F17F03 		rsb	r3, r3, #127
 1481              	.LVL140:
 281:Core/Src/NOS_LIB_Driver/Src/NOS_WS2812B_Strip.c ****                         break;
 1482              		.loc 1 281 32 view .LVU395
 1483 029e 8DF80430 		strb	r3, [sp, #4]
 282:Core/Src/NOS_LIB_Driver/Src/NOS_WS2812B_Strip.c **** 
 1484              		.loc 1 282 25 is_stmt 1 view .LVU396
 1485 02a2 F9E6     		b	.L60
 1486              	.LVL141:
 1487              	.L76:
 1488              		.cfi_def_cfa_offset 0
 1489              		.cfi_restore 4
 1490              		.cfi_restore 5
 1491              		.cfi_restore 6
 1492              		.cfi_restore 7
 1493              		.cfi_restore 8
 1494              		.cfi_restore 14
 282:Core/Src/NOS_LIB_Driver/Src/NOS_WS2812B_Strip.c **** 
 1495              		.loc 1 282 25 is_stmt 0 view .LVU397
 1496 02a4 7047     		bx	lr
 1497              	.L81:
 1498 02a6 00BF     		.align	2
 1499              	.L80:
 1500 02a8 11080402 		.word	33818641
 1501              	.LBE6:
 1502              		.cfi_endproc
 1503              	.LFE146:
 1505              		.section	.text.NOS_WS2812B_Strip_Effects_Handler,"ax",%progbits
 1506              		.align	1
 1507              		.global	NOS_WS2812B_Strip_Effects_Handler
 1508              		.syntax unified
 1509              		.thumb
 1510              		.thumb_func
 1512              	NOS_WS2812B_Strip_Effects_Handler:
 1513              	.LVL142:
 1514              	.LFB142:
 131:Core/Src/NOS_LIB_Driver/Src/NOS_WS2812B_Strip.c ****     for(int i = 0; i < strip->effectsCounter; i++)
 1515              		.loc 1 131 1 is_stmt 1 view -0
 1516              		.cfi_startproc
 1517              		@ args = 0, pretend = 0, frame = 0
 1518              		@ frame_needed = 0, uses_anonymous_args = 0
 131:Core/Src/NOS_LIB_Driver/Src/NOS_WS2812B_Strip.c ****     for(int i = 0; i < strip->effectsCounter; i++)
 1519              		.loc 1 131 1 is_stmt 0 view .LVU399
 1520 0000 38B5     		push	{r3, r4, r5, lr}
 1521              		.cfi_def_cfa_offset 16
 1522              		.cfi_offset 3, -16
 1523              		.cfi_offset 4, -12
 1524              		.cfi_offset 5, -8
ARM GAS  C:\Users\igorn\AppData\Local\Temp\ccb8XmqW.s 			page 36


 1525              		.cfi_offset 14, -4
 1526 0002 0546     		mov	r5, r0
 132:Core/Src/NOS_LIB_Driver/Src/NOS_WS2812B_Strip.c ****     {
 1527              		.loc 1 132 5 is_stmt 1 view .LVU400
 1528              	.LBB7:
 132:Core/Src/NOS_LIB_Driver/Src/NOS_WS2812B_Strip.c ****     {
 1529              		.loc 1 132 9 view .LVU401
 1530              	.LVL143:
 132:Core/Src/NOS_LIB_Driver/Src/NOS_WS2812B_Strip.c ****     {
 1531              		.loc 1 132 13 is_stmt 0 view .LVU402
 1532 0004 0024     		movs	r4, #0
 132:Core/Src/NOS_LIB_Driver/Src/NOS_WS2812B_Strip.c ****     {
 1533              		.loc 1 132 5 view .LVU403
 1534 0006 06E0     		b	.L83
 1535              	.LVL144:
 1536              	.L84:
 137:Core/Src/NOS_LIB_Driver/Src/NOS_WS2812B_Strip.c ****                 break;
 1537              		.loc 1 137 17 is_stmt 1 view .LVU404
 1538 0008 6101     		lsls	r1, r4, #5
 1539 000a 1031     		adds	r1, r1, #16
 1540 000c 2944     		add	r1, r1, r5
 1541 000e 2846     		mov	r0, r5
 1542 0010 FFF7FEFF 		bl	NOS_WS2812B_Strip_Effect_Breathe_Handler
 1543              	.LVL145:
 138:Core/Src/NOS_LIB_Driver/Src/NOS_WS2812B_Strip.c ****             case 0x21:
 1544              		.loc 1 138 17 view .LVU405
 1545              	.L86:
 132:Core/Src/NOS_LIB_Driver/Src/NOS_WS2812B_Strip.c ****     {
 1546              		.loc 1 132 48 discriminator 2 view .LVU406
 1547 0014 0134     		adds	r4, r4, #1
 1548              	.LVL146:
 1549              	.L83:
 132:Core/Src/NOS_LIB_Driver/Src/NOS_WS2812B_Strip.c ****     {
 1550              		.loc 1 132 22 discriminator 1 view .LVU407
 132:Core/Src/NOS_LIB_Driver/Src/NOS_WS2812B_Strip.c ****     {
 1551              		.loc 1 132 29 is_stmt 0 discriminator 1 view .LVU408
 1552 0016 95F85031 		ldrb	r3, [r5, #336]	@ zero_extendqisi2
 132:Core/Src/NOS_LIB_Driver/Src/NOS_WS2812B_Strip.c ****     {
 1553              		.loc 1 132 22 discriminator 1 view .LVU409
 1554 001a A342     		cmp	r3, r4
 1555 001c 0EDD     		ble	.L89
 134:Core/Src/NOS_LIB_Driver/Src/NOS_WS2812B_Strip.c ****         {
 1556              		.loc 1 134 9 is_stmt 1 view .LVU410
 134:Core/Src/NOS_LIB_Driver/Src/NOS_WS2812B_Strip.c ****         {
 1557              		.loc 1 134 33 is_stmt 0 view .LVU411
 1558 001e 05EB4413 		add	r3, r5, r4, lsl #5
 1559 0022 93F82F30 		ldrb	r3, [r3, #47]	@ zero_extendqisi2
 134:Core/Src/NOS_LIB_Driver/Src/NOS_WS2812B_Strip.c ****         {
 1560              		.loc 1 134 9 view .LVU412
 1561 0026 202B     		cmp	r3, #32
 1562 0028 EED0     		beq	.L84
 1563 002a 212B     		cmp	r3, #33
 1564 002c F2D1     		bne	.L86
 140:Core/Src/NOS_LIB_Driver/Src/NOS_WS2812B_Strip.c ****                 break;
 1565              		.loc 1 140 17 is_stmt 1 view .LVU413
 1566 002e 6101     		lsls	r1, r4, #5
 1567 0030 1031     		adds	r1, r1, #16
ARM GAS  C:\Users\igorn\AppData\Local\Temp\ccb8XmqW.s 			page 37


 1568 0032 2944     		add	r1, r1, r5
 1569 0034 2846     		mov	r0, r5
 1570 0036 FFF7FEFF 		bl	NOS_WS2812B_Strip_Effect_Rainbow_Handler
 1571              	.LVL147:
 141:Core/Src/NOS_LIB_Driver/Src/NOS_WS2812B_Strip.c ****         }
 1572              		.loc 1 141 17 view .LVU414
 1573 003a EBE7     		b	.L86
 1574              	.L89:
 1575              	.LBE7:
 144:Core/Src/NOS_LIB_Driver/Src/NOS_WS2812B_Strip.c **** 
 1576              		.loc 1 144 1 is_stmt 0 view .LVU415
 1577 003c 38BD     		pop	{r3, r4, r5, pc}
 144:Core/Src/NOS_LIB_Driver/Src/NOS_WS2812B_Strip.c **** 
 1578              		.loc 1 144 1 view .LVU416
 1579              		.cfi_endproc
 1580              	.LFE142:
 1582              		.text
 1583              	.Letext0:
 1584              		.file 2 "c:\\users\\igorn\\appdata\\roaming\\code\\user\\globalstorage\\bmd.stm32-for-vscode\\@xpa
 1585              		.file 3 "c:\\users\\igorn\\appdata\\roaming\\code\\user\\globalstorage\\bmd.stm32-for-vscode\\@xpa
 1586              		.file 4 "Core/Src/NOS_LIB_Driver/Inc/NOS_Typedefs.h"
 1587              		.file 5 "Core/Src/NOS_LIB_Driver/Inc/NOS_BaseColors.h"
 1588              		.file 6 "Core/Src/NOS_LIB_Driver/Inc/NOS_Math.h"
ARM GAS  C:\Users\igorn\AppData\Local\Temp\ccb8XmqW.s 			page 38

