ARM GAS  C:\Users\igorn\AppData\Local\Temp\ccyy5tub.s 			page 1


   1              		.cpu cortex-m4
   2              		.arch armv7e-m
   3              		.fpu fpv4-sp-d16
   4              		.eabi_attribute 27, 1
   5              		.eabi_attribute 28, 1
   6              		.eabi_attribute 20, 1
   7              		.eabi_attribute 21, 1
   8              		.eabi_attribute 23, 3
   9              		.eabi_attribute 24, 1
  10              		.eabi_attribute 25, 1
  11              		.eabi_attribute 26, 1
  12              		.eabi_attribute 30, 1
  13              		.eabi_attribute 34, 1
  14              		.eabi_attribute 18, 4
  15              		.file	"WS2812B.c"
  16              		.text
  17              	.Ltext0:
  18              		.cfi_sections	.debug_frame
  19              		.file 1 "Core/Src/NOS_LIB_Driver/Src/WS2812B.c"
  20              		.section	.text.NOS_WS2812B_Matrix_BaseInit,"ax",%progbits
  21              		.align	1
  22              		.global	NOS_WS2812B_Matrix_BaseInit
  23              		.syntax unified
  24              		.thumb
  25              		.thumb_func
  27              	NOS_WS2812B_Matrix_BaseInit:
  28              	.LVL0:
  29              	.LFB130:
   1:Core/Src/NOS_LIB_Driver/Src/WS2812B.c **** #include "WS2812B.h"
   2:Core/Src/NOS_LIB_Driver/Src/WS2812B.c **** #include "CharLib(7x5).h"
   3:Core/Src/NOS_LIB_Driver/Src/WS2812B.c **** #include <stdbool.h>
   4:Core/Src/NOS_LIB_Driver/Src/WS2812B.c **** #include <stdlib.h>
   5:Core/Src/NOS_LIB_Driver/Src/WS2812B.c **** #include "NOS_Math.h"
   6:Core/Src/NOS_LIB_Driver/Src/WS2812B.c **** #include "locale.h"
   7:Core/Src/NOS_LIB_Driver/Src/WS2812B.c **** 
   8:Core/Src/NOS_LIB_Driver/Src/WS2812B.c **** /// @brief
   9:Core/Src/NOS_LIB_Driver/Src/WS2812B.c **** 
  10:Core/Src/NOS_LIB_Driver/Src/WS2812B.c **** void NOS_WS2812B_Matrix_BaseInit(WS2812B_Matrix *matrix, uint8_t *buff, uint16_t ledsCount)
  11:Core/Src/NOS_LIB_Driver/Src/WS2812B.c **** {
  30              		.loc 1 11 1 view -0
  31              		.cfi_startproc
  32              		@ args = 0, pretend = 0, frame = 0
  33              		@ frame_needed = 0, uses_anonymous_args = 0
  34              		@ link register save eliminated.
  12:Core/Src/NOS_LIB_Driver/Src/WS2812B.c ****     matrix->buffer = buff;
  35              		.loc 1 12 5 view .LVU1
  36              		.loc 1 12 20 is_stmt 0 view .LVU2
  37 0000 0160     		str	r1, [r0]
  13:Core/Src/NOS_LIB_Driver/Src/WS2812B.c ****     matrix->ledsCount.data = ledsCount;
  38              		.loc 1 13 5 is_stmt 1 view .LVU3
  39              		.loc 1 13 28 is_stmt 0 view .LVU4
  40 0002 C280     		strh	r2, [r0, #6]	@ movhi
  14:Core/Src/NOS_LIB_Driver/Src/WS2812B.c **** }
  41              		.loc 1 14 1 view .LVU5
  42 0004 7047     		bx	lr
  43              		.cfi_endproc
  44              	.LFE130:
ARM GAS  C:\Users\igorn\AppData\Local\Temp\ccyy5tub.s 			page 2


  46              		.section	.text.NOS_WS2812B_Matrix_FullInit,"ax",%progbits
  47              		.align	1
  48              		.global	NOS_WS2812B_Matrix_FullInit
  49              		.syntax unified
  50              		.thumb
  51              		.thumb_func
  53              	NOS_WS2812B_Matrix_FullInit:
  54              	.LVL1:
  55              	.LFB131:
  15:Core/Src/NOS_LIB_Driver/Src/WS2812B.c **** 
  16:Core/Src/NOS_LIB_Driver/Src/WS2812B.c **** void NOS_WS2812B_Matrix_FullInit(WS2812B_Matrix *matrix, uint8_t *buff, MatrixSize *size, PixelColo
  17:Core/Src/NOS_LIB_Driver/Src/WS2812B.c **** {
  56              		.loc 1 17 1 is_stmt 1 view -0
  57              		.cfi_startproc
  58              		@ args = 12, pretend = 0, frame = 0
  59              		@ frame_needed = 0, uses_anonymous_args = 0
  60              		@ link register save eliminated.
  18:Core/Src/NOS_LIB_Driver/Src/WS2812B.c ****     matrix->buffer = buff;
  61              		.loc 1 18 5 view .LVU7
  62              		.loc 1 18 20 is_stmt 0 view .LVU8
  63 0000 0160     		str	r1, [r0]
  19:Core/Src/NOS_LIB_Driver/Src/WS2812B.c ****     matrix->symvols = symvols;
  64              		.loc 1 19 5 is_stmt 1 view .LVU9
  65              		.loc 1 19 21 is_stmt 0 view .LVU10
  66 0002 0199     		ldr	r1, [sp, #4]
  67              	.LVL2:
  68              		.loc 1 19 21 view .LVU11
  69 0004 4161     		str	r1, [r0, #20]
  20:Core/Src/NOS_LIB_Driver/Src/WS2812B.c ****     matrix->textColor = text;
  70              		.loc 1 20 5 is_stmt 1 view .LVU12
  71              		.loc 1 20 23 is_stmt 0 view .LVU13
  72 0006 C360     		str	r3, [r0, #12]
  21:Core/Src/NOS_LIB_Driver/Src/WS2812B.c ****     matrix->foneColor = fone;
  73              		.loc 1 21 5 is_stmt 1 view .LVU14
  74              		.loc 1 21 23 is_stmt 0 view .LVU15
  75 0008 009B     		ldr	r3, [sp]
  76              	.LVL3:
  77              		.loc 1 21 23 view .LVU16
  78 000a 0361     		str	r3, [r0, #16]
  22:Core/Src/NOS_LIB_Driver/Src/WS2812B.c ****     matrix->size = size;
  79              		.loc 1 22 5 is_stmt 1 view .LVU17
  80              		.loc 1 22 18 is_stmt 0 view .LVU18
  81 000c 8260     		str	r2, [r0, #8]
  23:Core/Src/NOS_LIB_Driver/Src/WS2812B.c ****     matrix->bright = bright;
  82              		.loc 1 23 5 is_stmt 1 view .LVU19
  83              		.loc 1 23 20 is_stmt 0 view .LVU20
  84 000e 9DF80830 		ldrb	r3, [sp, #8]	@ zero_extendqisi2
  85 0012 0371     		strb	r3, [r0, #4]
  24:Core/Src/NOS_LIB_Driver/Src/WS2812B.c **** }
  86              		.loc 1 24 1 view .LVU21
  87 0014 7047     		bx	lr
  88              		.cfi_endproc
  89              	.LFE131:
  91              		.section	.text.NOS_WS2812B_Matrix_SetPixel,"ax",%progbits
  92              		.align	1
  93              		.global	NOS_WS2812B_Matrix_SetPixel
  94              		.syntax unified
ARM GAS  C:\Users\igorn\AppData\Local\Temp\ccyy5tub.s 			page 3


  95              		.thumb
  96              		.thumb_func
  98              	NOS_WS2812B_Matrix_SetPixel:
  99              	.LVL4:
 100              	.LFB132:
  25:Core/Src/NOS_LIB_Driver/Src/WS2812B.c **** 
  26:Core/Src/NOS_LIB_Driver/Src/WS2812B.c **** void NOS_WS2812B_Matrix_SetPixel(WS2812B_Matrix *matrix, PixelColor *color, uint16_t pixelPos)
  27:Core/Src/NOS_LIB_Driver/Src/WS2812B.c **** {
 101              		.loc 1 27 1 is_stmt 1 view -0
 102              		.cfi_startproc
 103              		@ args = 0, pretend = 0, frame = 0
 104              		@ frame_needed = 0, uses_anonymous_args = 0
 105              		@ link register save eliminated.
 106              		.loc 1 27 1 is_stmt 0 view .LVU23
 107 0000 10B4     		push	{r4}
 108              		.cfi_def_cfa_offset 4
 109              		.cfi_offset 4, -4
  28:Core/Src/NOS_LIB_Driver/Src/WS2812B.c ****     matrix->buffer[pixelPos * 3] = color->R;
 110              		.loc 1 28 5 is_stmt 1 view .LVU24
 111              		.loc 1 28 11 is_stmt 0 view .LVU25
 112 0002 0368     		ldr	r3, [r0]
 113              		.loc 1 28 29 view .LVU26
 114 0004 02EB4202 		add	r2, r2, r2, lsl #1
 115              	.LVL5:
 116              		.loc 1 28 41 view .LVU27
 117 0008 91F800C0 		ldrb	ip, [r1]	@ zero_extendqisi2
 118              		.loc 1 28 34 view .LVU28
 119 000c 03F802C0 		strb	ip, [r3, r2]
  29:Core/Src/NOS_LIB_Driver/Src/WS2812B.c ****     matrix->buffer[pixelPos * 3 + 1] = color->G;
 120              		.loc 1 29 5 is_stmt 1 view .LVU29
 121              		.loc 1 29 19 is_stmt 0 view .LVU30
 122 0010 531C     		adds	r3, r2, #1
 123              		.loc 1 29 45 view .LVU31
 124 0012 91F801C0 		ldrb	ip, [r1, #1]	@ zero_extendqisi2
 125              		.loc 1 29 38 view .LVU32
 126 0016 0468     		ldr	r4, [r0]
 127 0018 04F803C0 		strb	ip, [r4, r3]
  30:Core/Src/NOS_LIB_Driver/Src/WS2812B.c ****     matrix->buffer[pixelPos * 3 + 2] = color->B;
 128              		.loc 1 30 5 is_stmt 1 view .LVU33
 129              		.loc 1 30 11 is_stmt 0 view .LVU34
 130 001c 0368     		ldr	r3, [r0]
 131              		.loc 1 30 19 view .LVU35
 132 001e 0232     		adds	r2, r2, #2
 133              		.loc 1 30 45 view .LVU36
 134 0020 8978     		ldrb	r1, [r1, #2]	@ zero_extendqisi2
 135              	.LVL6:
 136              		.loc 1 30 38 view .LVU37
 137 0022 9954     		strb	r1, [r3, r2]
  31:Core/Src/NOS_LIB_Driver/Src/WS2812B.c **** }
 138              		.loc 1 31 1 view .LVU38
 139 0024 5DF8044B 		ldr	r4, [sp], #4
 140              		.cfi_restore 4
 141              		.cfi_def_cfa_offset 0
 142 0028 7047     		bx	lr
 143              		.cfi_endproc
 144              	.LFE132:
 146              		.section	.text.GetPixelPos,"ax",%progbits
ARM GAS  C:\Users\igorn\AppData\Local\Temp\ccyy5tub.s 			page 4


 147              		.align	1
 148              		.global	GetPixelPos
 149              		.syntax unified
 150              		.thumb
 151              		.thumb_func
 153              	GetPixelPos:
 154              	.LVL7:
 155              	.LFB133:
  32:Core/Src/NOS_LIB_Driver/Src/WS2812B.c **** 
  33:Core/Src/NOS_LIB_Driver/Src/WS2812B.c **** uint16_t GetPixelPos(uint8_t x, uint8_t y)
  34:Core/Src/NOS_LIB_Driver/Src/WS2812B.c **** {
 156              		.loc 1 34 1 is_stmt 1 view -0
 157              		.cfi_startproc
 158              		@ args = 0, pretend = 0, frame = 0
 159              		@ frame_needed = 0, uses_anonymous_args = 0
 160              		@ link register save eliminated.
  35:Core/Src/NOS_LIB_Driver/Src/WS2812B.c ****     if (x % 2 == 0)
 161              		.loc 1 35 5 view .LVU40
 162              		.loc 1 35 8 is_stmt 0 view .LVU41
 163 0000 10F0010F 		tst	r0, #1
 164 0004 02D1     		bne	.L6
  36:Core/Src/NOS_LIB_Driver/Src/WS2812B.c ****     {
  37:Core/Src/NOS_LIB_Driver/Src/WS2812B.c ****         return (x * 8) + y;
 165              		.loc 1 37 9 is_stmt 1 view .LVU42
 166              		.loc 1 37 24 is_stmt 0 view .LVU43
 167 0006 01EBC000 		add	r0, r1, r0, lsl #3
 168              	.LVL8:
 169              		.loc 1 37 24 view .LVU44
 170 000a 7047     		bx	lr
 171              	.LVL9:
 172              	.L6:
  38:Core/Src/NOS_LIB_Driver/Src/WS2812B.c ****     }
  39:Core/Src/NOS_LIB_Driver/Src/WS2812B.c ****     else
  40:Core/Src/NOS_LIB_Driver/Src/WS2812B.c ****     {
  41:Core/Src/NOS_LIB_Driver/Src/WS2812B.c ****         return (x * 8) + (8 - y);
 173              		.loc 1 41 9 is_stmt 1 view .LVU45
 174              		.loc 1 41 24 is_stmt 0 view .LVU46
 175 000c C1EBC000 		rsb	r0, r1, r0, lsl #3
 176              	.LVL10:
 177              		.loc 1 41 24 view .LVU47
 178 0010 0830     		adds	r0, r0, #8
 179 0012 80B2     		uxth	r0, r0
  42:Core/Src/NOS_LIB_Driver/Src/WS2812B.c ****     }
  43:Core/Src/NOS_LIB_Driver/Src/WS2812B.c **** }
 180              		.loc 1 43 1 view .LVU48
 181 0014 7047     		bx	lr
 182              		.cfi_endproc
 183              	.LFE133:
 185              		.section	.text.NOS_WS2812B_SetPixelColor,"ax",%progbits
 186              		.align	1
 187              		.global	NOS_WS2812B_SetPixelColor
 188              		.syntax unified
 189              		.thumb
 190              		.thumb_func
 192              	NOS_WS2812B_SetPixelColor:
 193              	.LVL11:
 194              	.LFB142:
ARM GAS  C:\Users\igorn\AppData\Local\Temp\ccyy5tub.s 			page 5


  44:Core/Src/NOS_LIB_Driver/Src/WS2812B.c **** 
  45:Core/Src/NOS_LIB_Driver/Src/WS2812B.c **** void NOS_WS2812B_Matrix_Update(WS2812B_Matrix *matrix, uint16_t offset, uint32_t counter)
  46:Core/Src/NOS_LIB_Driver/Src/WS2812B.c **** {
  47:Core/Src/NOS_LIB_Driver/Src/WS2812B.c ****     uint16_t currColumn = offset;
  48:Core/Src/NOS_LIB_Driver/Src/WS2812B.c ****     uint8_t symvolCount = matrix->size->col / 6;
  49:Core/Src/NOS_LIB_Driver/Src/WS2812B.c ****     uint8_t colls = matrix->size->col;
  50:Core/Src/NOS_LIB_Driver/Src/WS2812B.c **** 
  51:Core/Src/NOS_LIB_Driver/Src/WS2812B.c ****     for (int currSymvol = 0; currSymvol < symvolCount; currSymvol++)
  52:Core/Src/NOS_LIB_Driver/Src/WS2812B.c ****     {
  53:Core/Src/NOS_LIB_Driver/Src/WS2812B.c ****         NOS_WS2812B_Matrix_PrintSymvol(matrix, currSymvol, currColumn, colls, counter);
  54:Core/Src/NOS_LIB_Driver/Src/WS2812B.c ****         currColumn += 6;
  55:Core/Src/NOS_LIB_Driver/Src/WS2812B.c ****         counter += matrix->bright / 4;
  56:Core/Src/NOS_LIB_Driver/Src/WS2812B.c ****     }
  57:Core/Src/NOS_LIB_Driver/Src/WS2812B.c **** }
  58:Core/Src/NOS_LIB_Driver/Src/WS2812B.c **** 
  59:Core/Src/NOS_LIB_Driver/Src/WS2812B.c **** void NOS_WS2812B_Matrix_PrintSymvol(WS2812B_Matrix *matrix, uint8_t currSymvol, uint8_t currColumn,
  60:Core/Src/NOS_LIB_Driver/Src/WS2812B.c **** {
  61:Core/Src/NOS_LIB_Driver/Src/WS2812B.c ****     uint8_t currByte = 0;
  62:Core/Src/NOS_LIB_Driver/Src/WS2812B.c ****     bool bit = false;
  63:Core/Src/NOS_LIB_Driver/Src/WS2812B.c ****     uint8_t currX = 0;
  64:Core/Src/NOS_LIB_Driver/Src/WS2812B.c **** 
  65:Core/Src/NOS_LIB_Driver/Src/WS2812B.c ****     for (int Column = 0; Column < 5; Column++)
  66:Core/Src/NOS_LIB_Driver/Src/WS2812B.c ****     {
  67:Core/Src/NOS_LIB_Driver/Src/WS2812B.c ****         currByte = matrix->symvols[currSymvol].data[Column];
  68:Core/Src/NOS_LIB_Driver/Src/WS2812B.c ****         NOS_WS2812B_EffectRainbow(matrix, counter);
  69:Core/Src/NOS_LIB_Driver/Src/WS2812B.c **** 
  70:Core/Src/NOS_LIB_Driver/Src/WS2812B.c ****         if (currColumn % 2 == 0)
  71:Core/Src/NOS_LIB_Driver/Src/WS2812B.c ****         {
  72:Core/Src/NOS_LIB_Driver/Src/WS2812B.c ****             currX = 0;
  73:Core/Src/NOS_LIB_Driver/Src/WS2812B.c ****         }
  74:Core/Src/NOS_LIB_Driver/Src/WS2812B.c ****         else
  75:Core/Src/NOS_LIB_Driver/Src/WS2812B.c ****         {
  76:Core/Src/NOS_LIB_Driver/Src/WS2812B.c ****             currX = 1;
  77:Core/Src/NOS_LIB_Driver/Src/WS2812B.c ****         }
  78:Core/Src/NOS_LIB_Driver/Src/WS2812B.c **** 
  79:Core/Src/NOS_LIB_Driver/Src/WS2812B.c ****         for (int currBit = 0; currBit < 8; currBit++)
  80:Core/Src/NOS_LIB_Driver/Src/WS2812B.c ****         {
  81:Core/Src/NOS_LIB_Driver/Src/WS2812B.c ****             bit = ((1 << currBit) & currByte);
  82:Core/Src/NOS_LIB_Driver/Src/WS2812B.c ****             if (bit)
  83:Core/Src/NOS_LIB_Driver/Src/WS2812B.c ****             {
  84:Core/Src/NOS_LIB_Driver/Src/WS2812B.c ****                 NOS_WS2812B_Matrix_SetPixel(matrix, matrix->textColor, GetPixelPos(NOS_Math_Normali
  85:Core/Src/NOS_LIB_Driver/Src/WS2812B.c ****             }
  86:Core/Src/NOS_LIB_Driver/Src/WS2812B.c ****             else
  87:Core/Src/NOS_LIB_Driver/Src/WS2812B.c ****             {
  88:Core/Src/NOS_LIB_Driver/Src/WS2812B.c ****                 NOS_WS2812B_Matrix_SetPixel(matrix, matrix->foneColor, GetPixelPos(NOS_Math_Normali
  89:Core/Src/NOS_LIB_Driver/Src/WS2812B.c ****             }
  90:Core/Src/NOS_LIB_Driver/Src/WS2812B.c ****             currX++;
  91:Core/Src/NOS_LIB_Driver/Src/WS2812B.c ****         }
  92:Core/Src/NOS_LIB_Driver/Src/WS2812B.c ****         currColumn++;
  93:Core/Src/NOS_LIB_Driver/Src/WS2812B.c ****     }
  94:Core/Src/NOS_LIB_Driver/Src/WS2812B.c ****     for (int i = 1; i < 9; i++)
  95:Core/Src/NOS_LIB_Driver/Src/WS2812B.c ****     {
  96:Core/Src/NOS_LIB_Driver/Src/WS2812B.c ****         NOS_WS2812B_Matrix_SetPixel(matrix, matrix->foneColor, GetPixelPos(NOS_Math_NormalizeValue(
  97:Core/Src/NOS_LIB_Driver/Src/WS2812B.c ****     }
  98:Core/Src/NOS_LIB_Driver/Src/WS2812B.c ****     currColumn++;
  99:Core/Src/NOS_LIB_Driver/Src/WS2812B.c **** }
 100:Core/Src/NOS_LIB_Driver/Src/WS2812B.c **** 
ARM GAS  C:\Users\igorn\AppData\Local\Temp\ccyy5tub.s 			page 6


 101:Core/Src/NOS_LIB_Driver/Src/WS2812B.c **** void NOS_WS2812B_Matrix_SetSymvol(WS2812B_Matrix *matrix, char sym, uint8_t pos)
 102:Core/Src/NOS_LIB_Driver/Src/WS2812B.c **** {
 103:Core/Src/NOS_LIB_Driver/Src/WS2812B.c ****     uint8_t *buff = Symvol_GetBitMap(sym);
 104:Core/Src/NOS_LIB_Driver/Src/WS2812B.c ****     for (int i = 0; i < 5; i++)
 105:Core/Src/NOS_LIB_Driver/Src/WS2812B.c ****     {
 106:Core/Src/NOS_LIB_Driver/Src/WS2812B.c ****         matrix->symvols[pos].data[i] = buff[i];
 107:Core/Src/NOS_LIB_Driver/Src/WS2812B.c ****     }
 108:Core/Src/NOS_LIB_Driver/Src/WS2812B.c **** }
 109:Core/Src/NOS_LIB_Driver/Src/WS2812B.c **** 
 110:Core/Src/NOS_LIB_Driver/Src/WS2812B.c **** void NOS_WS2812B_Matrix_PrintStaticString(WS2812B_Matrix *matrix, char *string, uint8_t startpos, u
 111:Core/Src/NOS_LIB_Driver/Src/WS2812B.c **** {
 112:Core/Src/NOS_LIB_Driver/Src/WS2812B.c ****     for (int i = startpos; i < startpos + lenght; i++)
 113:Core/Src/NOS_LIB_Driver/Src/WS2812B.c ****     {
 114:Core/Src/NOS_LIB_Driver/Src/WS2812B.c ****         NOS_WS2812B_Matrix_SetSymvol(matrix, string[i - startpos], i);
 115:Core/Src/NOS_LIB_Driver/Src/WS2812B.c ****     }
 116:Core/Src/NOS_LIB_Driver/Src/WS2812B.c **** }
 117:Core/Src/NOS_LIB_Driver/Src/WS2812B.c **** 
 118:Core/Src/NOS_LIB_Driver/Src/WS2812B.c **** void NOS_WS2812B_Matrix_PrintDynamicString(WS2812B_Matrix *matrix, char *string, uint8_t lenght, ui
 119:Core/Src/NOS_LIB_Driver/Src/WS2812B.c **** {
 120:Core/Src/NOS_LIB_Driver/Src/WS2812B.c **** 
 121:Core/Src/NOS_LIB_Driver/Src/WS2812B.c ****     for (int i = 0; i < lenght; i++)
 122:Core/Src/NOS_LIB_Driver/Src/WS2812B.c ****     {
 123:Core/Src/NOS_LIB_Driver/Src/WS2812B.c ****         NOS_WS2812B_Matrix_SetSymvol(matrix, string[i + symPosCounter], i);
 124:Core/Src/NOS_LIB_Driver/Src/WS2812B.c ****     }
 125:Core/Src/NOS_LIB_Driver/Src/WS2812B.c **** 
 126:Core/Src/NOS_LIB_Driver/Src/WS2812B.c ****     // NOS_WS2812B_Matrix_Update(matrix,counter,0);
 127:Core/Src/NOS_LIB_Driver/Src/WS2812B.c **** }
 128:Core/Src/NOS_LIB_Driver/Src/WS2812B.c **** 
 129:Core/Src/NOS_LIB_Driver/Src/WS2812B.c **** void NOS_WS2812B_Matrix_PrintIntNumber(WS2812B_Matrix *matrix, uint32_t num, uint8_t startpos, uint
 130:Core/Src/NOS_LIB_Driver/Src/WS2812B.c **** {
 131:Core/Src/NOS_LIB_Driver/Src/WS2812B.c **** 
 132:Core/Src/NOS_LIB_Driver/Src/WS2812B.c ****     int a = 0;
 133:Core/Src/NOS_LIB_Driver/Src/WS2812B.c ****     int power = NOS_Math_GetNumberPower(num);
 134:Core/Src/NOS_LIB_Driver/Src/WS2812B.c ****     char buff[16];
 135:Core/Src/NOS_LIB_Driver/Src/WS2812B.c **** 
 136:Core/Src/NOS_LIB_Driver/Src/WS2812B.c ****     for (int i = power - 1; i > 0; i--)
 137:Core/Src/NOS_LIB_Driver/Src/WS2812B.c ****     {
 138:Core/Src/NOS_LIB_Driver/Src/WS2812B.c ****         buff[a] = num / pow(10, i);
 139:Core/Src/NOS_LIB_Driver/Src/WS2812B.c ****         num = num - (buff[a] * pow(10, i));
 140:Core/Src/NOS_LIB_Driver/Src/WS2812B.c ****         a++;
 141:Core/Src/NOS_LIB_Driver/Src/WS2812B.c ****     }
 142:Core/Src/NOS_LIB_Driver/Src/WS2812B.c **** 
 143:Core/Src/NOS_LIB_Driver/Src/WS2812B.c ****     buff[a] = num % 10;
 144:Core/Src/NOS_LIB_Driver/Src/WS2812B.c **** 
 145:Core/Src/NOS_LIB_Driver/Src/WS2812B.c ****     for (int i = 0; i < a + 1; i++)
 146:Core/Src/NOS_LIB_Driver/Src/WS2812B.c ****     {
 147:Core/Src/NOS_LIB_Driver/Src/WS2812B.c ****         buff[i] += 48;
 148:Core/Src/NOS_LIB_Driver/Src/WS2812B.c ****         NOS_WS2812B_Matrix_SetSymvol(matrix, buff[i], i + startpos);
 149:Core/Src/NOS_LIB_Driver/Src/WS2812B.c ****     }
 150:Core/Src/NOS_LIB_Driver/Src/WS2812B.c **** }
 151:Core/Src/NOS_LIB_Driver/Src/WS2812B.c **** 
 152:Core/Src/NOS_LIB_Driver/Src/WS2812B.c **** void NOS_WS2812B_Matrix_PrintFloatNumber(WS2812B_Matrix *matrix, float num, uint8_t startpos)
 153:Core/Src/NOS_LIB_Driver/Src/WS2812B.c **** {
 154:Core/Src/NOS_LIB_Driver/Src/WS2812B.c ****     if (num > 0.0f)
 155:Core/Src/NOS_LIB_Driver/Src/WS2812B.c ****     {
 156:Core/Src/NOS_LIB_Driver/Src/WS2812B.c ****         int before = num;
 157:Core/Src/NOS_LIB_Driver/Src/WS2812B.c ****         float after = num - (float)before;
ARM GAS  C:\Users\igorn\AppData\Local\Temp\ccyy5tub.s 			page 7


 158:Core/Src/NOS_LIB_Driver/Src/WS2812B.c ****         int af = after * 100;
 159:Core/Src/NOS_LIB_Driver/Src/WS2812B.c ****         int pow = NOS_Math_GetNumberPower(before);
 160:Core/Src/NOS_LIB_Driver/Src/WS2812B.c ****         NOS_WS2812B_Matrix_PrintIntNumber(matrix, before, startpos, pow);
 161:Core/Src/NOS_LIB_Driver/Src/WS2812B.c ****         NOS_WS2812B_Matrix_PrintStaticString(matrix, ".", startpos + pow, 1);
 162:Core/Src/NOS_LIB_Driver/Src/WS2812B.c ****         NOS_WS2812B_Matrix_PrintIntNumber(matrix, af, startpos + pow + 1, 2);
 163:Core/Src/NOS_LIB_Driver/Src/WS2812B.c ****     }
 164:Core/Src/NOS_LIB_Driver/Src/WS2812B.c **** }
 165:Core/Src/NOS_LIB_Driver/Src/WS2812B.c **** 
 166:Core/Src/NOS_LIB_Driver/Src/WS2812B.c **** void NOS_WS2812B_Matrix_PrintRealTime(WS2812B_Matrix *matrix, RealTime rt)
 167:Core/Src/NOS_LIB_Driver/Src/WS2812B.c **** {
 168:Core/Src/NOS_LIB_Driver/Src/WS2812B.c ****     int startpos = 0;
 169:Core/Src/NOS_LIB_Driver/Src/WS2812B.c ****     if (rt.format == Hour24)
 170:Core/Src/NOS_LIB_Driver/Src/WS2812B.c ****     {
 171:Core/Src/NOS_LIB_Driver/Src/WS2812B.c ****         startpos = 1;
 172:Core/Src/NOS_LIB_Driver/Src/WS2812B.c ****     }
 173:Core/Src/NOS_LIB_Driver/Src/WS2812B.c **** 
 174:Core/Src/NOS_LIB_Driver/Src/WS2812B.c ****     if (rt.format == Hour12)
 175:Core/Src/NOS_LIB_Driver/Src/WS2812B.c ****     {
 176:Core/Src/NOS_LIB_Driver/Src/WS2812B.c ****         if (rt.hour > 12)
 177:Core/Src/NOS_LIB_Driver/Src/WS2812B.c ****         {
 178:Core/Src/NOS_LIB_Driver/Src/WS2812B.c ****             NOS_WS2812B_Matrix_SetSymvol(matrix, (char)(rt.hour - 12) / 10 + 48, startpos);
 179:Core/Src/NOS_LIB_Driver/Src/WS2812B.c ****             NOS_WS2812B_Matrix_SetSymvol(matrix, (char)(rt.hour - 12) % 10 + 48, startpos + 1);
 180:Core/Src/NOS_LIB_Driver/Src/WS2812B.c ****             NOS_WS2812B_Matrix_SetSymvol(matrix, 'P', startpos + 8);
 181:Core/Src/NOS_LIB_Driver/Src/WS2812B.c ****             NOS_WS2812B_Matrix_SetSymvol(matrix, 'M', startpos + 9);
 182:Core/Src/NOS_LIB_Driver/Src/WS2812B.c ****         }
 183:Core/Src/NOS_LIB_Driver/Src/WS2812B.c ****         else
 184:Core/Src/NOS_LIB_Driver/Src/WS2812B.c ****         {
 185:Core/Src/NOS_LIB_Driver/Src/WS2812B.c ****             NOS_WS2812B_Matrix_SetSymvol(matrix, (char)(rt.hour) / 10 + 48, startpos);
 186:Core/Src/NOS_LIB_Driver/Src/WS2812B.c ****             NOS_WS2812B_Matrix_SetSymvol(matrix, (char)(rt.hour) % 10 + 48, startpos + 1);
 187:Core/Src/NOS_LIB_Driver/Src/WS2812B.c ****             NOS_WS2812B_Matrix_SetSymvol(matrix, 'A', startpos + 8);
 188:Core/Src/NOS_LIB_Driver/Src/WS2812B.c ****             NOS_WS2812B_Matrix_SetSymvol(matrix, 'M', startpos + 9);
 189:Core/Src/NOS_LIB_Driver/Src/WS2812B.c ****         }
 190:Core/Src/NOS_LIB_Driver/Src/WS2812B.c ****     }
 191:Core/Src/NOS_LIB_Driver/Src/WS2812B.c ****     else
 192:Core/Src/NOS_LIB_Driver/Src/WS2812B.c ****     {
 193:Core/Src/NOS_LIB_Driver/Src/WS2812B.c ****         NOS_WS2812B_Matrix_SetSymvol(matrix, (char)(rt.hour) / 10 + 48, startpos);
 194:Core/Src/NOS_LIB_Driver/Src/WS2812B.c ****         NOS_WS2812B_Matrix_SetSymvol(matrix, (char)(rt.hour) % 10 + 48, startpos + 1);
 195:Core/Src/NOS_LIB_Driver/Src/WS2812B.c ****         NOS_WS2812B_Matrix_SetSymvol(matrix, ' ', startpos + 8);
 196:Core/Src/NOS_LIB_Driver/Src/WS2812B.c ****     }
 197:Core/Src/NOS_LIB_Driver/Src/WS2812B.c **** 
 198:Core/Src/NOS_LIB_Driver/Src/WS2812B.c ****     NOS_WS2812B_Matrix_SetSymvol(matrix, (char)(rt.min / 10) + 48, startpos + 3);
 199:Core/Src/NOS_LIB_Driver/Src/WS2812B.c ****     NOS_WS2812B_Matrix_SetSymvol(matrix, (char)(rt.min % 10) + 48, startpos + 4);
 200:Core/Src/NOS_LIB_Driver/Src/WS2812B.c **** 
 201:Core/Src/NOS_LIB_Driver/Src/WS2812B.c ****     NOS_WS2812B_Matrix_SetSymvol(matrix, (char)rt.sec / 10 + 48, startpos + 6);
 202:Core/Src/NOS_LIB_Driver/Src/WS2812B.c ****     NOS_WS2812B_Matrix_SetSymvol(matrix, (char)rt.sec % 10 + 48, startpos + 7);
 203:Core/Src/NOS_LIB_Driver/Src/WS2812B.c **** 
 204:Core/Src/NOS_LIB_Driver/Src/WS2812B.c ****     if (rt.sec % 2 == 0)
 205:Core/Src/NOS_LIB_Driver/Src/WS2812B.c ****     {
 206:Core/Src/NOS_LIB_Driver/Src/WS2812B.c ****         NOS_WS2812B_Matrix_SetSymvol(matrix, ':', startpos + 2);
 207:Core/Src/NOS_LIB_Driver/Src/WS2812B.c ****         NOS_WS2812B_Matrix_SetSymvol(matrix, ':', startpos + 5);
 208:Core/Src/NOS_LIB_Driver/Src/WS2812B.c ****     }
 209:Core/Src/NOS_LIB_Driver/Src/WS2812B.c ****     else
 210:Core/Src/NOS_LIB_Driver/Src/WS2812B.c ****     {
 211:Core/Src/NOS_LIB_Driver/Src/WS2812B.c ****         NOS_WS2812B_Matrix_SetSymvol(matrix, ' ', startpos + 2);
 212:Core/Src/NOS_LIB_Driver/Src/WS2812B.c ****         NOS_WS2812B_Matrix_SetSymvol(matrix, ' ', startpos + 5);
 213:Core/Src/NOS_LIB_Driver/Src/WS2812B.c ****     }
 214:Core/Src/NOS_LIB_Driver/Src/WS2812B.c **** }
ARM GAS  C:\Users\igorn\AppData\Local\Temp\ccyy5tub.s 			page 8


 215:Core/Src/NOS_LIB_Driver/Src/WS2812B.c **** 
 216:Core/Src/NOS_LIB_Driver/Src/WS2812B.c **** void NOS_WS2812B_SetPixelColor(PixelColor *color, uint8_t R, uint8_t G, uint8_t B)
 217:Core/Src/NOS_LIB_Driver/Src/WS2812B.c **** {
 195              		.loc 1 217 1 is_stmt 1 view -0
 196              		.cfi_startproc
 197              		@ args = 0, pretend = 0, frame = 0
 198              		@ frame_needed = 0, uses_anonymous_args = 0
 199              		@ link register save eliminated.
 218:Core/Src/NOS_LIB_Driver/Src/WS2812B.c ****     color->R = R;
 200              		.loc 1 218 5 view .LVU50
 201              		.loc 1 218 14 is_stmt 0 view .LVU51
 202 0000 0170     		strb	r1, [r0]
 219:Core/Src/NOS_LIB_Driver/Src/WS2812B.c ****     color->G = G;
 203              		.loc 1 219 5 is_stmt 1 view .LVU52
 204              		.loc 1 219 14 is_stmt 0 view .LVU53
 205 0002 4270     		strb	r2, [r0, #1]
 220:Core/Src/NOS_LIB_Driver/Src/WS2812B.c ****     color->B = B;
 206              		.loc 1 220 5 is_stmt 1 view .LVU54
 207              		.loc 1 220 14 is_stmt 0 view .LVU55
 208 0004 8370     		strb	r3, [r0, #2]
 221:Core/Src/NOS_LIB_Driver/Src/WS2812B.c **** }
 209              		.loc 1 221 1 view .LVU56
 210 0006 7047     		bx	lr
 211              		.cfi_endproc
 212              	.LFE142:
 214              		.section	.text.NOS_WS2812B_EffectRainbow,"ax",%progbits
 215              		.align	1
 216              		.global	NOS_WS2812B_EffectRainbow
 217              		.syntax unified
 218              		.thumb
 219              		.thumb_func
 221              	NOS_WS2812B_EffectRainbow:
 222              	.LVL12:
 223              	.LFB143:
 222:Core/Src/NOS_LIB_Driver/Src/WS2812B.c **** 
 223:Core/Src/NOS_LIB_Driver/Src/WS2812B.c **** void NOS_WS2812B_EffectRainbow(WS2812B_Matrix *matrix, uint32_t counter)
 224:Core/Src/NOS_LIB_Driver/Src/WS2812B.c **** {
 224              		.loc 1 224 1 is_stmt 1 view -0
 225              		.cfi_startproc
 226              		@ args = 0, pretend = 0, frame = 0
 227              		@ frame_needed = 0, uses_anonymous_args = 0
 228              		.loc 1 224 1 is_stmt 0 view .LVU58
 229 0000 38B5     		push	{r3, r4, r5, lr}
 230              		.cfi_def_cfa_offset 16
 231              		.cfi_offset 3, -16
 232              		.cfi_offset 4, -12
 233              		.cfi_offset 5, -8
 234              		.cfi_offset 14, -4
 235 0002 0546     		mov	r5, r0
 225:Core/Src/NOS_LIB_Driver/Src/WS2812B.c ****     if (counter > 0 && counter <= matrix->bright)
 236              		.loc 1 225 5 is_stmt 1 view .LVU59
 237              		.loc 1 225 8 is_stmt 0 view .LVU60
 238 0004 0C46     		mov	r4, r1
 239 0006 41B1     		cbz	r1, .L10
 240              		.loc 1 225 41 discriminator 1 view .LVU61
 241 0008 0379     		ldrb	r3, [r0, #4]	@ zero_extendqisi2
 242              		.loc 1 225 21 discriminator 1 view .LVU62
ARM GAS  C:\Users\igorn\AppData\Local\Temp\ccyy5tub.s 			page 9


 243 000a 8B42     		cmp	r3, r1
 244 000c 3DD2     		bcs	.L19
 245              	.LVL13:
 246              	.L11:
 226:Core/Src/NOS_LIB_Driver/Src/WS2812B.c ****     {
 227:Core/Src/NOS_LIB_Driver/Src/WS2812B.c ****         NOS_WS2812B_SetPixelColor(matrix->textColor, 0, counter, matrix->bright);
 228:Core/Src/NOS_LIB_Driver/Src/WS2812B.c ****     }
 229:Core/Src/NOS_LIB_Driver/Src/WS2812B.c **** 
 230:Core/Src/NOS_LIB_Driver/Src/WS2812B.c ****     if (counter > matrix->bright && counter <= matrix->bright * 2)
 247              		.loc 1 230 5 is_stmt 1 view .LVU63
 248              		.loc 1 230 25 is_stmt 0 view .LVU64
 249 000e 2A79     		ldrb	r2, [r5, #4]	@ zero_extendqisi2
 250              		.loc 1 230 8 view .LVU65
 251 0010 A242     		cmp	r2, r4
 252 0012 02D2     		bcs	.L10
 253              		.loc 1 230 34 discriminator 1 view .LVU66
 254 0014 B4EB420F 		cmp	r4, r2, lsl #1
 255 0018 3DD9     		bls	.L20
 256              	.L10:
 231:Core/Src/NOS_LIB_Driver/Src/WS2812B.c ****     {
 232:Core/Src/NOS_LIB_Driver/Src/WS2812B.c ****         counter = counter - matrix->bright;
 233:Core/Src/NOS_LIB_Driver/Src/WS2812B.c ****         NOS_WS2812B_SetPixelColor(matrix->textColor, 0, matrix->bright, matrix->bright - counter);
 234:Core/Src/NOS_LIB_Driver/Src/WS2812B.c ****     }
 235:Core/Src/NOS_LIB_Driver/Src/WS2812B.c **** 
 236:Core/Src/NOS_LIB_Driver/Src/WS2812B.c ****     if (counter > matrix->bright * 2 && counter <= matrix->bright * 3)
 257              		.loc 1 236 5 is_stmt 1 view .LVU67
 258              		.loc 1 236 25 is_stmt 0 view .LVU68
 259 001a 2A79     		ldrb	r2, [r5, #4]	@ zero_extendqisi2
 260              		.loc 1 236 34 view .LVU69
 261 001c 5300     		lsls	r3, r2, #1
 262              		.loc 1 236 8 view .LVU70
 263 001e B4EB420F 		cmp	r4, r2, lsl #1
 264 0022 03D9     		bls	.L12
 265              		.loc 1 236 67 discriminator 1 view .LVU71
 266 0024 02EB4201 		add	r1, r2, r2, lsl #1
 267              		.loc 1 236 38 discriminator 1 view .LVU72
 268 0028 A142     		cmp	r1, r4
 269 002a 3CD2     		bcs	.L21
 270              	.L12:
 237:Core/Src/NOS_LIB_Driver/Src/WS2812B.c ****     {
 238:Core/Src/NOS_LIB_Driver/Src/WS2812B.c ****         counter = counter - matrix->bright * 2;
 239:Core/Src/NOS_LIB_Driver/Src/WS2812B.c ****         NOS_WS2812B_SetPixelColor(matrix->textColor, counter, matrix->bright, 0);
 240:Core/Src/NOS_LIB_Driver/Src/WS2812B.c ****     }
 241:Core/Src/NOS_LIB_Driver/Src/WS2812B.c **** 
 242:Core/Src/NOS_LIB_Driver/Src/WS2812B.c ****     if (counter > matrix->bright * 3 && counter <= matrix->bright * 4)
 271              		.loc 1 242 5 is_stmt 1 view .LVU73
 272              		.loc 1 242 25 is_stmt 0 view .LVU74
 273 002c 2979     		ldrb	r1, [r5, #4]	@ zero_extendqisi2
 274              		.loc 1 242 34 view .LVU75
 275 002e 01EB4103 		add	r3, r1, r1, lsl #1
 276              		.loc 1 242 8 view .LVU76
 277 0032 A342     		cmp	r3, r4
 278 0034 02D2     		bcs	.L13
 279              		.loc 1 242 38 discriminator 1 view .LVU77
 280 0036 B4EB810F 		cmp	r4, r1, lsl #2
 281 003a 3BD9     		bls	.L22
 282              	.L13:
ARM GAS  C:\Users\igorn\AppData\Local\Temp\ccyy5tub.s 			page 10


 243:Core/Src/NOS_LIB_Driver/Src/WS2812B.c ****     {
 244:Core/Src/NOS_LIB_Driver/Src/WS2812B.c ****         counter = counter - matrix->bright * 3;
 245:Core/Src/NOS_LIB_Driver/Src/WS2812B.c ****         NOS_WS2812B_SetPixelColor(matrix->textColor, matrix->bright, matrix->bright - counter, 0);
 246:Core/Src/NOS_LIB_Driver/Src/WS2812B.c ****     }
 247:Core/Src/NOS_LIB_Driver/Src/WS2812B.c **** 
 248:Core/Src/NOS_LIB_Driver/Src/WS2812B.c ****     if (counter > matrix->bright * 4 && counter <= matrix->bright * 5)
 283              		.loc 1 248 5 is_stmt 1 view .LVU78
 284              		.loc 1 248 25 is_stmt 0 view .LVU79
 285 003c 2979     		ldrb	r1, [r5, #4]	@ zero_extendqisi2
 286              		.loc 1 248 34 view .LVU80
 287 003e 8B00     		lsls	r3, r1, #2
 288              		.loc 1 248 8 view .LVU81
 289 0040 B4EB810F 		cmp	r4, r1, lsl #2
 290 0044 03D9     		bls	.L14
 291              		.loc 1 248 67 discriminator 1 view .LVU82
 292 0046 01EB8102 		add	r2, r1, r1, lsl #2
 293              		.loc 1 248 38 discriminator 1 view .LVU83
 294 004a A242     		cmp	r2, r4
 295 004c 3AD2     		bcs	.L23
 296              	.L14:
 249:Core/Src/NOS_LIB_Driver/Src/WS2812B.c ****     {
 250:Core/Src/NOS_LIB_Driver/Src/WS2812B.c ****         counter = counter - matrix->bright * 4;
 251:Core/Src/NOS_LIB_Driver/Src/WS2812B.c ****         NOS_WS2812B_SetPixelColor(matrix->textColor, matrix->bright, counter, 0);
 252:Core/Src/NOS_LIB_Driver/Src/WS2812B.c ****     }
 253:Core/Src/NOS_LIB_Driver/Src/WS2812B.c **** 
 254:Core/Src/NOS_LIB_Driver/Src/WS2812B.c ****     if (counter > matrix->bright * 5 && counter <= matrix->bright * 6)
 297              		.loc 1 254 5 is_stmt 1 view .LVU84
 298              		.loc 1 254 25 is_stmt 0 view .LVU85
 299 004e 2A79     		ldrb	r2, [r5, #4]	@ zero_extendqisi2
 300              		.loc 1 254 34 view .LVU86
 301 0050 02EB8203 		add	r3, r2, r2, lsl #2
 302              		.loc 1 254 8 view .LVU87
 303 0054 A342     		cmp	r3, r4
 304 0056 04D2     		bcs	.L15
 305              		.loc 1 254 67 discriminator 1 view .LVU88
 306 0058 02EB4201 		add	r1, r2, r2, lsl #1
 307              		.loc 1 254 38 discriminator 1 view .LVU89
 308 005c B4EB410F 		cmp	r4, r1, lsl #1
 309 0060 37D9     		bls	.L24
 310              	.L15:
 255:Core/Src/NOS_LIB_Driver/Src/WS2812B.c ****     {
 256:Core/Src/NOS_LIB_Driver/Src/WS2812B.c ****         counter = counter - matrix->bright * 5;
 257:Core/Src/NOS_LIB_Driver/Src/WS2812B.c ****         NOS_WS2812B_SetPixelColor(matrix->textColor, matrix->bright - counter, matrix->bright, 0);
 258:Core/Src/NOS_LIB_Driver/Src/WS2812B.c ****     }
 259:Core/Src/NOS_LIB_Driver/Src/WS2812B.c **** 
 260:Core/Src/NOS_LIB_Driver/Src/WS2812B.c ****     if (counter > matrix->bright * 6 && counter <= matrix->bright * 7)
 311              		.loc 1 260 5 is_stmt 1 view .LVU90
 312              		.loc 1 260 25 is_stmt 0 view .LVU91
 313 0062 2A79     		ldrb	r2, [r5, #4]	@ zero_extendqisi2
 314              		.loc 1 260 34 view .LVU92
 315 0064 02EB4203 		add	r3, r2, r2, lsl #1
 316 0068 5900     		lsls	r1, r3, #1
 317              		.loc 1 260 8 view .LVU93
 318 006a B4EB430F 		cmp	r4, r3, lsl #1
 319 006e 03D9     		bls	.L16
 320              		.loc 1 260 67 discriminator 1 view .LVU94
 321 0070 C2EBC203 		rsb	r3, r2, r2, lsl #3
ARM GAS  C:\Users\igorn\AppData\Local\Temp\ccyy5tub.s 			page 11


 322              		.loc 1 260 38 discriminator 1 view .LVU95
 323 0074 A342     		cmp	r3, r4
 324 0076 34D2     		bcs	.L25
 325              	.L16:
 261:Core/Src/NOS_LIB_Driver/Src/WS2812B.c ****     {
 262:Core/Src/NOS_LIB_Driver/Src/WS2812B.c ****         counter = counter - matrix->bright * 6;
 263:Core/Src/NOS_LIB_Driver/Src/WS2812B.c ****         NOS_WS2812B_SetPixelColor(matrix->textColor, 0, matrix->bright, counter);
 264:Core/Src/NOS_LIB_Driver/Src/WS2812B.c ****     }
 265:Core/Src/NOS_LIB_Driver/Src/WS2812B.c **** 
 266:Core/Src/NOS_LIB_Driver/Src/WS2812B.c ****     if (counter > matrix->bright * 7 && counter <= matrix->bright * 8)
 326              		.loc 1 266 5 is_stmt 1 view .LVU96
 327              		.loc 1 266 25 is_stmt 0 view .LVU97
 328 0078 2B79     		ldrb	r3, [r5, #4]	@ zero_extendqisi2
 329              		.loc 1 266 34 view .LVU98
 330 007a C3EBC302 		rsb	r2, r3, r3, lsl #3
 331              		.loc 1 266 8 view .LVU99
 332 007e A242     		cmp	r2, r4
 333 0080 02D2     		bcs	.L9
 334              		.loc 1 266 38 discriminator 1 view .LVU100
 335 0082 B4EBC30F 		cmp	r4, r3, lsl #3
 336 0086 33D9     		bls	.L26
 337              	.LVL14:
 338              	.L9:
 267:Core/Src/NOS_LIB_Driver/Src/WS2812B.c ****     {
 268:Core/Src/NOS_LIB_Driver/Src/WS2812B.c ****         counter = counter - matrix->bright * 7;
 269:Core/Src/NOS_LIB_Driver/Src/WS2812B.c ****         NOS_WS2812B_SetPixelColor(matrix->textColor, 0, matrix->bright - counter, matrix->bright);
 270:Core/Src/NOS_LIB_Driver/Src/WS2812B.c ****     }
 271:Core/Src/NOS_LIB_Driver/Src/WS2812B.c **** }
 339              		.loc 1 271 1 view .LVU101
 340 0088 38BD     		pop	{r3, r4, r5, pc}
 341              	.LVL15:
 342              	.L19:
 227:Core/Src/NOS_LIB_Driver/Src/WS2812B.c ****     }
 343              		.loc 1 227 9 is_stmt 1 view .LVU102
 344 008a CAB2     		uxtb	r2, r1
 345 008c 0021     		movs	r1, #0
 346              	.LVL16:
 227:Core/Src/NOS_LIB_Driver/Src/WS2812B.c ****     }
 347              		.loc 1 227 9 is_stmt 0 view .LVU103
 348 008e C068     		ldr	r0, [r0, #12]
 349              	.LVL17:
 227:Core/Src/NOS_LIB_Driver/Src/WS2812B.c ****     }
 350              		.loc 1 227 9 view .LVU104
 351 0090 FFF7FEFF 		bl	NOS_WS2812B_SetPixelColor
 352              	.LVL18:
 353 0094 BBE7     		b	.L11
 354              	.L20:
 232:Core/Src/NOS_LIB_Driver/Src/WS2812B.c ****         NOS_WS2812B_SetPixelColor(matrix->textColor, 0, matrix->bright, matrix->bright - counter);
 355              		.loc 1 232 9 is_stmt 1 view .LVU105
 232:Core/Src/NOS_LIB_Driver/Src/WS2812B.c ****         NOS_WS2812B_SetPixelColor(matrix->textColor, 0, matrix->bright, matrix->bright - counter);
 356              		.loc 1 232 17 is_stmt 0 view .LVU106
 357 0096 A41A     		subs	r4, r4, r2
 358              	.LVL19:
 233:Core/Src/NOS_LIB_Driver/Src/WS2812B.c ****     }
 359              		.loc 1 233 9 is_stmt 1 view .LVU107
 360 0098 131B     		subs	r3, r2, r4
 361 009a DBB2     		uxtb	r3, r3
ARM GAS  C:\Users\igorn\AppData\Local\Temp\ccyy5tub.s 			page 12


 362 009c 0021     		movs	r1, #0
 363 009e E868     		ldr	r0, [r5, #12]
 364 00a0 FFF7FEFF 		bl	NOS_WS2812B_SetPixelColor
 365              	.LVL20:
 366 00a4 B9E7     		b	.L10
 367              	.L21:
 238:Core/Src/NOS_LIB_Driver/Src/WS2812B.c ****         NOS_WS2812B_SetPixelColor(matrix->textColor, counter, matrix->bright, 0);
 368              		.loc 1 238 9 view .LVU108
 238:Core/Src/NOS_LIB_Driver/Src/WS2812B.c ****         NOS_WS2812B_SetPixelColor(matrix->textColor, counter, matrix->bright, 0);
 369              		.loc 1 238 17 is_stmt 0 view .LVU109
 370 00a6 E41A     		subs	r4, r4, r3
 371              	.LVL21:
 239:Core/Src/NOS_LIB_Driver/Src/WS2812B.c ****     }
 372              		.loc 1 239 9 is_stmt 1 view .LVU110
 373 00a8 0023     		movs	r3, #0
 374 00aa E1B2     		uxtb	r1, r4
 375 00ac E868     		ldr	r0, [r5, #12]
 376 00ae FFF7FEFF 		bl	NOS_WS2812B_SetPixelColor
 377              	.LVL22:
 378 00b2 BBE7     		b	.L12
 379              	.L22:
 244:Core/Src/NOS_LIB_Driver/Src/WS2812B.c ****         NOS_WS2812B_SetPixelColor(matrix->textColor, matrix->bright, matrix->bright - counter, 0);
 380              		.loc 1 244 9 view .LVU111
 244:Core/Src/NOS_LIB_Driver/Src/WS2812B.c ****         NOS_WS2812B_SetPixelColor(matrix->textColor, matrix->bright, matrix->bright - counter, 0);
 381              		.loc 1 244 17 is_stmt 0 view .LVU112
 382 00b4 E41A     		subs	r4, r4, r3
 383              	.LVL23:
 245:Core/Src/NOS_LIB_Driver/Src/WS2812B.c ****     }
 384              		.loc 1 245 9 is_stmt 1 view .LVU113
 385 00b6 0A1B     		subs	r2, r1, r4
 386 00b8 0023     		movs	r3, #0
 387 00ba D2B2     		uxtb	r2, r2
 388 00bc E868     		ldr	r0, [r5, #12]
 389 00be FFF7FEFF 		bl	NOS_WS2812B_SetPixelColor
 390              	.LVL24:
 391 00c2 BBE7     		b	.L13
 392              	.L23:
 250:Core/Src/NOS_LIB_Driver/Src/WS2812B.c ****         NOS_WS2812B_SetPixelColor(matrix->textColor, matrix->bright, counter, 0);
 393              		.loc 1 250 9 view .LVU114
 250:Core/Src/NOS_LIB_Driver/Src/WS2812B.c ****         NOS_WS2812B_SetPixelColor(matrix->textColor, matrix->bright, counter, 0);
 394              		.loc 1 250 17 is_stmt 0 view .LVU115
 395 00c4 E41A     		subs	r4, r4, r3
 396              	.LVL25:
 251:Core/Src/NOS_LIB_Driver/Src/WS2812B.c ****     }
 397              		.loc 1 251 9 is_stmt 1 view .LVU116
 398 00c6 0023     		movs	r3, #0
 399 00c8 E2B2     		uxtb	r2, r4
 400 00ca E868     		ldr	r0, [r5, #12]
 401 00cc FFF7FEFF 		bl	NOS_WS2812B_SetPixelColor
 402              	.LVL26:
 403 00d0 BDE7     		b	.L14
 404              	.L24:
 256:Core/Src/NOS_LIB_Driver/Src/WS2812B.c ****         NOS_WS2812B_SetPixelColor(matrix->textColor, matrix->bright - counter, matrix->bright, 0);
 405              		.loc 1 256 9 view .LVU117
 256:Core/Src/NOS_LIB_Driver/Src/WS2812B.c ****         NOS_WS2812B_SetPixelColor(matrix->textColor, matrix->bright - counter, matrix->bright, 0);
 406              		.loc 1 256 17 is_stmt 0 view .LVU118
 407 00d2 E41A     		subs	r4, r4, r3
ARM GAS  C:\Users\igorn\AppData\Local\Temp\ccyy5tub.s 			page 13


 408              	.LVL27:
 257:Core/Src/NOS_LIB_Driver/Src/WS2812B.c ****     }
 409              		.loc 1 257 9 is_stmt 1 view .LVU119
 410 00d4 111B     		subs	r1, r2, r4
 411 00d6 0023     		movs	r3, #0
 412 00d8 C9B2     		uxtb	r1, r1
 413 00da E868     		ldr	r0, [r5, #12]
 414 00dc FFF7FEFF 		bl	NOS_WS2812B_SetPixelColor
 415              	.LVL28:
 416 00e0 BFE7     		b	.L15
 417              	.L25:
 262:Core/Src/NOS_LIB_Driver/Src/WS2812B.c ****         NOS_WS2812B_SetPixelColor(matrix->textColor, 0, matrix->bright, counter);
 418              		.loc 1 262 9 view .LVU120
 262:Core/Src/NOS_LIB_Driver/Src/WS2812B.c ****         NOS_WS2812B_SetPixelColor(matrix->textColor, 0, matrix->bright, counter);
 419              		.loc 1 262 17 is_stmt 0 view .LVU121
 420 00e2 641A     		subs	r4, r4, r1
 421              	.LVL29:
 263:Core/Src/NOS_LIB_Driver/Src/WS2812B.c ****     }
 422              		.loc 1 263 9 is_stmt 1 view .LVU122
 423 00e4 E3B2     		uxtb	r3, r4
 424 00e6 0021     		movs	r1, #0
 425 00e8 E868     		ldr	r0, [r5, #12]
 426 00ea FFF7FEFF 		bl	NOS_WS2812B_SetPixelColor
 427              	.LVL30:
 428 00ee C3E7     		b	.L16
 429              	.L26:
 268:Core/Src/NOS_LIB_Driver/Src/WS2812B.c ****         NOS_WS2812B_SetPixelColor(matrix->textColor, 0, matrix->bright - counter, matrix->bright);
 430              		.loc 1 268 9 view .LVU123
 268:Core/Src/NOS_LIB_Driver/Src/WS2812B.c ****         NOS_WS2812B_SetPixelColor(matrix->textColor, 0, matrix->bright - counter, matrix->bright);
 431              		.loc 1 268 17 is_stmt 0 view .LVU124
 432 00f0 A21A     		subs	r2, r4, r2
 433              	.LVL31:
 269:Core/Src/NOS_LIB_Driver/Src/WS2812B.c ****     }
 434              		.loc 1 269 9 is_stmt 1 view .LVU125
 435 00f2 9A1A     		subs	r2, r3, r2
 436              	.LVL32:
 269:Core/Src/NOS_LIB_Driver/Src/WS2812B.c ****     }
 437              		.loc 1 269 9 is_stmt 0 view .LVU126
 438 00f4 D2B2     		uxtb	r2, r2
 439 00f6 0021     		movs	r1, #0
 440 00f8 E868     		ldr	r0, [r5, #12]
 441 00fa FFF7FEFF 		bl	NOS_WS2812B_SetPixelColor
 442              	.LVL33:
 443              		.loc 1 271 1 view .LVU127
 444 00fe C3E7     		b	.L9
 445              		.cfi_endproc
 446              	.LFE143:
 448              		.section	.text.NOS_WS2812B_Matrix_PrintSymvol,"ax",%progbits
 449              		.align	1
 450              		.global	NOS_WS2812B_Matrix_PrintSymvol
 451              		.syntax unified
 452              		.thumb
 453              		.thumb_func
 455              	NOS_WS2812B_Matrix_PrintSymvol:
 456              	.LVL34:
 457              	.LFB135:
  60:Core/Src/NOS_LIB_Driver/Src/WS2812B.c ****     uint8_t currByte = 0;
ARM GAS  C:\Users\igorn\AppData\Local\Temp\ccyy5tub.s 			page 14


 458              		.loc 1 60 1 is_stmt 1 view -0
 459              		.cfi_startproc
 460              		@ args = 4, pretend = 0, frame = 8
 461              		@ frame_needed = 0, uses_anonymous_args = 0
  60:Core/Src/NOS_LIB_Driver/Src/WS2812B.c ****     uint8_t currByte = 0;
 462              		.loc 1 60 1 is_stmt 0 view .LVU129
 463 0000 2DE9F04F 		push	{r4, r5, r6, r7, r8, r9, r10, fp, lr}
 464              		.cfi_def_cfa_offset 36
 465              		.cfi_offset 4, -36
 466              		.cfi_offset 5, -32
 467              		.cfi_offset 6, -28
 468              		.cfi_offset 7, -24
 469              		.cfi_offset 8, -20
 470              		.cfi_offset 9, -16
 471              		.cfi_offset 10, -12
 472              		.cfi_offset 11, -8
 473              		.cfi_offset 14, -4
 474 0004 83B0     		sub	sp, sp, #12
 475              		.cfi_def_cfa_offset 48
 476 0006 0646     		mov	r6, r0
 477 0008 0191     		str	r1, [sp, #4]
 478 000a 1746     		mov	r7, r2
 479 000c 9846     		mov	r8, r3
  61:Core/Src/NOS_LIB_Driver/Src/WS2812B.c ****     bool bit = false;
 480              		.loc 1 61 5 is_stmt 1 view .LVU130
 481              	.LVL35:
  62:Core/Src/NOS_LIB_Driver/Src/WS2812B.c ****     uint8_t currX = 0;
 482              		.loc 1 62 5 view .LVU131
  63:Core/Src/NOS_LIB_Driver/Src/WS2812B.c **** 
 483              		.loc 1 63 5 view .LVU132
  65:Core/Src/NOS_LIB_Driver/Src/WS2812B.c ****     {
 484              		.loc 1 65 5 view .LVU133
 485              	.LBB2:
  65:Core/Src/NOS_LIB_Driver/Src/WS2812B.c ****     {
 486              		.loc 1 65 10 view .LVU134
  65:Core/Src/NOS_LIB_Driver/Src/WS2812B.c ****     {
 487              		.loc 1 65 14 is_stmt 0 view .LVU135
 488 000e 4FF0000B 		mov	fp, #0
  65:Core/Src/NOS_LIB_Driver/Src/WS2812B.c ****     {
 489              		.loc 1 65 5 view .LVU136
 490 0012 2CE0     		b	.L28
 491              	.LVL36:
 492              	.L31:
 493              	.LBB3:
  88:Core/Src/NOS_LIB_Driver/Src/WS2812B.c ****             }
 494              		.loc 1 88 17 is_stmt 1 view .LVU137
 495 0014 D6F810A0 		ldr	r10, [r6, #16]
  88:Core/Src/NOS_LIB_Driver/Src/WS2812B.c ****             }
 496              		.loc 1 88 84 is_stmt 0 view .LVU138
 497 0018 4146     		mov	r1, r8
 498 001a 3846     		mov	r0, r7
 499 001c FFF7FEFF 		bl	NOS_Math_NormalizeValue
 500              	.LVL37:
  88:Core/Src/NOS_LIB_Driver/Src/WS2812B.c ****             }
 501              		.loc 1 88 17 view .LVU139
 502 0020 2146     		mov	r1, r4
 503 0022 C0B2     		uxtb	r0, r0
ARM GAS  C:\Users\igorn\AppData\Local\Temp\ccyy5tub.s 			page 15


 504 0024 FFF7FEFF 		bl	GetPixelPos
 505              	.LVL38:
 506 0028 0246     		mov	r2, r0
 507 002a 5146     		mov	r1, r10
 508 002c 3046     		mov	r0, r6
 509 002e FFF7FEFF 		bl	NOS_WS2812B_Matrix_SetPixel
 510              	.LVL39:
 511              	.L32:
  90:Core/Src/NOS_LIB_Driver/Src/WS2812B.c ****         }
 512              		.loc 1 90 13 is_stmt 1 discriminator 2 view .LVU140
  90:Core/Src/NOS_LIB_Driver/Src/WS2812B.c ****         }
 513              		.loc 1 90 18 is_stmt 0 discriminator 2 view .LVU141
 514 0032 0134     		adds	r4, r4, #1
 515              	.LVL40:
  90:Core/Src/NOS_LIB_Driver/Src/WS2812B.c ****         }
 516              		.loc 1 90 18 discriminator 2 view .LVU142
 517 0034 E4B2     		uxtb	r4, r4
 518              	.LVL41:
  79:Core/Src/NOS_LIB_Driver/Src/WS2812B.c ****         {
 519              		.loc 1 79 51 is_stmt 1 discriminator 2 view .LVU143
 520 0036 0135     		adds	r5, r5, #1
 521              	.LVL42:
 522              	.L33:
  79:Core/Src/NOS_LIB_Driver/Src/WS2812B.c ****         {
 523              		.loc 1 79 39 discriminator 1 view .LVU144
 524 0038 072D     		cmp	r5, #7
 525 003a 14DC     		bgt	.L39
  81:Core/Src/NOS_LIB_Driver/Src/WS2812B.c ****             if (bit)
 526              		.loc 1 81 13 view .LVU145
  81:Core/Src/NOS_LIB_Driver/Src/WS2812B.c ****             if (bit)
 527              		.loc 1 81 23 is_stmt 0 view .LVU146
 528 003c 0123     		movs	r3, #1
 529 003e AB40     		lsls	r3, r3, r5
 530              	.LVL43:
  82:Core/Src/NOS_LIB_Driver/Src/WS2812B.c ****             {
 531              		.loc 1 82 13 is_stmt 1 view .LVU147
  82:Core/Src/NOS_LIB_Driver/Src/WS2812B.c ****             {
 532              		.loc 1 82 16 is_stmt 0 view .LVU148
 533 0040 19EA030F 		tst	r9, r3
 534 0044 E6D0     		beq	.L31
  84:Core/Src/NOS_LIB_Driver/Src/WS2812B.c ****             }
 535              		.loc 1 84 17 is_stmt 1 view .LVU149
 536 0046 D6F80CA0 		ldr	r10, [r6, #12]
  84:Core/Src/NOS_LIB_Driver/Src/WS2812B.c ****             }
 537              		.loc 1 84 84 is_stmt 0 view .LVU150
 538 004a 4146     		mov	r1, r8
 539 004c 3846     		mov	r0, r7
 540 004e FFF7FEFF 		bl	NOS_Math_NormalizeValue
 541              	.LVL44:
  84:Core/Src/NOS_LIB_Driver/Src/WS2812B.c ****             }
 542              		.loc 1 84 17 view .LVU151
 543 0052 2146     		mov	r1, r4
 544 0054 C0B2     		uxtb	r0, r0
 545 0056 FFF7FEFF 		bl	GetPixelPos
 546              	.LVL45:
 547 005a 0246     		mov	r2, r0
 548 005c 5146     		mov	r1, r10
ARM GAS  C:\Users\igorn\AppData\Local\Temp\ccyy5tub.s 			page 16


 549 005e 3046     		mov	r0, r6
 550 0060 FFF7FEFF 		bl	NOS_WS2812B_Matrix_SetPixel
 551              	.LVL46:
 552 0064 E5E7     		b	.L32
 553              	.LVL47:
 554              	.L39:
  84:Core/Src/NOS_LIB_Driver/Src/WS2812B.c ****             }
 555              		.loc 1 84 17 view .LVU152
 556              	.LBE3:
  92:Core/Src/NOS_LIB_Driver/Src/WS2812B.c ****     }
 557              		.loc 1 92 9 is_stmt 1 discriminator 2 view .LVU153
  92:Core/Src/NOS_LIB_Driver/Src/WS2812B.c ****     }
 558              		.loc 1 92 19 is_stmt 0 discriminator 2 view .LVU154
 559 0066 0137     		adds	r7, r7, #1
 560              	.LVL48:
  92:Core/Src/NOS_LIB_Driver/Src/WS2812B.c ****     }
 561              		.loc 1 92 19 discriminator 2 view .LVU155
 562 0068 FFB2     		uxtb	r7, r7
  65:Core/Src/NOS_LIB_Driver/Src/WS2812B.c ****     {
 563              		.loc 1 65 44 is_stmt 1 discriminator 2 view .LVU156
 564 006a 0BF1010B 		add	fp, fp, #1
 565              	.LVL49:
 566              	.L28:
  65:Core/Src/NOS_LIB_Driver/Src/WS2812B.c ****     {
 567              		.loc 1 65 33 discriminator 1 view .LVU157
 568 006e BBF1040F 		cmp	fp, #4
 569 0072 10DC     		bgt	.L40
  67:Core/Src/NOS_LIB_Driver/Src/WS2812B.c ****         NOS_WS2812B_EffectRainbow(matrix, counter);
 570              		.loc 1 67 9 view .LVU158
  67:Core/Src/NOS_LIB_Driver/Src/WS2812B.c ****         NOS_WS2812B_EffectRainbow(matrix, counter);
 571              		.loc 1 67 26 is_stmt 0 view .LVU159
 572 0074 7369     		ldr	r3, [r6, #20]
  67:Core/Src/NOS_LIB_Driver/Src/WS2812B.c ****         NOS_WS2812B_EffectRainbow(matrix, counter);
 573              		.loc 1 67 35 view .LVU160
 574 0076 019A     		ldr	r2, [sp, #4]
 575 0078 02EB8202 		add	r2, r2, r2, lsl #2
 576 007c 1344     		add	r3, r3, r2
  67:Core/Src/NOS_LIB_Driver/Src/WS2812B.c ****         NOS_WS2812B_EffectRainbow(matrix, counter);
 577              		.loc 1 67 18 view .LVU161
 578 007e 13F80B90 		ldrb	r9, [r3, fp]	@ zero_extendqisi2
 579              	.LVL50:
  68:Core/Src/NOS_LIB_Driver/Src/WS2812B.c **** 
 580              		.loc 1 68 9 is_stmt 1 view .LVU162
 581 0082 0C99     		ldr	r1, [sp, #48]
 582 0084 3046     		mov	r0, r6
 583 0086 FFF7FEFF 		bl	NOS_WS2812B_EffectRainbow
 584              	.LVL51:
  70:Core/Src/NOS_LIB_Driver/Src/WS2812B.c ****         {
 585              		.loc 1 70 9 view .LVU163
  70:Core/Src/NOS_LIB_Driver/Src/WS2812B.c ****         {
 586              		.loc 1 70 12 is_stmt 0 view .LVU164
 587 008a 17F00104 		ands	r4, r7, #1
 588 008e 00D0     		beq	.L30
  76:Core/Src/NOS_LIB_Driver/Src/WS2812B.c ****         }
 589              		.loc 1 76 19 view .LVU165
 590 0090 0124     		movs	r4, #1
 591              	.L30:
ARM GAS  C:\Users\igorn\AppData\Local\Temp\ccyy5tub.s 			page 17


  76:Core/Src/NOS_LIB_Driver/Src/WS2812B.c ****         }
 592              		.loc 1 76 19 discriminator 1 view .LVU166
 593 0092 0025     		movs	r5, #0
 594 0094 D0E7     		b	.L33
 595              	.LVL52:
 596              	.L40:
  76:Core/Src/NOS_LIB_Driver/Src/WS2812B.c ****         }
 597              		.loc 1 76 19 discriminator 1 view .LVU167
 598              	.LBE2:
 599              	.LBB4:
  94:Core/Src/NOS_LIB_Driver/Src/WS2812B.c ****     {
 600              		.loc 1 94 14 view .LVU168
 601 0096 0124     		movs	r4, #1
 602 0098 0EE0     		b	.L36
 603              	.LVL53:
 604              	.L37:
  96:Core/Src/NOS_LIB_Driver/Src/WS2812B.c ****     }
 605              		.loc 1 96 9 is_stmt 1 discriminator 3 view .LVU169
 606 009a 3569     		ldr	r5, [r6, #16]
  96:Core/Src/NOS_LIB_Driver/Src/WS2812B.c ****     }
 607              		.loc 1 96 76 is_stmt 0 discriminator 3 view .LVU170
 608 009c 4146     		mov	r1, r8
 609 009e 3846     		mov	r0, r7
 610 00a0 FFF7FEFF 		bl	NOS_Math_NormalizeValue
 611              	.LVL54:
  96:Core/Src/NOS_LIB_Driver/Src/WS2812B.c ****     }
 612              		.loc 1 96 9 discriminator 3 view .LVU171
 613 00a4 E1B2     		uxtb	r1, r4
 614 00a6 C0B2     		uxtb	r0, r0
 615 00a8 FFF7FEFF 		bl	GetPixelPos
 616              	.LVL55:
 617 00ac 0246     		mov	r2, r0
 618 00ae 2946     		mov	r1, r5
 619 00b0 3046     		mov	r0, r6
 620 00b2 FFF7FEFF 		bl	NOS_WS2812B_Matrix_SetPixel
 621              	.LVL56:
  94:Core/Src/NOS_LIB_Driver/Src/WS2812B.c ****     {
 622              		.loc 1 94 29 is_stmt 1 discriminator 3 view .LVU172
 623 00b6 0134     		adds	r4, r4, #1
 624              	.LVL57:
 625              	.L36:
  94:Core/Src/NOS_LIB_Driver/Src/WS2812B.c ****     {
 626              		.loc 1 94 23 discriminator 1 view .LVU173
 627 00b8 082C     		cmp	r4, #8
 628 00ba EEDD     		ble	.L37
 629              	.LBE4:
  99:Core/Src/NOS_LIB_Driver/Src/WS2812B.c **** 
 630              		.loc 1 99 1 is_stmt 0 view .LVU174
 631 00bc 03B0     		add	sp, sp, #12
 632              		.cfi_def_cfa_offset 36
 633              		@ sp needed
 634 00be BDE8F08F 		pop	{r4, r5, r6, r7, r8, r9, r10, fp, pc}
  99:Core/Src/NOS_LIB_Driver/Src/WS2812B.c **** 
 635              		.loc 1 99 1 view .LVU175
 636              		.cfi_endproc
 637              	.LFE135:
 639              		.section	.text.NOS_WS2812B_Matrix_Update,"ax",%progbits
ARM GAS  C:\Users\igorn\AppData\Local\Temp\ccyy5tub.s 			page 18


 640              		.align	1
 641              		.global	NOS_WS2812B_Matrix_Update
 642              		.syntax unified
 643              		.thumb
 644              		.thumb_func
 646              	NOS_WS2812B_Matrix_Update:
 647              	.LVL58:
 648              	.LFB134:
  46:Core/Src/NOS_LIB_Driver/Src/WS2812B.c ****     uint16_t currColumn = offset;
 649              		.loc 1 46 1 is_stmt 1 view -0
 650              		.cfi_startproc
 651              		@ args = 0, pretend = 0, frame = 0
 652              		@ frame_needed = 0, uses_anonymous_args = 0
  46:Core/Src/NOS_LIB_Driver/Src/WS2812B.c ****     uint16_t currColumn = offset;
 653              		.loc 1 46 1 is_stmt 0 view .LVU177
 654 0000 2DE9F043 		push	{r4, r5, r6, r7, r8, r9, lr}
 655              		.cfi_def_cfa_offset 28
 656              		.cfi_offset 4, -28
 657              		.cfi_offset 5, -24
 658              		.cfi_offset 6, -20
 659              		.cfi_offset 7, -16
 660              		.cfi_offset 8, -12
 661              		.cfi_offset 9, -8
 662              		.cfi_offset 14, -4
 663 0004 83B0     		sub	sp, sp, #12
 664              		.cfi_def_cfa_offset 40
 665 0006 0746     		mov	r7, r0
 666 0008 0C46     		mov	r4, r1
 667 000a 1646     		mov	r6, r2
  47:Core/Src/NOS_LIB_Driver/Src/WS2812B.c ****     uint8_t symvolCount = matrix->size->col / 6;
 668              		.loc 1 47 5 is_stmt 1 view .LVU178
 669              	.LVL59:
  48:Core/Src/NOS_LIB_Driver/Src/WS2812B.c ****     uint8_t colls = matrix->size->col;
 670              		.loc 1 48 5 view .LVU179
  48:Core/Src/NOS_LIB_Driver/Src/WS2812B.c ****     uint8_t colls = matrix->size->col;
 671              		.loc 1 48 33 is_stmt 0 view .LVU180
 672 000c 8368     		ldr	r3, [r0, #8]
  48:Core/Src/NOS_LIB_Driver/Src/WS2812B.c ****     uint8_t colls = matrix->size->col;
 673              		.loc 1 48 39 view .LVU181
 674 000e 93F80090 		ldrb	r9, [r3]	@ zero_extendqisi2
  48:Core/Src/NOS_LIB_Driver/Src/WS2812B.c ****     uint8_t colls = matrix->size->col;
 675              		.loc 1 48 13 view .LVU182
 676 0012 0C4B     		ldr	r3, .L45
 677 0014 A3FB0938 		umull	r3, r8, r3, r9
 678 0018 4FEA9808 		lsr	r8, r8, #2
 679              	.LVL60:
  49:Core/Src/NOS_LIB_Driver/Src/WS2812B.c **** 
 680              		.loc 1 49 5 is_stmt 1 view .LVU183
  51:Core/Src/NOS_LIB_Driver/Src/WS2812B.c ****     {
 681              		.loc 1 51 5 view .LVU184
 682              	.LBB5:
  51:Core/Src/NOS_LIB_Driver/Src/WS2812B.c ****     {
 683              		.loc 1 51 10 view .LVU185
  51:Core/Src/NOS_LIB_Driver/Src/WS2812B.c ****     {
 684              		.loc 1 51 14 is_stmt 0 view .LVU186
 685 001c 0025     		movs	r5, #0
  51:Core/Src/NOS_LIB_Driver/Src/WS2812B.c ****     {
ARM GAS  C:\Users\igorn\AppData\Local\Temp\ccyy5tub.s 			page 19


 686              		.loc 1 51 5 view .LVU187
 687 001e 0CE0     		b	.L42
 688              	.LVL61:
 689              	.L43:
  53:Core/Src/NOS_LIB_Driver/Src/WS2812B.c ****         currColumn += 6;
 690              		.loc 1 53 9 is_stmt 1 discriminator 3 view .LVU188
 691 0020 0096     		str	r6, [sp]
 692 0022 4B46     		mov	r3, r9
 693 0024 E2B2     		uxtb	r2, r4
 694 0026 E9B2     		uxtb	r1, r5
 695 0028 3846     		mov	r0, r7
 696 002a FFF7FEFF 		bl	NOS_WS2812B_Matrix_PrintSymvol
 697              	.LVL62:
  54:Core/Src/NOS_LIB_Driver/Src/WS2812B.c ****         counter += matrix->bright / 4;
 698              		.loc 1 54 9 discriminator 3 view .LVU189
  54:Core/Src/NOS_LIB_Driver/Src/WS2812B.c ****         counter += matrix->bright / 4;
 699              		.loc 1 54 20 is_stmt 0 discriminator 3 view .LVU190
 700 002e 0634     		adds	r4, r4, #6
 701              	.LVL63:
  54:Core/Src/NOS_LIB_Driver/Src/WS2812B.c ****         counter += matrix->bright / 4;
 702              		.loc 1 54 20 discriminator 3 view .LVU191
 703 0030 A4B2     		uxth	r4, r4
 704              	.LVL64:
  55:Core/Src/NOS_LIB_Driver/Src/WS2812B.c ****     }
 705              		.loc 1 55 9 is_stmt 1 discriminator 3 view .LVU192
  55:Core/Src/NOS_LIB_Driver/Src/WS2812B.c ****     }
 706              		.loc 1 55 26 is_stmt 0 discriminator 3 view .LVU193
 707 0032 3B79     		ldrb	r3, [r7, #4]	@ zero_extendqisi2
  55:Core/Src/NOS_LIB_Driver/Src/WS2812B.c ****     }
 708              		.loc 1 55 17 discriminator 3 view .LVU194
 709 0034 06EB9306 		add	r6, r6, r3, lsr #2
 710              	.LVL65:
  51:Core/Src/NOS_LIB_Driver/Src/WS2812B.c ****     {
 711              		.loc 1 51 66 is_stmt 1 discriminator 3 view .LVU195
 712 0038 0135     		adds	r5, r5, #1
 713              	.LVL66:
 714              	.L42:
  51:Core/Src/NOS_LIB_Driver/Src/WS2812B.c ****     {
 715              		.loc 1 51 41 discriminator 1 view .LVU196
 716 003a A845     		cmp	r8, r5
 717 003c F0DC     		bgt	.L43
  51:Core/Src/NOS_LIB_Driver/Src/WS2812B.c ****     {
 718              		.loc 1 51 41 is_stmt 0 discriminator 1 view .LVU197
 719              	.LBE5:
  57:Core/Src/NOS_LIB_Driver/Src/WS2812B.c **** 
 720              		.loc 1 57 1 view .LVU198
 721 003e 03B0     		add	sp, sp, #12
 722              		.cfi_def_cfa_offset 28
 723              		@ sp needed
 724 0040 BDE8F083 		pop	{r4, r5, r6, r7, r8, r9, pc}
 725              	.LVL67:
 726              	.L46:
  57:Core/Src/NOS_LIB_Driver/Src/WS2812B.c **** 
 727              		.loc 1 57 1 view .LVU199
 728              		.align	2
 729              	.L45:
 730 0044 ABAAAAAA 		.word	-1431655765
ARM GAS  C:\Users\igorn\AppData\Local\Temp\ccyy5tub.s 			page 20


 731              		.cfi_endproc
 732              	.LFE134:
 734              		.section	.text.NOS_WS2812B_Matrix_Clear,"ax",%progbits
 735              		.align	1
 736              		.global	NOS_WS2812B_Matrix_Clear
 737              		.syntax unified
 738              		.thumb
 739              		.thumb_func
 741              	NOS_WS2812B_Matrix_Clear:
 742              	.LVL68:
 743              	.LFB146:
 272:Core/Src/NOS_LIB_Driver/Src/WS2812B.c **** 
 273:Core/Src/NOS_LIB_Driver/Src/WS2812B.c **** void NOS_WS2812B_Matrix_PrintTemperature(WS2812B_Matrix *matrix, int16_t temperature)
 274:Core/Src/NOS_LIB_Driver/Src/WS2812B.c **** {
 275:Core/Src/NOS_LIB_Driver/Src/WS2812B.c ****     if (temperature > 0)
 276:Core/Src/NOS_LIB_Driver/Src/WS2812B.c ****     {
 277:Core/Src/NOS_LIB_Driver/Src/WS2812B.c ****         NOS_WS2812B_Matrix_SetSymvol(matrix, '+', 0);
 278:Core/Src/NOS_LIB_Driver/Src/WS2812B.c ****     }
 279:Core/Src/NOS_LIB_Driver/Src/WS2812B.c ****     else
 280:Core/Src/NOS_LIB_Driver/Src/WS2812B.c ****     {
 281:Core/Src/NOS_LIB_Driver/Src/WS2812B.c ****         NOS_WS2812B_Matrix_SetSymvol(matrix, '-', 0);
 282:Core/Src/NOS_LIB_Driver/Src/WS2812B.c ****     }
 283:Core/Src/NOS_LIB_Driver/Src/WS2812B.c **** 
 284:Core/Src/NOS_LIB_Driver/Src/WS2812B.c ****     NOS_WS2812B_Matrix_SetSymvol(matrix, '*', 3);
 285:Core/Src/NOS_LIB_Driver/Src/WS2812B.c ****     NOS_WS2812B_Matrix_SetSymvol(matrix, 'C', 4);
 286:Core/Src/NOS_LIB_Driver/Src/WS2812B.c **** 
 287:Core/Src/NOS_LIB_Driver/Src/WS2812B.c ****     uint8_t counter = 0;
 288:Core/Src/NOS_LIB_Driver/Src/WS2812B.c ****     if (temperature < 0)
 289:Core/Src/NOS_LIB_Driver/Src/WS2812B.c ****     {
 290:Core/Src/NOS_LIB_Driver/Src/WS2812B.c ****         while (temperature < 0)
 291:Core/Src/NOS_LIB_Driver/Src/WS2812B.c ****         {
 292:Core/Src/NOS_LIB_Driver/Src/WS2812B.c ****             temperature++;
 293:Core/Src/NOS_LIB_Driver/Src/WS2812B.c ****             counter++;
 294:Core/Src/NOS_LIB_Driver/Src/WS2812B.c ****         }
 295:Core/Src/NOS_LIB_Driver/Src/WS2812B.c ****     }
 296:Core/Src/NOS_LIB_Driver/Src/WS2812B.c ****     else
 297:Core/Src/NOS_LIB_Driver/Src/WS2812B.c ****     {
 298:Core/Src/NOS_LIB_Driver/Src/WS2812B.c ****         counter = (uint8_t)temperature;
 299:Core/Src/NOS_LIB_Driver/Src/WS2812B.c ****     }
 300:Core/Src/NOS_LIB_Driver/Src/WS2812B.c **** 
 301:Core/Src/NOS_LIB_Driver/Src/WS2812B.c ****     NOS_WS2812B_Matrix_PrintIntNumber(matrix, (uint32_t)counter, 1, 2);
 302:Core/Src/NOS_LIB_Driver/Src/WS2812B.c **** }
 303:Core/Src/NOS_LIB_Driver/Src/WS2812B.c **** 
 304:Core/Src/NOS_LIB_Driver/Src/WS2812B.c **** void NOS_WS2812B_Matrix_PrintDetectorValue(WS2812B_Matrix *matrix, URE_Detector *detector, Language
 305:Core/Src/NOS_LIB_Driver/Src/WS2812B.c **** {
 306:Core/Src/NOS_LIB_Driver/Src/WS2812B.c ****     if (detector->value.data < 10.0f)
 307:Core/Src/NOS_LIB_Driver/Src/WS2812B.c ****     {
 308:Core/Src/NOS_LIB_Driver/Src/WS2812B.c ****         NOS_WS2812B_Matrix_SetSymvol(matrix, ' ', 1);
 309:Core/Src/NOS_LIB_Driver/Src/WS2812B.c ****         NOS_WS2812B_Matrix_PrintFloatNumber(matrix, detector->value.data, 2);
 310:Core/Src/NOS_LIB_Driver/Src/WS2812B.c ****     }
 311:Core/Src/NOS_LIB_Driver/Src/WS2812B.c ****     else
 312:Core/Src/NOS_LIB_Driver/Src/WS2812B.c ****     {
 313:Core/Src/NOS_LIB_Driver/Src/WS2812B.c ****         NOS_WS2812B_Matrix_PrintFloatNumber(matrix, detector->value.data, 1);
 314:Core/Src/NOS_LIB_Driver/Src/WS2812B.c ****     }
 315:Core/Src/NOS_LIB_Driver/Src/WS2812B.c **** 
 316:Core/Src/NOS_LIB_Driver/Src/WS2812B.c ****     switch (language)
 317:Core/Src/NOS_LIB_Driver/Src/WS2812B.c ****     {
ARM GAS  C:\Users\igorn\AppData\Local\Temp\ccyy5tub.s 			page 21


 318:Core/Src/NOS_LIB_Driver/Src/WS2812B.c ****     case English:
 319:Core/Src/NOS_LIB_Driver/Src/WS2812B.c ****         NOS_WS2812B_Matrix_PrintStaticString(matrix, "uSv/Hour", 7, 8);
 320:Core/Src/NOS_LIB_Driver/Src/WS2812B.c ****         break;
 321:Core/Src/NOS_LIB_Driver/Src/WS2812B.c ****     case Ukrainian:
 322:Core/Src/NOS_LIB_Driver/Src/WS2812B.c ****         NOS_WS2812B_Matrix_PrintStaticString(matrix, "mk3B/god", 7, 8);
 323:Core/Src/NOS_LIB_Driver/Src/WS2812B.c ****         break;
 324:Core/Src/NOS_LIB_Driver/Src/WS2812B.c **** 
 325:Core/Src/NOS_LIB_Driver/Src/WS2812B.c ****     default:
 326:Core/Src/NOS_LIB_Driver/Src/WS2812B.c ****         break;
 327:Core/Src/NOS_LIB_Driver/Src/WS2812B.c ****     }
 328:Core/Src/NOS_LIB_Driver/Src/WS2812B.c **** 
 329:Core/Src/NOS_LIB_Driver/Src/WS2812B.c ****     if (detector->value.data >= detector->first_danger.data && detector->value.data < detector->sec
 330:Core/Src/NOS_LIB_Driver/Src/WS2812B.c ****     {
 331:Core/Src/NOS_LIB_Driver/Src/WS2812B.c ****         matrix->textColor = yellow;
 332:Core/Src/NOS_LIB_Driver/Src/WS2812B.c ****     }
 333:Core/Src/NOS_LIB_Driver/Src/WS2812B.c ****     else if (detector->value.data >= detector->second_danger.data)
 334:Core/Src/NOS_LIB_Driver/Src/WS2812B.c ****     {
 335:Core/Src/NOS_LIB_Driver/Src/WS2812B.c ****         matrix->textColor = red;
 336:Core/Src/NOS_LIB_Driver/Src/WS2812B.c ****     }
 337:Core/Src/NOS_LIB_Driver/Src/WS2812B.c ****     else
 338:Core/Src/NOS_LIB_Driver/Src/WS2812B.c ****     {
 339:Core/Src/NOS_LIB_Driver/Src/WS2812B.c ****         matrix->textColor = green;
 340:Core/Src/NOS_LIB_Driver/Src/WS2812B.c ****     }
 341:Core/Src/NOS_LIB_Driver/Src/WS2812B.c **** }
 342:Core/Src/NOS_LIB_Driver/Src/WS2812B.c **** 
 343:Core/Src/NOS_LIB_Driver/Src/WS2812B.c **** void NOS_WS2812B_Matrix_Clear(WS2812B_Matrix *matrix)
 344:Core/Src/NOS_LIB_Driver/Src/WS2812B.c **** {
 744              		.loc 1 344 1 is_stmt 1 view -0
 745              		.cfi_startproc
 746              		@ args = 0, pretend = 0, frame = 0
 747              		@ frame_needed = 0, uses_anonymous_args = 0
 748              		@ link register save eliminated.
 345:Core/Src/NOS_LIB_Driver/Src/WS2812B.c ****     for (int i = 0; i < matrix->size->col * matrix->size->row * 3; i++)
 749              		.loc 1 345 5 view .LVU201
 750              	.LBB6:
 751              		.loc 1 345 10 view .LVU202
 752              		.loc 1 345 14 is_stmt 0 view .LVU203
 753 0000 0022     		movs	r2, #0
 754              		.loc 1 345 5 view .LVU204
 755 0002 03E0     		b	.L48
 756              	.LVL69:
 757              	.L49:
 346:Core/Src/NOS_LIB_Driver/Src/WS2812B.c ****     {
 347:Core/Src/NOS_LIB_Driver/Src/WS2812B.c ****         matrix->buffer[i] = 0;
 758              		.loc 1 347 9 is_stmt 1 discriminator 3 view .LVU205
 759              		.loc 1 347 15 is_stmt 0 discriminator 3 view .LVU206
 760 0004 0368     		ldr	r3, [r0]
 761              		.loc 1 347 27 discriminator 3 view .LVU207
 762 0006 0021     		movs	r1, #0
 763 0008 9954     		strb	r1, [r3, r2]
 345:Core/Src/NOS_LIB_Driver/Src/WS2812B.c ****     for (int i = 0; i < matrix->size->col * matrix->size->row * 3; i++)
 764              		.loc 1 345 69 is_stmt 1 discriminator 3 view .LVU208
 765 000a 0132     		adds	r2, r2, #1
 766              	.LVL70:
 767              	.L48:
 345:Core/Src/NOS_LIB_Driver/Src/WS2812B.c ****     for (int i = 0; i < matrix->size->col * matrix->size->row * 3; i++)
 768              		.loc 1 345 23 discriminator 1 view .LVU209
ARM GAS  C:\Users\igorn\AppData\Local\Temp\ccyy5tub.s 			page 22


 345:Core/Src/NOS_LIB_Driver/Src/WS2812B.c ****     for (int i = 0; i < matrix->size->col * matrix->size->row * 3; i++)
 769              		.loc 1 345 31 is_stmt 0 discriminator 1 view .LVU210
 770 000c 8168     		ldr	r1, [r0, #8]
 345:Core/Src/NOS_LIB_Driver/Src/WS2812B.c ****     for (int i = 0; i < matrix->size->col * matrix->size->row * 3; i++)
 771              		.loc 1 345 37 discriminator 1 view .LVU211
 772 000e 0B78     		ldrb	r3, [r1]	@ zero_extendqisi2
 345:Core/Src/NOS_LIB_Driver/Src/WS2812B.c ****     for (int i = 0; i < matrix->size->col * matrix->size->row * 3; i++)
 773              		.loc 1 345 57 discriminator 1 view .LVU212
 774 0010 4978     		ldrb	r1, [r1, #1]	@ zero_extendqisi2
 345:Core/Src/NOS_LIB_Driver/Src/WS2812B.c ****     for (int i = 0; i < matrix->size->col * matrix->size->row * 3; i++)
 775              		.loc 1 345 43 discriminator 1 view .LVU213
 776 0012 01FB03F3 		mul	r3, r1, r3
 345:Core/Src/NOS_LIB_Driver/Src/WS2812B.c ****     for (int i = 0; i < matrix->size->col * matrix->size->row * 3; i++)
 777              		.loc 1 345 63 discriminator 1 view .LVU214
 778 0016 03EB4303 		add	r3, r3, r3, lsl #1
 345:Core/Src/NOS_LIB_Driver/Src/WS2812B.c ****     for (int i = 0; i < matrix->size->col * matrix->size->row * 3; i++)
 779              		.loc 1 345 23 discriminator 1 view .LVU215
 780 001a 9342     		cmp	r3, r2
 781 001c F2DC     		bgt	.L49
 782              	.LBE6:
 348:Core/Src/NOS_LIB_Driver/Src/WS2812B.c ****     }
 349:Core/Src/NOS_LIB_Driver/Src/WS2812B.c **** }
 783              		.loc 1 349 1 view .LVU216
 784 001e 7047     		bx	lr
 785              		.cfi_endproc
 786              	.LFE146:
 788              		.section	.text.Test_GetPixelPos,"ax",%progbits
 789              		.align	1
 790              		.global	Test_GetPixelPos
 791              		.syntax unified
 792              		.thumb
 793              		.thumb_func
 795              	Test_GetPixelPos:
 796              	.LVL71:
 797              	.LFB148:
 350:Core/Src/NOS_LIB_Driver/Src/WS2812B.c **** 
 351:Core/Src/NOS_LIB_Driver/Src/WS2812B.c **** void NOS_WS2812B_Matrix_FillColor(WS2812B_Matrix *matrix, PixelColor *color)
 352:Core/Src/NOS_LIB_Driver/Src/WS2812B.c **** {
 353:Core/Src/NOS_LIB_Driver/Src/WS2812B.c ****     uint8_t symvolCount = matrix->size->col / 6;
 354:Core/Src/NOS_LIB_Driver/Src/WS2812B.c ****     for (int i = 0; i < symvolCount; i++)
 355:Core/Src/NOS_LIB_Driver/Src/WS2812B.c ****     {
 356:Core/Src/NOS_LIB_Driver/Src/WS2812B.c ****         NOS_WS2812B_Matrix_SetSymvol(matrix, '{', i);
 357:Core/Src/NOS_LIB_Driver/Src/WS2812B.c ****     }
 358:Core/Src/NOS_LIB_Driver/Src/WS2812B.c ****     matrix->textColor = color;
 359:Core/Src/NOS_LIB_Driver/Src/WS2812B.c **** }
 360:Core/Src/NOS_LIB_Driver/Src/WS2812B.c **** 
 361:Core/Src/NOS_LIB_Driver/Src/WS2812B.c **** 
 362:Core/Src/NOS_LIB_Driver/Src/WS2812B.c **** uint16_t Test_GetPixelPos(uint8_t x, uint8_t y)
 363:Core/Src/NOS_LIB_Driver/Src/WS2812B.c **** {
 798              		.loc 1 363 1 is_stmt 1 view -0
 799              		.cfi_startproc
 800              		@ args = 0, pretend = 0, frame = 0
 801              		@ frame_needed = 0, uses_anonymous_args = 0
 802              		@ link register save eliminated.
 364:Core/Src/NOS_LIB_Driver/Src/WS2812B.c ****     uint16_t result = 0;
 803              		.loc 1 364 5 view .LVU218
 365:Core/Src/NOS_LIB_Driver/Src/WS2812B.c **** 
ARM GAS  C:\Users\igorn\AppData\Local\Temp\ccyy5tub.s 			page 23


 366:Core/Src/NOS_LIB_Driver/Src/WS2812B.c ****     x--;
 804              		.loc 1 366 5 view .LVU219
 805              		.loc 1 366 6 is_stmt 0 view .LVU220
 806 0000 0138     		subs	r0, r0, #1
 807              	.LVL72:
 808              		.loc 1 366 6 view .LVU221
 809 0002 C3B2     		uxtb	r3, r0
 810              	.LVL73:
 367:Core/Src/NOS_LIB_Driver/Src/WS2812B.c ****     y--;
 811              		.loc 1 367 5 is_stmt 1 view .LVU222
 812              		.loc 1 367 6 is_stmt 0 view .LVU223
 813 0004 0139     		subs	r1, r1, #1
 814              	.LVL74:
 815              		.loc 1 367 6 view .LVU224
 816 0006 C9B2     		uxtb	r1, r1
 817              	.LVL75:
 368:Core/Src/NOS_LIB_Driver/Src/WS2812B.c **** 
 369:Core/Src/NOS_LIB_Driver/Src/WS2812B.c ****     if (x >= 0 && y >= 0)
 818              		.loc 1 369 5 is_stmt 1 view .LVU225
 370:Core/Src/NOS_LIB_Driver/Src/WS2812B.c ****     {
 371:Core/Src/NOS_LIB_Driver/Src/WS2812B.c **** 
 372:Core/Src/NOS_LIB_Driver/Src/WS2812B.c ****         if (x % 2 == 0)
 819              		.loc 1 372 9 view .LVU226
 820              		.loc 1 372 12 is_stmt 0 view .LVU227
 821 0008 10F0010F 		tst	r0, #1
 822 000c 02D1     		bne	.L51
 373:Core/Src/NOS_LIB_Driver/Src/WS2812B.c ****         {
 374:Core/Src/NOS_LIB_Driver/Src/WS2812B.c ****             result = (x * 8) + y;
 823              		.loc 1 374 13 is_stmt 1 view .LVU228
 824              		.loc 1 374 20 is_stmt 0 view .LVU229
 825 000e 01EBC300 		add	r0, r1, r3, lsl #3
 826              	.LVL76:
 827              		.loc 1 374 20 view .LVU230
 828 0012 7047     		bx	lr
 829              	.LVL77:
 830              	.L51:
 375:Core/Src/NOS_LIB_Driver/Src/WS2812B.c ****         }
 376:Core/Src/NOS_LIB_Driver/Src/WS2812B.c ****         else
 377:Core/Src/NOS_LIB_Driver/Src/WS2812B.c ****         {
 378:Core/Src/NOS_LIB_Driver/Src/WS2812B.c ****             result = (x * 8) + (8 - y) - 1;
 831              		.loc 1 378 13 is_stmt 1 view .LVU231
 832              		.loc 1 378 30 is_stmt 0 view .LVU232
 833 0014 C1EBC300 		rsb	r0, r1, r3, lsl #3
 834 0018 80B2     		uxth	r0, r0
 835              		.loc 1 378 20 view .LVU233
 836 001a 0730     		adds	r0, r0, #7
 837 001c 80B2     		uxth	r0, r0
 838              	.LVL78:
 379:Core/Src/NOS_LIB_Driver/Src/WS2812B.c ****         }
 380:Core/Src/NOS_LIB_Driver/Src/WS2812B.c ****     }
 381:Core/Src/NOS_LIB_Driver/Src/WS2812B.c ****     return result;
 839              		.loc 1 381 5 is_stmt 1 view .LVU234
 382:Core/Src/NOS_LIB_Driver/Src/WS2812B.c **** }
 840              		.loc 1 382 1 is_stmt 0 view .LVU235
 841 001e 7047     		bx	lr
 842              		.cfi_endproc
 843              	.LFE148:
ARM GAS  C:\Users\igorn\AppData\Local\Temp\ccyy5tub.s 			page 24


 845              		.section	.rodata.Symvol_GetBitMap.str1.4,"aMS",%progbits,1
 846              		.align	2
 847              	.LC0:
 848 0000 52757300 		.ascii	"Rus\000"
 849              		.section	.text.Symvol_GetBitMap,"ax",%progbits
 850              		.align	1
 851              		.global	Symvol_GetBitMap
 852              		.syntax unified
 853              		.thumb
 854              		.thumb_func
 856              	Symvol_GetBitMap:
 857              	.LVL79:
 858              	.LFB149:
 383:Core/Src/NOS_LIB_Driver/Src/WS2812B.c **** 
 384:Core/Src/NOS_LIB_Driver/Src/WS2812B.c **** uint8_t *Symvol_GetBitMap(char sym /*, uint8_t languageIdentificator*/)
 385:Core/Src/NOS_LIB_Driver/Src/WS2812B.c **** {
 859              		.loc 1 385 1 is_stmt 1 view -0
 860              		.cfi_startproc
 861              		@ args = 0, pretend = 0, frame = 0
 862              		@ frame_needed = 0, uses_anonymous_args = 0
 863              		.loc 1 385 1 is_stmt 0 view .LVU237
 864 0000 10B5     		push	{r4, lr}
 865              		.cfi_def_cfa_offset 8
 866              		.cfi_offset 4, -8
 867              		.cfi_offset 14, -4
 868 0002 0446     		mov	r4, r0
 386:Core/Src/NOS_LIB_Driver/Src/WS2812B.c ****     setlocale(LC_ALL, "Rus");
 869              		.loc 1 386 5 is_stmt 1 view .LVU238
 870 0004 5449     		ldr	r1, .L113
 871 0006 0020     		movs	r0, #0
 872              	.LVL80:
 873              		.loc 1 386 5 is_stmt 0 view .LVU239
 874 0008 FFF7FEFF 		bl	setlocale
 875              	.LVL81:
 387:Core/Src/NOS_LIB_Driver/Src/WS2812B.c ****     switch (sym)
 876              		.loc 1 387 5 is_stmt 1 view .LVU240
 877 000c A4F12000 		sub	r0, r4, #32
 878 0010 5B28     		cmp	r0, #91
 879 0012 00F29C80 		bhi	.L54
 880 0016 DFE800F0 		tbb	[pc, r0]
 881              	.L56:
 882 001a 74       		.byte	(.L110-.L56)/2
 883 001b 84       		.byte	(.L109-.L56)/2
 884 001c 9A       		.byte	(.L54-.L56)/2
 885 001d 9A       		.byte	(.L54-.L56)/2
 886 001e 9A       		.byte	(.L54-.L56)/2
 887 001f 9A       		.byte	(.L54-.L56)/2
 888 0020 9A       		.byte	(.L54-.L56)/2
 889 0021 9A       		.byte	(.L54-.L56)/2
 890 0022 9A       		.byte	(.L54-.L56)/2
 891 0023 9A       		.byte	(.L54-.L56)/2
 892 0024 7C       		.byte	(.L108-.L56)/2
 893 0025 76       		.byte	(.L107-.L56)/2
 894 0026 9A       		.byte	(.L54-.L56)/2
 895 0027 78       		.byte	(.L106-.L56)/2
 896 0028 7E       		.byte	(.L105-.L56)/2
 897 0029 7A       		.byte	(.L104-.L56)/2
ARM GAS  C:\Users\igorn\AppData\Local\Temp\ccyy5tub.s 			page 25


 898 002a 86       		.byte	(.L103-.L56)/2
 899 002b 88       		.byte	(.L102-.L56)/2
 900 002c 8A       		.byte	(.L101-.L56)/2
 901 002d 8C       		.byte	(.L100-.L56)/2
 902 002e 8E       		.byte	(.L99-.L56)/2
 903 002f 90       		.byte	(.L98-.L56)/2
 904 0030 92       		.byte	(.L97-.L56)/2
 905 0031 94       		.byte	(.L96-.L56)/2
 906 0032 96       		.byte	(.L95-.L56)/2
 907 0033 98       		.byte	(.L94-.L56)/2
 908 0034 80       		.byte	(.L93-.L56)/2
 909 0035 9A       		.byte	(.L54-.L56)/2
 910 0036 9A       		.byte	(.L54-.L56)/2
 911 0037 9A       		.byte	(.L54-.L56)/2
 912 0038 9A       		.byte	(.L54-.L56)/2
 913 0039 9A       		.byte	(.L54-.L56)/2
 914 003a 9A       		.byte	(.L54-.L56)/2
 915 003b 2E       		.byte	(.L92-.L56)/2
 916 003c 9C       		.byte	(.L111-.L56)/2
 917 003d 30       		.byte	(.L90-.L56)/2
 918 003e 32       		.byte	(.L89-.L56)/2
 919 003f 34       		.byte	(.L88-.L56)/2
 920 0040 36       		.byte	(.L87-.L56)/2
 921 0041 38       		.byte	(.L86-.L56)/2
 922 0042 3A       		.byte	(.L85-.L56)/2
 923 0043 3C       		.byte	(.L84-.L56)/2
 924 0044 3E       		.byte	(.L83-.L56)/2
 925 0045 40       		.byte	(.L82-.L56)/2
 926 0046 42       		.byte	(.L81-.L56)/2
 927 0047 44       		.byte	(.L80-.L56)/2
 928 0048 46       		.byte	(.L79-.L56)/2
 929 0049 48       		.byte	(.L78-.L56)/2
 930 004a 4A       		.byte	(.L77-.L56)/2
 931 004b 4C       		.byte	(.L76-.L56)/2
 932 004c 4E       		.byte	(.L75-.L56)/2
 933 004d 50       		.byte	(.L74-.L56)/2
 934 004e 52       		.byte	(.L73-.L56)/2
 935 004f 54       		.byte	(.L72-.L56)/2
 936 0050 56       		.byte	(.L71-.L56)/2
 937 0051 58       		.byte	(.L70-.L56)/2
 938 0052 5A       		.byte	(.L69-.L56)/2
 939 0053 5C       		.byte	(.L68-.L56)/2
 940 0054 5E       		.byte	(.L67-.L56)/2
 941 0055 9A       		.byte	(.L54-.L56)/2
 942 0056 9A       		.byte	(.L54-.L56)/2
 943 0057 9A       		.byte	(.L54-.L56)/2
 944 0058 9A       		.byte	(.L54-.L56)/2
 945 0059 9A       		.byte	(.L54-.L56)/2
 946 005a 9A       		.byte	(.L54-.L56)/2
 947 005b 64       		.byte	(.L66-.L56)/2
 948 005c 9A       		.byte	(.L54-.L56)/2
 949 005d 66       		.byte	(.L65-.L56)/2
 950 005e 6C       		.byte	(.L64-.L56)/2
 951 005f 9A       		.byte	(.L54-.L56)/2
 952 0060 9A       		.byte	(.L54-.L56)/2
 953 0061 70       		.byte	(.L63-.L56)/2
 954 0062 9A       		.byte	(.L54-.L56)/2
ARM GAS  C:\Users\igorn\AppData\Local\Temp\ccyy5tub.s 			page 26


 955 0063 9A       		.byte	(.L54-.L56)/2
 956 0064 9A       		.byte	(.L54-.L56)/2
 957 0065 6A       		.byte	(.L62-.L56)/2
 958 0066 9A       		.byte	(.L54-.L56)/2
 959 0067 9A       		.byte	(.L54-.L56)/2
 960 0068 9A       		.byte	(.L54-.L56)/2
 961 0069 6E       		.byte	(.L61-.L56)/2
 962 006a 9A       		.byte	(.L54-.L56)/2
 963 006b 9A       		.byte	(.L54-.L56)/2
 964 006c 68       		.byte	(.L60-.L56)/2
 965 006d 9A       		.byte	(.L54-.L56)/2
 966 006e 9A       		.byte	(.L54-.L56)/2
 967 006f 60       		.byte	(.L59-.L56)/2
 968 0070 62       		.byte	(.L58-.L56)/2
 969 0071 9A       		.byte	(.L54-.L56)/2
 970 0072 9A       		.byte	(.L54-.L56)/2
 971 0073 72       		.byte	(.L57-.L56)/2
 972 0074 9A       		.byte	(.L54-.L56)/2
 973 0075 82       		.byte	(.L55-.L56)/2
 974              		.p2align 1
 975              	.L92:
 976 0076 3948     		ldr	r0, .L113+4
 977 0078 00E0     		b	.L53
 978              	.L90:
 388:Core/Src/NOS_LIB_Driver/Src/WS2812B.c ****     {
 389:Core/Src/NOS_LIB_Driver/Src/WS2812B.c ****     /* English upper case */
 390:Core/Src/NOS_LIB_Driver/Src/WS2812B.c ****     case 'A':
 391:Core/Src/NOS_LIB_Driver/Src/WS2812B.c ****         return Eng_A;
 392:Core/Src/NOS_LIB_Driver/Src/WS2812B.c ****         break;
 393:Core/Src/NOS_LIB_Driver/Src/WS2812B.c ****     case 'B':
 394:Core/Src/NOS_LIB_Driver/Src/WS2812B.c ****         return Eng_B;
 395:Core/Src/NOS_LIB_Driver/Src/WS2812B.c ****         break;
 979              		.loc 1 395 9 view .LVU241
 396:Core/Src/NOS_LIB_Driver/Src/WS2812B.c ****     case 'C':
 397:Core/Src/NOS_LIB_Driver/Src/WS2812B.c ****         return Eng_C;
 980              		.loc 1 397 9 view .LVU242
 981              		.loc 1 397 16 is_stmt 0 view .LVU243
 982 007a 3948     		ldr	r0, .L113+8
 983              	.L53:
 398:Core/Src/NOS_LIB_Driver/Src/WS2812B.c ****         break;
 399:Core/Src/NOS_LIB_Driver/Src/WS2812B.c ****     case 'D':
 400:Core/Src/NOS_LIB_Driver/Src/WS2812B.c ****         return Eng_D;
 401:Core/Src/NOS_LIB_Driver/Src/WS2812B.c ****         break;
 402:Core/Src/NOS_LIB_Driver/Src/WS2812B.c ****     case 'E':
 403:Core/Src/NOS_LIB_Driver/Src/WS2812B.c ****         return Eng_E;
 404:Core/Src/NOS_LIB_Driver/Src/WS2812B.c ****         break;
 405:Core/Src/NOS_LIB_Driver/Src/WS2812B.c ****     case 'F':
 406:Core/Src/NOS_LIB_Driver/Src/WS2812B.c ****         return Eng_F;
 407:Core/Src/NOS_LIB_Driver/Src/WS2812B.c ****         break;
 408:Core/Src/NOS_LIB_Driver/Src/WS2812B.c ****     case 'G':
 409:Core/Src/NOS_LIB_Driver/Src/WS2812B.c ****         return Eng_G;
 410:Core/Src/NOS_LIB_Driver/Src/WS2812B.c ****         break;
 411:Core/Src/NOS_LIB_Driver/Src/WS2812B.c ****     case 'H':
 412:Core/Src/NOS_LIB_Driver/Src/WS2812B.c ****         return Eng_H;
 413:Core/Src/NOS_LIB_Driver/Src/WS2812B.c ****         break;
 414:Core/Src/NOS_LIB_Driver/Src/WS2812B.c ****     case 'I':
 415:Core/Src/NOS_LIB_Driver/Src/WS2812B.c ****         return Eng_I;
ARM GAS  C:\Users\igorn\AppData\Local\Temp\ccyy5tub.s 			page 27


 416:Core/Src/NOS_LIB_Driver/Src/WS2812B.c ****         break;
 417:Core/Src/NOS_LIB_Driver/Src/WS2812B.c ****     case 'J':
 418:Core/Src/NOS_LIB_Driver/Src/WS2812B.c ****         return Eng_J;
 419:Core/Src/NOS_LIB_Driver/Src/WS2812B.c ****         break;
 420:Core/Src/NOS_LIB_Driver/Src/WS2812B.c ****     case 'K':
 421:Core/Src/NOS_LIB_Driver/Src/WS2812B.c ****         return Eng_K;
 422:Core/Src/NOS_LIB_Driver/Src/WS2812B.c ****         break;
 423:Core/Src/NOS_LIB_Driver/Src/WS2812B.c ****     case 'L':
 424:Core/Src/NOS_LIB_Driver/Src/WS2812B.c ****         return Eng_L;
 425:Core/Src/NOS_LIB_Driver/Src/WS2812B.c ****         break;
 426:Core/Src/NOS_LIB_Driver/Src/WS2812B.c ****     case 'M':
 427:Core/Src/NOS_LIB_Driver/Src/WS2812B.c ****         return Eng_M;
 428:Core/Src/NOS_LIB_Driver/Src/WS2812B.c ****         break;
 429:Core/Src/NOS_LIB_Driver/Src/WS2812B.c ****     case 'N':
 430:Core/Src/NOS_LIB_Driver/Src/WS2812B.c ****         return Eng_N;
 431:Core/Src/NOS_LIB_Driver/Src/WS2812B.c ****         break;
 432:Core/Src/NOS_LIB_Driver/Src/WS2812B.c ****     case 'O':
 433:Core/Src/NOS_LIB_Driver/Src/WS2812B.c ****         return Eng_O;
 434:Core/Src/NOS_LIB_Driver/Src/WS2812B.c ****         break;
 435:Core/Src/NOS_LIB_Driver/Src/WS2812B.c ****     case 'P':
 436:Core/Src/NOS_LIB_Driver/Src/WS2812B.c ****         return Eng_P;
 437:Core/Src/NOS_LIB_Driver/Src/WS2812B.c ****         break;
 438:Core/Src/NOS_LIB_Driver/Src/WS2812B.c ****     case 'Q':
 439:Core/Src/NOS_LIB_Driver/Src/WS2812B.c ****         return Eng_Q;
 440:Core/Src/NOS_LIB_Driver/Src/WS2812B.c ****         break;
 441:Core/Src/NOS_LIB_Driver/Src/WS2812B.c ****     case 'R':
 442:Core/Src/NOS_LIB_Driver/Src/WS2812B.c ****         return Eng_R;
 443:Core/Src/NOS_LIB_Driver/Src/WS2812B.c ****         break;
 444:Core/Src/NOS_LIB_Driver/Src/WS2812B.c ****     case 'S':
 445:Core/Src/NOS_LIB_Driver/Src/WS2812B.c ****         return Eng_S;
 446:Core/Src/NOS_LIB_Driver/Src/WS2812B.c ****         break;
 447:Core/Src/NOS_LIB_Driver/Src/WS2812B.c ****     case 'T':
 448:Core/Src/NOS_LIB_Driver/Src/WS2812B.c ****         return Eng_T;
 449:Core/Src/NOS_LIB_Driver/Src/WS2812B.c ****         break;
 450:Core/Src/NOS_LIB_Driver/Src/WS2812B.c ****     case 'U':
 451:Core/Src/NOS_LIB_Driver/Src/WS2812B.c ****         return Eng_U;
 452:Core/Src/NOS_LIB_Driver/Src/WS2812B.c ****         break;
 453:Core/Src/NOS_LIB_Driver/Src/WS2812B.c ****     case 'V':
 454:Core/Src/NOS_LIB_Driver/Src/WS2812B.c ****         return Eng_V;
 455:Core/Src/NOS_LIB_Driver/Src/WS2812B.c ****         break;
 456:Core/Src/NOS_LIB_Driver/Src/WS2812B.c ****     case 'W':
 457:Core/Src/NOS_LIB_Driver/Src/WS2812B.c ****         return Eng_W;
 458:Core/Src/NOS_LIB_Driver/Src/WS2812B.c ****         break;
 459:Core/Src/NOS_LIB_Driver/Src/WS2812B.c ****     case 'X':
 460:Core/Src/NOS_LIB_Driver/Src/WS2812B.c ****         return Eng_X;
 461:Core/Src/NOS_LIB_Driver/Src/WS2812B.c ****         break;
 462:Core/Src/NOS_LIB_Driver/Src/WS2812B.c ****     case 'Y':
 463:Core/Src/NOS_LIB_Driver/Src/WS2812B.c ****         return Eng_Y;
 464:Core/Src/NOS_LIB_Driver/Src/WS2812B.c ****         break;
 465:Core/Src/NOS_LIB_Driver/Src/WS2812B.c ****     case 'Z':
 466:Core/Src/NOS_LIB_Driver/Src/WS2812B.c ****         return Eng_Z;
 467:Core/Src/NOS_LIB_Driver/Src/WS2812B.c ****         break;
 468:Core/Src/NOS_LIB_Driver/Src/WS2812B.c ****     /* English upper case */
 469:Core/Src/NOS_LIB_Driver/Src/WS2812B.c **** 
 470:Core/Src/NOS_LIB_Driver/Src/WS2812B.c ****     /* English lower case */
 471:Core/Src/NOS_LIB_Driver/Src/WS2812B.c ****     case 'u':
 472:Core/Src/NOS_LIB_Driver/Src/WS2812B.c ****         return Eng_u;
ARM GAS  C:\Users\igorn\AppData\Local\Temp\ccyy5tub.s 			page 28


 473:Core/Src/NOS_LIB_Driver/Src/WS2812B.c ****         break;
 474:Core/Src/NOS_LIB_Driver/Src/WS2812B.c ****     case 'v':
 475:Core/Src/NOS_LIB_Driver/Src/WS2812B.c ****         return Eng_v;
 476:Core/Src/NOS_LIB_Driver/Src/WS2812B.c ****         break;
 477:Core/Src/NOS_LIB_Driver/Src/WS2812B.c ****     case 'a':
 478:Core/Src/NOS_LIB_Driver/Src/WS2812B.c ****         return Eng_a;
 479:Core/Src/NOS_LIB_Driver/Src/WS2812B.c ****         break;
 480:Core/Src/NOS_LIB_Driver/Src/WS2812B.c ****     case 'c':
 481:Core/Src/NOS_LIB_Driver/Src/WS2812B.c ****         return Eng_c;
 482:Core/Src/NOS_LIB_Driver/Src/WS2812B.c ****         break;
 483:Core/Src/NOS_LIB_Driver/Src/WS2812B.c ****     case 'r':
 484:Core/Src/NOS_LIB_Driver/Src/WS2812B.c ****         return Eng_r;
 485:Core/Src/NOS_LIB_Driver/Src/WS2812B.c ****         break;
 486:Core/Src/NOS_LIB_Driver/Src/WS2812B.c ****         /* English lower case */
 487:Core/Src/NOS_LIB_Driver/Src/WS2812B.c **** 
 488:Core/Src/NOS_LIB_Driver/Src/WS2812B.c ****     case '':
 489:Core/Src/NOS_LIB_Driver/Src/WS2812B.c ****         return Ukr_m;
 490:Core/Src/NOS_LIB_Driver/Src/WS2812B.c ****         break;
 491:Core/Src/NOS_LIB_Driver/Src/WS2812B.c ****     case 'k':
 492:Core/Src/NOS_LIB_Driver/Src/WS2812B.c ****         return Ukr_k;
 493:Core/Src/NOS_LIB_Driver/Src/WS2812B.c ****         break;
 494:Core/Src/NOS_LIB_Driver/Src/WS2812B.c ****     case 'd':
 495:Core/Src/NOS_LIB_Driver/Src/WS2812B.c ****         return Ukr_d;
 496:Core/Src/NOS_LIB_Driver/Src/WS2812B.c ****         break;
 497:Core/Src/NOS_LIB_Driver/Src/WS2812B.c ****     case 'o':
 498:Core/Src/NOS_LIB_Driver/Src/WS2812B.c ****         return Eng_o;
 499:Core/Src/NOS_LIB_Driver/Src/WS2812B.c ****         break;
 500:Core/Src/NOS_LIB_Driver/Src/WS2812B.c ****     case 'g':
 501:Core/Src/NOS_LIB_Driver/Src/WS2812B.c ****         return Ukr_g;
 502:Core/Src/NOS_LIB_Driver/Src/WS2812B.c ****         break;
 503:Core/Src/NOS_LIB_Driver/Src/WS2812B.c ****     case 'y':
 504:Core/Src/NOS_LIB_Driver/Src/WS2812B.c ****         return Ukr_ch;
 505:Core/Src/NOS_LIB_Driver/Src/WS2812B.c ****         break;
 506:Core/Src/NOS_LIB_Driver/Src/WS2812B.c **** 
 507:Core/Src/NOS_LIB_Driver/Src/WS2812B.c ****     /* Special symvols */
 508:Core/Src/NOS_LIB_Driver/Src/WS2812B.c ****     case ' ':
 509:Core/Src/NOS_LIB_Driver/Src/WS2812B.c ****         return Space;
 510:Core/Src/NOS_LIB_Driver/Src/WS2812B.c ****         break;
 511:Core/Src/NOS_LIB_Driver/Src/WS2812B.c ****     case '+':
 512:Core/Src/NOS_LIB_Driver/Src/WS2812B.c ****         return Plus;
 513:Core/Src/NOS_LIB_Driver/Src/WS2812B.c ****         break;
 514:Core/Src/NOS_LIB_Driver/Src/WS2812B.c ****     case '-':
 515:Core/Src/NOS_LIB_Driver/Src/WS2812B.c ****         return Minus;
 516:Core/Src/NOS_LIB_Driver/Src/WS2812B.c ****         break;
 517:Core/Src/NOS_LIB_Driver/Src/WS2812B.c ****     case '/':
 518:Core/Src/NOS_LIB_Driver/Src/WS2812B.c ****         return Slash;
 519:Core/Src/NOS_LIB_Driver/Src/WS2812B.c ****         break;
 520:Core/Src/NOS_LIB_Driver/Src/WS2812B.c ****     case '*':
 521:Core/Src/NOS_LIB_Driver/Src/WS2812B.c ****         return Celcium;
 522:Core/Src/NOS_LIB_Driver/Src/WS2812B.c ****         break;
 523:Core/Src/NOS_LIB_Driver/Src/WS2812B.c ****     case '.':
 524:Core/Src/NOS_LIB_Driver/Src/WS2812B.c ****         return Dot;
 525:Core/Src/NOS_LIB_Driver/Src/WS2812B.c ****         break;
 526:Core/Src/NOS_LIB_Driver/Src/WS2812B.c ****     case ':':
 527:Core/Src/NOS_LIB_Driver/Src/WS2812B.c ****         return DoubleDot;
 528:Core/Src/NOS_LIB_Driver/Src/WS2812B.c ****         break;
 529:Core/Src/NOS_LIB_Driver/Src/WS2812B.c ****     case '{':
ARM GAS  C:\Users\igorn\AppData\Local\Temp\ccyy5tub.s 			page 29


 530:Core/Src/NOS_LIB_Driver/Src/WS2812B.c ****         return FullSym;
 531:Core/Src/NOS_LIB_Driver/Src/WS2812B.c ****         break;
 532:Core/Src/NOS_LIB_Driver/Src/WS2812B.c ****     case '!':
 533:Core/Src/NOS_LIB_Driver/Src/WS2812B.c ****         return Attemption;
 534:Core/Src/NOS_LIB_Driver/Src/WS2812B.c ****         break;
 535:Core/Src/NOS_LIB_Driver/Src/WS2812B.c **** 
 536:Core/Src/NOS_LIB_Driver/Src/WS2812B.c ****     /* Special symvols */
 537:Core/Src/NOS_LIB_Driver/Src/WS2812B.c **** 
 538:Core/Src/NOS_LIB_Driver/Src/WS2812B.c ****     /* Numbers */
 539:Core/Src/NOS_LIB_Driver/Src/WS2812B.c ****     case '0':
 540:Core/Src/NOS_LIB_Driver/Src/WS2812B.c ****         return Num_0;
 541:Core/Src/NOS_LIB_Driver/Src/WS2812B.c ****         break;
 542:Core/Src/NOS_LIB_Driver/Src/WS2812B.c ****     case '1':
 543:Core/Src/NOS_LIB_Driver/Src/WS2812B.c ****         return Num_1;
 544:Core/Src/NOS_LIB_Driver/Src/WS2812B.c ****         break;
 545:Core/Src/NOS_LIB_Driver/Src/WS2812B.c ****     case '2':
 546:Core/Src/NOS_LIB_Driver/Src/WS2812B.c ****         return Num_2;
 547:Core/Src/NOS_LIB_Driver/Src/WS2812B.c ****         break;
 548:Core/Src/NOS_LIB_Driver/Src/WS2812B.c ****     case '3':
 549:Core/Src/NOS_LIB_Driver/Src/WS2812B.c ****         return Num_3;
 550:Core/Src/NOS_LIB_Driver/Src/WS2812B.c ****         break;
 551:Core/Src/NOS_LIB_Driver/Src/WS2812B.c ****     case '4':
 552:Core/Src/NOS_LIB_Driver/Src/WS2812B.c ****         return Num_4;
 553:Core/Src/NOS_LIB_Driver/Src/WS2812B.c ****         break;
 554:Core/Src/NOS_LIB_Driver/Src/WS2812B.c ****     case '5':
 555:Core/Src/NOS_LIB_Driver/Src/WS2812B.c ****         return Num_5;
 556:Core/Src/NOS_LIB_Driver/Src/WS2812B.c ****         break;
 557:Core/Src/NOS_LIB_Driver/Src/WS2812B.c ****     case '6':
 558:Core/Src/NOS_LIB_Driver/Src/WS2812B.c ****         return Num_6;
 559:Core/Src/NOS_LIB_Driver/Src/WS2812B.c ****         break;
 560:Core/Src/NOS_LIB_Driver/Src/WS2812B.c ****     case '7':
 561:Core/Src/NOS_LIB_Driver/Src/WS2812B.c ****         return Num_7;
 562:Core/Src/NOS_LIB_Driver/Src/WS2812B.c ****         break;
 563:Core/Src/NOS_LIB_Driver/Src/WS2812B.c ****     case '8':
 564:Core/Src/NOS_LIB_Driver/Src/WS2812B.c ****         return Num_8;
 565:Core/Src/NOS_LIB_Driver/Src/WS2812B.c ****         break;
 566:Core/Src/NOS_LIB_Driver/Src/WS2812B.c ****     case '9':
 567:Core/Src/NOS_LIB_Driver/Src/WS2812B.c ****         return Num_9;
 568:Core/Src/NOS_LIB_Driver/Src/WS2812B.c ****         break;
 569:Core/Src/NOS_LIB_Driver/Src/WS2812B.c ****         /* Numbers */
 570:Core/Src/NOS_LIB_Driver/Src/WS2812B.c **** 
 571:Core/Src/NOS_LIB_Driver/Src/WS2812B.c ****     default:
 572:Core/Src/NOS_LIB_Driver/Src/WS2812B.c ****         return Space;
 573:Core/Src/NOS_LIB_Driver/Src/WS2812B.c ****         break;
 574:Core/Src/NOS_LIB_Driver/Src/WS2812B.c ****     }
 575:Core/Src/NOS_LIB_Driver/Src/WS2812B.c **** }
 984              		.loc 1 575 1 view .LVU244
 985 007c 10BD     		pop	{r4, pc}
 986              	.L89:
 398:Core/Src/NOS_LIB_Driver/Src/WS2812B.c ****         break;
 987              		.loc 1 398 9 is_stmt 1 view .LVU245
 400:Core/Src/NOS_LIB_Driver/Src/WS2812B.c ****         break;
 988              		.loc 1 400 9 view .LVU246
 400:Core/Src/NOS_LIB_Driver/Src/WS2812B.c ****         break;
 989              		.loc 1 400 16 is_stmt 0 view .LVU247
 990 007e 3948     		ldr	r0, .L113+12
 991 0080 FCE7     		b	.L53
ARM GAS  C:\Users\igorn\AppData\Local\Temp\ccyy5tub.s 			page 30


 992              	.L88:
 401:Core/Src/NOS_LIB_Driver/Src/WS2812B.c ****     case 'E':
 993              		.loc 1 401 9 is_stmt 1 view .LVU248
 403:Core/Src/NOS_LIB_Driver/Src/WS2812B.c ****         break;
 994              		.loc 1 403 9 view .LVU249
 403:Core/Src/NOS_LIB_Driver/Src/WS2812B.c ****         break;
 995              		.loc 1 403 16 is_stmt 0 view .LVU250
 996 0082 3948     		ldr	r0, .L113+16
 997 0084 FAE7     		b	.L53
 998              	.L87:
 404:Core/Src/NOS_LIB_Driver/Src/WS2812B.c ****     case 'F':
 999              		.loc 1 404 9 is_stmt 1 view .LVU251
 406:Core/Src/NOS_LIB_Driver/Src/WS2812B.c ****         break;
 1000              		.loc 1 406 9 view .LVU252
 406:Core/Src/NOS_LIB_Driver/Src/WS2812B.c ****         break;
 1001              		.loc 1 406 16 is_stmt 0 view .LVU253
 1002 0086 3948     		ldr	r0, .L113+20
 1003 0088 F8E7     		b	.L53
 1004              	.L86:
 407:Core/Src/NOS_LIB_Driver/Src/WS2812B.c ****     case 'G':
 1005              		.loc 1 407 9 is_stmt 1 view .LVU254
 409:Core/Src/NOS_LIB_Driver/Src/WS2812B.c ****         break;
 1006              		.loc 1 409 9 view .LVU255
 409:Core/Src/NOS_LIB_Driver/Src/WS2812B.c ****         break;
 1007              		.loc 1 409 16 is_stmt 0 view .LVU256
 1008 008a 3948     		ldr	r0, .L113+24
 1009 008c F6E7     		b	.L53
 1010              	.L85:
 410:Core/Src/NOS_LIB_Driver/Src/WS2812B.c ****     case 'H':
 1011              		.loc 1 410 9 is_stmt 1 view .LVU257
 412:Core/Src/NOS_LIB_Driver/Src/WS2812B.c ****         break;
 1012              		.loc 1 412 9 view .LVU258
 412:Core/Src/NOS_LIB_Driver/Src/WS2812B.c ****         break;
 1013              		.loc 1 412 16 is_stmt 0 view .LVU259
 1014 008e 3948     		ldr	r0, .L113+28
 1015 0090 F4E7     		b	.L53
 1016              	.L84:
 413:Core/Src/NOS_LIB_Driver/Src/WS2812B.c ****     case 'I':
 1017              		.loc 1 413 9 is_stmt 1 view .LVU260
 415:Core/Src/NOS_LIB_Driver/Src/WS2812B.c ****         break;
 1018              		.loc 1 415 9 view .LVU261
 415:Core/Src/NOS_LIB_Driver/Src/WS2812B.c ****         break;
 1019              		.loc 1 415 16 is_stmt 0 view .LVU262
 1020 0092 3948     		ldr	r0, .L113+32
 1021 0094 F2E7     		b	.L53
 1022              	.L83:
 416:Core/Src/NOS_LIB_Driver/Src/WS2812B.c ****     case 'J':
 1023              		.loc 1 416 9 is_stmt 1 view .LVU263
 418:Core/Src/NOS_LIB_Driver/Src/WS2812B.c ****         break;
 1024              		.loc 1 418 9 view .LVU264
 418:Core/Src/NOS_LIB_Driver/Src/WS2812B.c ****         break;
 1025              		.loc 1 418 16 is_stmt 0 view .LVU265
 1026 0096 3948     		ldr	r0, .L113+36
 1027 0098 F0E7     		b	.L53
 1028              	.L82:
 419:Core/Src/NOS_LIB_Driver/Src/WS2812B.c ****     case 'K':
 1029              		.loc 1 419 9 is_stmt 1 view .LVU266
ARM GAS  C:\Users\igorn\AppData\Local\Temp\ccyy5tub.s 			page 31


 421:Core/Src/NOS_LIB_Driver/Src/WS2812B.c ****         break;
 1030              		.loc 1 421 9 view .LVU267
 421:Core/Src/NOS_LIB_Driver/Src/WS2812B.c ****         break;
 1031              		.loc 1 421 16 is_stmt 0 view .LVU268
 1032 009a 3948     		ldr	r0, .L113+40
 1033 009c EEE7     		b	.L53
 1034              	.L81:
 422:Core/Src/NOS_LIB_Driver/Src/WS2812B.c ****     case 'L':
 1035              		.loc 1 422 9 is_stmt 1 view .LVU269
 424:Core/Src/NOS_LIB_Driver/Src/WS2812B.c ****         break;
 1036              		.loc 1 424 9 view .LVU270
 424:Core/Src/NOS_LIB_Driver/Src/WS2812B.c ****         break;
 1037              		.loc 1 424 16 is_stmt 0 view .LVU271
 1038 009e 3948     		ldr	r0, .L113+44
 1039 00a0 ECE7     		b	.L53
 1040              	.L80:
 425:Core/Src/NOS_LIB_Driver/Src/WS2812B.c ****     case 'M':
 1041              		.loc 1 425 9 is_stmt 1 view .LVU272
 427:Core/Src/NOS_LIB_Driver/Src/WS2812B.c ****         break;
 1042              		.loc 1 427 9 view .LVU273
 427:Core/Src/NOS_LIB_Driver/Src/WS2812B.c ****         break;
 1043              		.loc 1 427 16 is_stmt 0 view .LVU274
 1044 00a2 3948     		ldr	r0, .L113+48
 1045 00a4 EAE7     		b	.L53
 1046              	.L79:
 428:Core/Src/NOS_LIB_Driver/Src/WS2812B.c ****     case 'N':
 1047              		.loc 1 428 9 is_stmt 1 view .LVU275
 430:Core/Src/NOS_LIB_Driver/Src/WS2812B.c ****         break;
 1048              		.loc 1 430 9 view .LVU276
 430:Core/Src/NOS_LIB_Driver/Src/WS2812B.c ****         break;
 1049              		.loc 1 430 16 is_stmt 0 view .LVU277
 1050 00a6 3948     		ldr	r0, .L113+52
 1051 00a8 E8E7     		b	.L53
 1052              	.L78:
 431:Core/Src/NOS_LIB_Driver/Src/WS2812B.c ****     case 'O':
 1053              		.loc 1 431 9 is_stmt 1 view .LVU278
 433:Core/Src/NOS_LIB_Driver/Src/WS2812B.c ****         break;
 1054              		.loc 1 433 9 view .LVU279
 433:Core/Src/NOS_LIB_Driver/Src/WS2812B.c ****         break;
 1055              		.loc 1 433 16 is_stmt 0 view .LVU280
 1056 00aa 3948     		ldr	r0, .L113+56
 1057 00ac E6E7     		b	.L53
 1058              	.L77:
 434:Core/Src/NOS_LIB_Driver/Src/WS2812B.c ****     case 'P':
 1059              		.loc 1 434 9 is_stmt 1 view .LVU281
 436:Core/Src/NOS_LIB_Driver/Src/WS2812B.c ****         break;
 1060              		.loc 1 436 9 view .LVU282
 436:Core/Src/NOS_LIB_Driver/Src/WS2812B.c ****         break;
 1061              		.loc 1 436 16 is_stmt 0 view .LVU283
 1062 00ae 3948     		ldr	r0, .L113+60
 1063 00b0 E4E7     		b	.L53
 1064              	.L76:
 437:Core/Src/NOS_LIB_Driver/Src/WS2812B.c ****     case 'Q':
 1065              		.loc 1 437 9 is_stmt 1 view .LVU284
 439:Core/Src/NOS_LIB_Driver/Src/WS2812B.c ****         break;
 1066              		.loc 1 439 9 view .LVU285
 439:Core/Src/NOS_LIB_Driver/Src/WS2812B.c ****         break;
ARM GAS  C:\Users\igorn\AppData\Local\Temp\ccyy5tub.s 			page 32


 1067              		.loc 1 439 16 is_stmt 0 view .LVU286
 1068 00b2 3948     		ldr	r0, .L113+64
 1069 00b4 E2E7     		b	.L53
 1070              	.L75:
 440:Core/Src/NOS_LIB_Driver/Src/WS2812B.c ****     case 'R':
 1071              		.loc 1 440 9 is_stmt 1 view .LVU287
 442:Core/Src/NOS_LIB_Driver/Src/WS2812B.c ****         break;
 1072              		.loc 1 442 9 view .LVU288
 442:Core/Src/NOS_LIB_Driver/Src/WS2812B.c ****         break;
 1073              		.loc 1 442 16 is_stmt 0 view .LVU289
 1074 00b6 3948     		ldr	r0, .L113+68
 1075 00b8 E0E7     		b	.L53
 1076              	.L74:
 443:Core/Src/NOS_LIB_Driver/Src/WS2812B.c ****     case 'S':
 1077              		.loc 1 443 9 is_stmt 1 view .LVU290
 445:Core/Src/NOS_LIB_Driver/Src/WS2812B.c ****         break;
 1078              		.loc 1 445 9 view .LVU291
 445:Core/Src/NOS_LIB_Driver/Src/WS2812B.c ****         break;
 1079              		.loc 1 445 16 is_stmt 0 view .LVU292
 1080 00ba 3948     		ldr	r0, .L113+72
 1081 00bc DEE7     		b	.L53
 1082              	.L73:
 446:Core/Src/NOS_LIB_Driver/Src/WS2812B.c ****     case 'T':
 1083              		.loc 1 446 9 is_stmt 1 view .LVU293
 448:Core/Src/NOS_LIB_Driver/Src/WS2812B.c ****         break;
 1084              		.loc 1 448 9 view .LVU294
 448:Core/Src/NOS_LIB_Driver/Src/WS2812B.c ****         break;
 1085              		.loc 1 448 16 is_stmt 0 view .LVU295
 1086 00be 3948     		ldr	r0, .L113+76
 1087 00c0 DCE7     		b	.L53
 1088              	.L72:
 449:Core/Src/NOS_LIB_Driver/Src/WS2812B.c ****     case 'U':
 1089              		.loc 1 449 9 is_stmt 1 view .LVU296
 451:Core/Src/NOS_LIB_Driver/Src/WS2812B.c ****         break;
 1090              		.loc 1 451 9 view .LVU297
 451:Core/Src/NOS_LIB_Driver/Src/WS2812B.c ****         break;
 1091              		.loc 1 451 16 is_stmt 0 view .LVU298
 1092 00c2 3948     		ldr	r0, .L113+80
 1093 00c4 DAE7     		b	.L53
 1094              	.L71:
 452:Core/Src/NOS_LIB_Driver/Src/WS2812B.c ****     case 'V':
 1095              		.loc 1 452 9 is_stmt 1 view .LVU299
 454:Core/Src/NOS_LIB_Driver/Src/WS2812B.c ****         break;
 1096              		.loc 1 454 9 view .LVU300
 454:Core/Src/NOS_LIB_Driver/Src/WS2812B.c ****         break;
 1097              		.loc 1 454 16 is_stmt 0 view .LVU301
 1098 00c6 3948     		ldr	r0, .L113+84
 1099 00c8 D8E7     		b	.L53
 1100              	.L70:
 455:Core/Src/NOS_LIB_Driver/Src/WS2812B.c ****     case 'W':
 1101              		.loc 1 455 9 is_stmt 1 view .LVU302
 457:Core/Src/NOS_LIB_Driver/Src/WS2812B.c ****         break;
 1102              		.loc 1 457 9 view .LVU303
 457:Core/Src/NOS_LIB_Driver/Src/WS2812B.c ****         break;
 1103              		.loc 1 457 16 is_stmt 0 view .LVU304
 1104 00ca 3948     		ldr	r0, .L113+88
 1105 00cc D6E7     		b	.L53
ARM GAS  C:\Users\igorn\AppData\Local\Temp\ccyy5tub.s 			page 33


 1106              	.L69:
 458:Core/Src/NOS_LIB_Driver/Src/WS2812B.c ****     case 'X':
 1107              		.loc 1 458 9 is_stmt 1 view .LVU305
 460:Core/Src/NOS_LIB_Driver/Src/WS2812B.c ****         break;
 1108              		.loc 1 460 9 view .LVU306
 460:Core/Src/NOS_LIB_Driver/Src/WS2812B.c ****         break;
 1109              		.loc 1 460 16 is_stmt 0 view .LVU307
 1110 00ce 3948     		ldr	r0, .L113+92
 1111 00d0 D4E7     		b	.L53
 1112              	.L68:
 461:Core/Src/NOS_LIB_Driver/Src/WS2812B.c ****     case 'Y':
 1113              		.loc 1 461 9 is_stmt 1 view .LVU308
 463:Core/Src/NOS_LIB_Driver/Src/WS2812B.c ****         break;
 1114              		.loc 1 463 9 view .LVU309
 463:Core/Src/NOS_LIB_Driver/Src/WS2812B.c ****         break;
 1115              		.loc 1 463 16 is_stmt 0 view .LVU310
 1116 00d2 3948     		ldr	r0, .L113+96
 1117 00d4 D2E7     		b	.L53
 1118              	.L67:
 464:Core/Src/NOS_LIB_Driver/Src/WS2812B.c ****     case 'Z':
 1119              		.loc 1 464 9 is_stmt 1 view .LVU311
 466:Core/Src/NOS_LIB_Driver/Src/WS2812B.c ****         break;
 1120              		.loc 1 466 9 view .LVU312
 466:Core/Src/NOS_LIB_Driver/Src/WS2812B.c ****         break;
 1121              		.loc 1 466 16 is_stmt 0 view .LVU313
 1122 00d6 3948     		ldr	r0, .L113+100
 1123 00d8 D0E7     		b	.L53
 1124              	.L59:
 467:Core/Src/NOS_LIB_Driver/Src/WS2812B.c ****     /* English upper case */
 1125              		.loc 1 467 9 is_stmt 1 view .LVU314
 472:Core/Src/NOS_LIB_Driver/Src/WS2812B.c ****         break;
 1126              		.loc 1 472 9 view .LVU315
 472:Core/Src/NOS_LIB_Driver/Src/WS2812B.c ****         break;
 1127              		.loc 1 472 16 is_stmt 0 view .LVU316
 1128 00da 3948     		ldr	r0, .L113+104
 1129 00dc CEE7     		b	.L53
 1130              	.L58:
 473:Core/Src/NOS_LIB_Driver/Src/WS2812B.c ****     case 'v':
 1131              		.loc 1 473 9 is_stmt 1 view .LVU317
 475:Core/Src/NOS_LIB_Driver/Src/WS2812B.c ****         break;
 1132              		.loc 1 475 9 view .LVU318
 475:Core/Src/NOS_LIB_Driver/Src/WS2812B.c ****         break;
 1133              		.loc 1 475 16 is_stmt 0 view .LVU319
 1134 00de 3948     		ldr	r0, .L113+108
 1135 00e0 CCE7     		b	.L53
 1136              	.L66:
 476:Core/Src/NOS_LIB_Driver/Src/WS2812B.c ****     case 'a':
 1137              		.loc 1 476 9 is_stmt 1 view .LVU320
 478:Core/Src/NOS_LIB_Driver/Src/WS2812B.c ****         break;
 1138              		.loc 1 478 9 view .LVU321
 478:Core/Src/NOS_LIB_Driver/Src/WS2812B.c ****         break;
 1139              		.loc 1 478 16 is_stmt 0 view .LVU322
 1140 00e2 3948     		ldr	r0, .L113+112
 1141 00e4 CAE7     		b	.L53
 1142              	.L65:
 479:Core/Src/NOS_LIB_Driver/Src/WS2812B.c ****     case 'c':
 1143              		.loc 1 479 9 is_stmt 1 view .LVU323
ARM GAS  C:\Users\igorn\AppData\Local\Temp\ccyy5tub.s 			page 34


 481:Core/Src/NOS_LIB_Driver/Src/WS2812B.c ****         break;
 1144              		.loc 1 481 9 view .LVU324
 481:Core/Src/NOS_LIB_Driver/Src/WS2812B.c ****         break;
 1145              		.loc 1 481 16 is_stmt 0 view .LVU325
 1146 00e6 3948     		ldr	r0, .L113+116
 1147 00e8 C8E7     		b	.L53
 1148              	.L60:
 482:Core/Src/NOS_LIB_Driver/Src/WS2812B.c ****     case 'r':
 1149              		.loc 1 482 9 is_stmt 1 view .LVU326
 484:Core/Src/NOS_LIB_Driver/Src/WS2812B.c ****         break;
 1150              		.loc 1 484 9 view .LVU327
 484:Core/Src/NOS_LIB_Driver/Src/WS2812B.c ****         break;
 1151              		.loc 1 484 16 is_stmt 0 view .LVU328
 1152 00ea 3948     		ldr	r0, .L113+120
 1153 00ec C6E7     		b	.L53
 1154              	.L62:
 490:Core/Src/NOS_LIB_Driver/Src/WS2812B.c ****     case 'k':
 1155              		.loc 1 490 9 is_stmt 1 view .LVU329
 492:Core/Src/NOS_LIB_Driver/Src/WS2812B.c ****         break;
 1156              		.loc 1 492 9 view .LVU330
 492:Core/Src/NOS_LIB_Driver/Src/WS2812B.c ****         break;
 1157              		.loc 1 492 16 is_stmt 0 view .LVU331
 1158 00ee 3948     		ldr	r0, .L113+124
 1159 00f0 C4E7     		b	.L53
 1160              	.L64:
 493:Core/Src/NOS_LIB_Driver/Src/WS2812B.c ****     case 'd':
 1161              		.loc 1 493 9 is_stmt 1 view .LVU332
 495:Core/Src/NOS_LIB_Driver/Src/WS2812B.c ****         break;
 1162              		.loc 1 495 9 view .LVU333
 495:Core/Src/NOS_LIB_Driver/Src/WS2812B.c ****         break;
 1163              		.loc 1 495 16 is_stmt 0 view .LVU334
 1164 00f2 3948     		ldr	r0, .L113+128
 1165 00f4 C2E7     		b	.L53
 1166              	.L61:
 496:Core/Src/NOS_LIB_Driver/Src/WS2812B.c ****     case 'o':
 1167              		.loc 1 496 9 is_stmt 1 view .LVU335
 498:Core/Src/NOS_LIB_Driver/Src/WS2812B.c ****         break;
 1168              		.loc 1 498 9 view .LVU336
 498:Core/Src/NOS_LIB_Driver/Src/WS2812B.c ****         break;
 1169              		.loc 1 498 16 is_stmt 0 view .LVU337
 1170 00f6 3948     		ldr	r0, .L113+132
 1171 00f8 C0E7     		b	.L53
 1172              	.L63:
 499:Core/Src/NOS_LIB_Driver/Src/WS2812B.c ****     case 'g':
 1173              		.loc 1 499 9 is_stmt 1 view .LVU338
 501:Core/Src/NOS_LIB_Driver/Src/WS2812B.c ****         break;
 1174              		.loc 1 501 9 view .LVU339
 501:Core/Src/NOS_LIB_Driver/Src/WS2812B.c ****         break;
 1175              		.loc 1 501 16 is_stmt 0 view .LVU340
 1176 00fa 3948     		ldr	r0, .L113+136
 1177 00fc BEE7     		b	.L53
 1178              	.L57:
 502:Core/Src/NOS_LIB_Driver/Src/WS2812B.c ****     case 'y':
 1179              		.loc 1 502 9 is_stmt 1 view .LVU341
 504:Core/Src/NOS_LIB_Driver/Src/WS2812B.c ****         break;
 1180              		.loc 1 504 9 view .LVU342
 504:Core/Src/NOS_LIB_Driver/Src/WS2812B.c ****         break;
ARM GAS  C:\Users\igorn\AppData\Local\Temp\ccyy5tub.s 			page 35


 1181              		.loc 1 504 16 is_stmt 0 view .LVU343
 1182 00fe 3948     		ldr	r0, .L113+140
 1183 0100 BCE7     		b	.L53
 1184              	.L110:
 505:Core/Src/NOS_LIB_Driver/Src/WS2812B.c **** 
 1185              		.loc 1 505 9 is_stmt 1 view .LVU344
 509:Core/Src/NOS_LIB_Driver/Src/WS2812B.c ****         break;
 1186              		.loc 1 509 9 view .LVU345
 509:Core/Src/NOS_LIB_Driver/Src/WS2812B.c ****         break;
 1187              		.loc 1 509 16 is_stmt 0 view .LVU346
 1188 0102 3948     		ldr	r0, .L113+144
 1189 0104 BAE7     		b	.L53
 1190              	.L107:
 510:Core/Src/NOS_LIB_Driver/Src/WS2812B.c ****     case '+':
 1191              		.loc 1 510 9 is_stmt 1 view .LVU347
 512:Core/Src/NOS_LIB_Driver/Src/WS2812B.c ****         break;
 1192              		.loc 1 512 9 view .LVU348
 512:Core/Src/NOS_LIB_Driver/Src/WS2812B.c ****         break;
 1193              		.loc 1 512 16 is_stmt 0 view .LVU349
 1194 0106 3948     		ldr	r0, .L113+148
 1195 0108 B8E7     		b	.L53
 1196              	.L106:
 513:Core/Src/NOS_LIB_Driver/Src/WS2812B.c ****     case '-':
 1197              		.loc 1 513 9 is_stmt 1 view .LVU350
 515:Core/Src/NOS_LIB_Driver/Src/WS2812B.c ****         break;
 1198              		.loc 1 515 9 view .LVU351
 515:Core/Src/NOS_LIB_Driver/Src/WS2812B.c ****         break;
 1199              		.loc 1 515 16 is_stmt 0 view .LVU352
 1200 010a 3948     		ldr	r0, .L113+152
 1201 010c B6E7     		b	.L53
 1202              	.L104:
 516:Core/Src/NOS_LIB_Driver/Src/WS2812B.c ****     case '/':
 1203              		.loc 1 516 9 is_stmt 1 view .LVU353
 518:Core/Src/NOS_LIB_Driver/Src/WS2812B.c ****         break;
 1204              		.loc 1 518 9 view .LVU354
 518:Core/Src/NOS_LIB_Driver/Src/WS2812B.c ****         break;
 1205              		.loc 1 518 16 is_stmt 0 view .LVU355
 1206 010e 3948     		ldr	r0, .L113+156
 1207 0110 B4E7     		b	.L53
 1208              	.L108:
 519:Core/Src/NOS_LIB_Driver/Src/WS2812B.c ****     case '*':
 1209              		.loc 1 519 9 is_stmt 1 view .LVU356
 521:Core/Src/NOS_LIB_Driver/Src/WS2812B.c ****         break;
 1210              		.loc 1 521 9 view .LVU357
 521:Core/Src/NOS_LIB_Driver/Src/WS2812B.c ****         break;
 1211              		.loc 1 521 16 is_stmt 0 view .LVU358
 1212 0112 3948     		ldr	r0, .L113+160
 1213 0114 B2E7     		b	.L53
 1214              	.L105:
 522:Core/Src/NOS_LIB_Driver/Src/WS2812B.c ****     case '.':
 1215              		.loc 1 522 9 is_stmt 1 view .LVU359
 524:Core/Src/NOS_LIB_Driver/Src/WS2812B.c ****         break;
 1216              		.loc 1 524 9 view .LVU360
 524:Core/Src/NOS_LIB_Driver/Src/WS2812B.c ****         break;
 1217              		.loc 1 524 16 is_stmt 0 view .LVU361
 1218 0116 3948     		ldr	r0, .L113+164
 1219 0118 B0E7     		b	.L53
ARM GAS  C:\Users\igorn\AppData\Local\Temp\ccyy5tub.s 			page 36


 1220              	.L93:
 525:Core/Src/NOS_LIB_Driver/Src/WS2812B.c ****     case ':':
 1221              		.loc 1 525 9 is_stmt 1 view .LVU362
 527:Core/Src/NOS_LIB_Driver/Src/WS2812B.c ****         break;
 1222              		.loc 1 527 9 view .LVU363
 527:Core/Src/NOS_LIB_Driver/Src/WS2812B.c ****         break;
 1223              		.loc 1 527 16 is_stmt 0 view .LVU364
 1224 011a 3948     		ldr	r0, .L113+168
 1225 011c AEE7     		b	.L53
 1226              	.L55:
 528:Core/Src/NOS_LIB_Driver/Src/WS2812B.c ****     case '{':
 1227              		.loc 1 528 9 is_stmt 1 view .LVU365
 530:Core/Src/NOS_LIB_Driver/Src/WS2812B.c ****         break;
 1228              		.loc 1 530 9 view .LVU366
 530:Core/Src/NOS_LIB_Driver/Src/WS2812B.c ****         break;
 1229              		.loc 1 530 16 is_stmt 0 view .LVU367
 1230 011e 3948     		ldr	r0, .L113+172
 1231 0120 ACE7     		b	.L53
 1232              	.L109:
 531:Core/Src/NOS_LIB_Driver/Src/WS2812B.c ****     case '!':
 1233              		.loc 1 531 9 is_stmt 1 view .LVU368
 533:Core/Src/NOS_LIB_Driver/Src/WS2812B.c ****         break;
 1234              		.loc 1 533 9 view .LVU369
 533:Core/Src/NOS_LIB_Driver/Src/WS2812B.c ****         break;
 1235              		.loc 1 533 16 is_stmt 0 view .LVU370
 1236 0122 3948     		ldr	r0, .L113+176
 1237 0124 AAE7     		b	.L53
 1238              	.L103:
 534:Core/Src/NOS_LIB_Driver/Src/WS2812B.c **** 
 1239              		.loc 1 534 9 is_stmt 1 view .LVU371
 540:Core/Src/NOS_LIB_Driver/Src/WS2812B.c ****         break;
 1240              		.loc 1 540 9 view .LVU372
 540:Core/Src/NOS_LIB_Driver/Src/WS2812B.c ****         break;
 1241              		.loc 1 540 16 is_stmt 0 view .LVU373
 1242 0126 3948     		ldr	r0, .L113+180
 1243 0128 A8E7     		b	.L53
 1244              	.L102:
 541:Core/Src/NOS_LIB_Driver/Src/WS2812B.c ****     case '1':
 1245              		.loc 1 541 9 is_stmt 1 view .LVU374
 543:Core/Src/NOS_LIB_Driver/Src/WS2812B.c ****         break;
 1246              		.loc 1 543 9 view .LVU375
 543:Core/Src/NOS_LIB_Driver/Src/WS2812B.c ****         break;
 1247              		.loc 1 543 16 is_stmt 0 view .LVU376
 1248 012a 3948     		ldr	r0, .L113+184
 1249 012c A6E7     		b	.L53
 1250              	.L101:
 544:Core/Src/NOS_LIB_Driver/Src/WS2812B.c ****     case '2':
 1251              		.loc 1 544 9 is_stmt 1 view .LVU377
 546:Core/Src/NOS_LIB_Driver/Src/WS2812B.c ****         break;
 1252              		.loc 1 546 9 view .LVU378
 546:Core/Src/NOS_LIB_Driver/Src/WS2812B.c ****         break;
 1253              		.loc 1 546 16 is_stmt 0 view .LVU379
 1254 012e 3948     		ldr	r0, .L113+188
 1255 0130 A4E7     		b	.L53
 1256              	.L100:
 547:Core/Src/NOS_LIB_Driver/Src/WS2812B.c ****     case '3':
 1257              		.loc 1 547 9 is_stmt 1 view .LVU380
ARM GAS  C:\Users\igorn\AppData\Local\Temp\ccyy5tub.s 			page 37


 549:Core/Src/NOS_LIB_Driver/Src/WS2812B.c ****         break;
 1258              		.loc 1 549 9 view .LVU381
 549:Core/Src/NOS_LIB_Driver/Src/WS2812B.c ****         break;
 1259              		.loc 1 549 16 is_stmt 0 view .LVU382
 1260 0132 3948     		ldr	r0, .L113+192
 1261 0134 A2E7     		b	.L53
 1262              	.L99:
 550:Core/Src/NOS_LIB_Driver/Src/WS2812B.c ****     case '4':
 1263              		.loc 1 550 9 is_stmt 1 view .LVU383
 552:Core/Src/NOS_LIB_Driver/Src/WS2812B.c ****         break;
 1264              		.loc 1 552 9 view .LVU384
 552:Core/Src/NOS_LIB_Driver/Src/WS2812B.c ****         break;
 1265              		.loc 1 552 16 is_stmt 0 view .LVU385
 1266 0136 3948     		ldr	r0, .L113+196
 1267 0138 A0E7     		b	.L53
 1268              	.L98:
 553:Core/Src/NOS_LIB_Driver/Src/WS2812B.c ****     case '5':
 1269              		.loc 1 553 9 is_stmt 1 view .LVU386
 555:Core/Src/NOS_LIB_Driver/Src/WS2812B.c ****         break;
 1270              		.loc 1 555 9 view .LVU387
 555:Core/Src/NOS_LIB_Driver/Src/WS2812B.c ****         break;
 1271              		.loc 1 555 16 is_stmt 0 view .LVU388
 1272 013a 3948     		ldr	r0, .L113+200
 1273 013c 9EE7     		b	.L53
 1274              	.L97:
 556:Core/Src/NOS_LIB_Driver/Src/WS2812B.c ****     case '6':
 1275              		.loc 1 556 9 is_stmt 1 view .LVU389
 558:Core/Src/NOS_LIB_Driver/Src/WS2812B.c ****         break;
 1276              		.loc 1 558 9 view .LVU390
 558:Core/Src/NOS_LIB_Driver/Src/WS2812B.c ****         break;
 1277              		.loc 1 558 16 is_stmt 0 view .LVU391
 1278 013e 3948     		ldr	r0, .L113+204
 1279 0140 9CE7     		b	.L53
 1280              	.L96:
 559:Core/Src/NOS_LIB_Driver/Src/WS2812B.c ****     case '7':
 1281              		.loc 1 559 9 is_stmt 1 view .LVU392
 561:Core/Src/NOS_LIB_Driver/Src/WS2812B.c ****         break;
 1282              		.loc 1 561 9 view .LVU393
 561:Core/Src/NOS_LIB_Driver/Src/WS2812B.c ****         break;
 1283              		.loc 1 561 16 is_stmt 0 view .LVU394
 1284 0142 3948     		ldr	r0, .L113+208
 1285 0144 9AE7     		b	.L53
 1286              	.L95:
 562:Core/Src/NOS_LIB_Driver/Src/WS2812B.c ****     case '8':
 1287              		.loc 1 562 9 is_stmt 1 view .LVU395
 564:Core/Src/NOS_LIB_Driver/Src/WS2812B.c ****         break;
 1288              		.loc 1 564 9 view .LVU396
 564:Core/Src/NOS_LIB_Driver/Src/WS2812B.c ****         break;
 1289              		.loc 1 564 16 is_stmt 0 view .LVU397
 1290 0146 3948     		ldr	r0, .L113+212
 1291 0148 98E7     		b	.L53
 1292              	.L94:
 565:Core/Src/NOS_LIB_Driver/Src/WS2812B.c ****     case '9':
 1293              		.loc 1 565 9 is_stmt 1 view .LVU398
 567:Core/Src/NOS_LIB_Driver/Src/WS2812B.c ****         break;
 1294              		.loc 1 567 9 view .LVU399
 567:Core/Src/NOS_LIB_Driver/Src/WS2812B.c ****         break;
ARM GAS  C:\Users\igorn\AppData\Local\Temp\ccyy5tub.s 			page 38


 1295              		.loc 1 567 16 is_stmt 0 view .LVU400
 1296 014a 3948     		ldr	r0, .L113+216
 1297 014c 96E7     		b	.L53
 1298              	.L54:
 568:Core/Src/NOS_LIB_Driver/Src/WS2812B.c ****         /* Numbers */
 1299              		.loc 1 568 9 is_stmt 1 view .LVU401
 572:Core/Src/NOS_LIB_Driver/Src/WS2812B.c ****         break;
 1300              		.loc 1 572 9 view .LVU402
 572:Core/Src/NOS_LIB_Driver/Src/WS2812B.c ****         break;
 1301              		.loc 1 572 16 is_stmt 0 view .LVU403
 1302 014e 2648     		ldr	r0, .L113+144
 1303 0150 94E7     		b	.L53
 1304              	.L111:
 394:Core/Src/NOS_LIB_Driver/Src/WS2812B.c ****         break;
 1305              		.loc 1 394 16 view .LVU404
 1306 0152 3848     		ldr	r0, .L113+220
 573:Core/Src/NOS_LIB_Driver/Src/WS2812B.c ****     }
 1307              		.loc 1 573 9 is_stmt 1 view .LVU405
 1308 0154 92E7     		b	.L53
 1309              	.L114:
 1310 0156 00BF     		.align	2
 1311              	.L113:
 1312 0158 00000000 		.word	.LC0
 1313 015c 00000000 		.word	Eng_A
 1314 0160 00000000 		.word	Eng_C
 1315 0164 00000000 		.word	Eng_D
 1316 0168 00000000 		.word	Eng_E
 1317 016c 00000000 		.word	Eng_F
 1318 0170 00000000 		.word	Eng_G
 1319 0174 00000000 		.word	Eng_H
 1320 0178 00000000 		.word	Eng_I
 1321 017c 00000000 		.word	Eng_J
 1322 0180 00000000 		.word	Eng_K
 1323 0184 00000000 		.word	Eng_L
 1324 0188 00000000 		.word	Eng_M
 1325 018c 00000000 		.word	Eng_N
 1326 0190 00000000 		.word	Eng_O
 1327 0194 00000000 		.word	Eng_P
 1328 0198 00000000 		.word	Eng_Q
 1329 019c 00000000 		.word	Eng_R
 1330 01a0 00000000 		.word	Eng_S
 1331 01a4 00000000 		.word	Eng_T
 1332 01a8 00000000 		.word	Eng_U
 1333 01ac 00000000 		.word	Eng_V
 1334 01b0 00000000 		.word	Eng_W
 1335 01b4 00000000 		.word	Eng_X
 1336 01b8 00000000 		.word	Eng_Y
 1337 01bc 00000000 		.word	Eng_Z
 1338 01c0 00000000 		.word	Eng_u
 1339 01c4 00000000 		.word	Eng_v
 1340 01c8 00000000 		.word	Eng_a
 1341 01cc 00000000 		.word	Eng_c
 1342 01d0 00000000 		.word	Eng_r
 1343 01d4 00000000 		.word	Ukr_k
 1344 01d8 00000000 		.word	Ukr_d
 1345 01dc 00000000 		.word	Eng_o
 1346 01e0 00000000 		.word	Ukr_g
ARM GAS  C:\Users\igorn\AppData\Local\Temp\ccyy5tub.s 			page 39


 1347 01e4 00000000 		.word	Ukr_ch
 1348 01e8 00000000 		.word	Space
 1349 01ec 00000000 		.word	Plus
 1350 01f0 00000000 		.word	Minus
 1351 01f4 00000000 		.word	Slash
 1352 01f8 00000000 		.word	Celcium
 1353 01fc 00000000 		.word	Dot
 1354 0200 00000000 		.word	DoubleDot
 1355 0204 00000000 		.word	FullSym
 1356 0208 00000000 		.word	Attemption
 1357 020c 00000000 		.word	Num_0
 1358 0210 00000000 		.word	Num_1
 1359 0214 00000000 		.word	Num_2
 1360 0218 00000000 		.word	Num_3
 1361 021c 00000000 		.word	Num_4
 1362 0220 00000000 		.word	Num_5
 1363 0224 00000000 		.word	Num_6
 1364 0228 00000000 		.word	Num_7
 1365 022c 00000000 		.word	Num_8
 1366 0230 00000000 		.word	Num_9
 1367 0234 00000000 		.word	Eng_B
 1368              		.cfi_endproc
 1369              	.LFE149:
 1371              		.section	.text.NOS_WS2812B_Matrix_SetSymvol,"ax",%progbits
 1372              		.align	1
 1373              		.global	NOS_WS2812B_Matrix_SetSymvol
 1374              		.syntax unified
 1375              		.thumb
 1376              		.thumb_func
 1378              	NOS_WS2812B_Matrix_SetSymvol:
 1379              	.LVL82:
 1380              	.LFB136:
 102:Core/Src/NOS_LIB_Driver/Src/WS2812B.c ****     uint8_t *buff = Symvol_GetBitMap(sym);
 1381              		.loc 1 102 1 view -0
 1382              		.cfi_startproc
 1383              		@ args = 0, pretend = 0, frame = 0
 1384              		@ frame_needed = 0, uses_anonymous_args = 0
 102:Core/Src/NOS_LIB_Driver/Src/WS2812B.c ****     uint8_t *buff = Symvol_GetBitMap(sym);
 1385              		.loc 1 102 1 is_stmt 0 view .LVU407
 1386 0000 38B5     		push	{r3, r4, r5, lr}
 1387              		.cfi_def_cfa_offset 16
 1388              		.cfi_offset 3, -16
 1389              		.cfi_offset 4, -12
 1390              		.cfi_offset 5, -8
 1391              		.cfi_offset 14, -4
 1392 0002 0546     		mov	r5, r0
 1393 0004 1446     		mov	r4, r2
 103:Core/Src/NOS_LIB_Driver/Src/WS2812B.c ****     for (int i = 0; i < 5; i++)
 1394              		.loc 1 103 5 is_stmt 1 view .LVU408
 103:Core/Src/NOS_LIB_Driver/Src/WS2812B.c ****     for (int i = 0; i < 5; i++)
 1395              		.loc 1 103 21 is_stmt 0 view .LVU409
 1396 0006 0846     		mov	r0, r1
 1397              	.LVL83:
 103:Core/Src/NOS_LIB_Driver/Src/WS2812B.c ****     for (int i = 0; i < 5; i++)
 1398              		.loc 1 103 21 view .LVU410
 1399 0008 FFF7FEFF 		bl	Symvol_GetBitMap
 1400              	.LVL84:
ARM GAS  C:\Users\igorn\AppData\Local\Temp\ccyy5tub.s 			page 40


 104:Core/Src/NOS_LIB_Driver/Src/WS2812B.c ****     {
 1401              		.loc 1 104 5 is_stmt 1 view .LVU411
 1402              	.LBB7:
 104:Core/Src/NOS_LIB_Driver/Src/WS2812B.c ****     {
 1403              		.loc 1 104 10 view .LVU412
 104:Core/Src/NOS_LIB_Driver/Src/WS2812B.c ****     {
 1404              		.loc 1 104 14 is_stmt 0 view .LVU413
 1405 000c 0023     		movs	r3, #0
 104:Core/Src/NOS_LIB_Driver/Src/WS2812B.c ****     {
 1406              		.loc 1 104 5 view .LVU414
 1407 000e 06E0     		b	.L116
 1408              	.LVL85:
 1409              	.L117:
 106:Core/Src/NOS_LIB_Driver/Src/WS2812B.c ****     }
 1410              		.loc 1 106 9 is_stmt 1 discriminator 3 view .LVU415
 106:Core/Src/NOS_LIB_Driver/Src/WS2812B.c ****     }
 1411              		.loc 1 106 15 is_stmt 0 discriminator 3 view .LVU416
 1412 0010 6969     		ldr	r1, [r5, #20]
 106:Core/Src/NOS_LIB_Driver/Src/WS2812B.c ****     }
 1413              		.loc 1 106 24 discriminator 3 view .LVU417
 1414 0012 04EB8402 		add	r2, r4, r4, lsl #2
 1415 0016 1144     		add	r1, r1, r2
 106:Core/Src/NOS_LIB_Driver/Src/WS2812B.c ****     }
 1416              		.loc 1 106 44 discriminator 3 view .LVU418
 1417 0018 C25C     		ldrb	r2, [r0, r3]	@ zero_extendqisi2
 106:Core/Src/NOS_LIB_Driver/Src/WS2812B.c ****     }
 1418              		.loc 1 106 38 discriminator 3 view .LVU419
 1419 001a CA54     		strb	r2, [r1, r3]
 104:Core/Src/NOS_LIB_Driver/Src/WS2812B.c ****     {
 1420              		.loc 1 104 29 is_stmt 1 discriminator 3 view .LVU420
 1421 001c 0133     		adds	r3, r3, #1
 1422              	.LVL86:
 1423              	.L116:
 104:Core/Src/NOS_LIB_Driver/Src/WS2812B.c ****     {
 1424              		.loc 1 104 23 discriminator 1 view .LVU421
 1425 001e 042B     		cmp	r3, #4
 1426 0020 F6DD     		ble	.L117
 1427              	.LBE7:
 108:Core/Src/NOS_LIB_Driver/Src/WS2812B.c **** 
 1428              		.loc 1 108 1 is_stmt 0 view .LVU422
 1429 0022 38BD     		pop	{r3, r4, r5, pc}
 108:Core/Src/NOS_LIB_Driver/Src/WS2812B.c **** 
 1430              		.loc 1 108 1 view .LVU423
 1431              		.cfi_endproc
 1432              	.LFE136:
 1434              		.section	.text.NOS_WS2812B_Matrix_PrintStaticString,"ax",%progbits
 1435              		.align	1
 1436              		.global	NOS_WS2812B_Matrix_PrintStaticString
 1437              		.syntax unified
 1438              		.thumb
 1439              		.thumb_func
 1441              	NOS_WS2812B_Matrix_PrintStaticString:
 1442              	.LVL87:
 1443              	.LFB137:
 111:Core/Src/NOS_LIB_Driver/Src/WS2812B.c ****     for (int i = startpos; i < startpos + lenght; i++)
 1444              		.loc 1 111 1 is_stmt 1 view -0
 1445              		.cfi_startproc
ARM GAS  C:\Users\igorn\AppData\Local\Temp\ccyy5tub.s 			page 41


 1446              		@ args = 0, pretend = 0, frame = 0
 1447              		@ frame_needed = 0, uses_anonymous_args = 0
 111:Core/Src/NOS_LIB_Driver/Src/WS2812B.c ****     for (int i = startpos; i < startpos + lenght; i++)
 1448              		.loc 1 111 1 is_stmt 0 view .LVU425
 1449 0000 2DE9F041 		push	{r4, r5, r6, r7, r8, lr}
 1450              		.cfi_def_cfa_offset 24
 1451              		.cfi_offset 4, -24
 1452              		.cfi_offset 5, -20
 1453              		.cfi_offset 6, -16
 1454              		.cfi_offset 7, -12
 1455              		.cfi_offset 8, -8
 1456              		.cfi_offset 14, -4
 1457 0004 8046     		mov	r8, r0
 1458 0006 0F46     		mov	r7, r1
 1459 0008 1546     		mov	r5, r2
 1460 000a 1E46     		mov	r6, r3
 112:Core/Src/NOS_LIB_Driver/Src/WS2812B.c ****     {
 1461              		.loc 1 112 5 is_stmt 1 view .LVU426
 1462              	.LBB8:
 112:Core/Src/NOS_LIB_Driver/Src/WS2812B.c ****     {
 1463              		.loc 1 112 10 view .LVU427
 1464              	.LVL88:
 112:Core/Src/NOS_LIB_Driver/Src/WS2812B.c ****     {
 1465              		.loc 1 112 14 is_stmt 0 view .LVU428
 1466 000c 1446     		mov	r4, r2
 112:Core/Src/NOS_LIB_Driver/Src/WS2812B.c ****     {
 1467              		.loc 1 112 5 view .LVU429
 1468 000e 08E0     		b	.L120
 1469              	.LVL89:
 1470              	.L121:
 114:Core/Src/NOS_LIB_Driver/Src/WS2812B.c ****     }
 1471              		.loc 1 114 9 is_stmt 1 discriminator 3 view .LVU430
 114:Core/Src/NOS_LIB_Driver/Src/WS2812B.c ****     }
 1472              		.loc 1 114 55 is_stmt 0 discriminator 3 view .LVU431
 1473 0010 A4EB050C 		sub	ip, r4, r5
 114:Core/Src/NOS_LIB_Driver/Src/WS2812B.c ****     }
 1474              		.loc 1 114 9 discriminator 3 view .LVU432
 1475 0014 E2B2     		uxtb	r2, r4
 1476 0016 17F80C10 		ldrb	r1, [r7, ip]	@ zero_extendqisi2
 1477 001a 4046     		mov	r0, r8
 1478 001c FFF7FEFF 		bl	NOS_WS2812B_Matrix_SetSymvol
 1479              	.LVL90:
 112:Core/Src/NOS_LIB_Driver/Src/WS2812B.c ****     {
 1480              		.loc 1 112 52 is_stmt 1 discriminator 3 view .LVU433
 1481 0020 0134     		adds	r4, r4, #1
 1482              	.LVL91:
 1483              	.L120:
 112:Core/Src/NOS_LIB_Driver/Src/WS2812B.c ****     {
 1484              		.loc 1 112 30 discriminator 1 view .LVU434
 112:Core/Src/NOS_LIB_Driver/Src/WS2812B.c ****     {
 1485              		.loc 1 112 41 is_stmt 0 discriminator 1 view .LVU435
 1486 0022 7219     		adds	r2, r6, r5
 112:Core/Src/NOS_LIB_Driver/Src/WS2812B.c ****     {
 1487              		.loc 1 112 30 discriminator 1 view .LVU436
 1488 0024 A242     		cmp	r2, r4
 1489 0026 F3DC     		bgt	.L121
 112:Core/Src/NOS_LIB_Driver/Src/WS2812B.c ****     {
ARM GAS  C:\Users\igorn\AppData\Local\Temp\ccyy5tub.s 			page 42


 1490              		.loc 1 112 30 discriminator 1 view .LVU437
 1491              	.LBE8:
 116:Core/Src/NOS_LIB_Driver/Src/WS2812B.c **** 
 1492              		.loc 1 116 1 view .LVU438
 1493 0028 BDE8F081 		pop	{r4, r5, r6, r7, r8, pc}
 116:Core/Src/NOS_LIB_Driver/Src/WS2812B.c **** 
 1494              		.loc 1 116 1 view .LVU439
 1495              		.cfi_endproc
 1496              	.LFE137:
 1498              		.section	.text.NOS_WS2812B_Matrix_PrintDynamicString,"ax",%progbits
 1499              		.align	1
 1500              		.global	NOS_WS2812B_Matrix_PrintDynamicString
 1501              		.syntax unified
 1502              		.thumb
 1503              		.thumb_func
 1505              	NOS_WS2812B_Matrix_PrintDynamicString:
 1506              	.LVL92:
 1507              	.LFB138:
 119:Core/Src/NOS_LIB_Driver/Src/WS2812B.c **** 
 1508              		.loc 1 119 1 is_stmt 1 view -0
 1509              		.cfi_startproc
 1510              		@ args = 4, pretend = 0, frame = 0
 1511              		@ frame_needed = 0, uses_anonymous_args = 0
 119:Core/Src/NOS_LIB_Driver/Src/WS2812B.c **** 
 1512              		.loc 1 119 1 is_stmt 0 view .LVU441
 1513 0000 2DE9F041 		push	{r4, r5, r6, r7, r8, lr}
 1514              		.cfi_def_cfa_offset 24
 1515              		.cfi_offset 4, -24
 1516              		.cfi_offset 5, -20
 1517              		.cfi_offset 6, -16
 1518              		.cfi_offset 7, -12
 1519              		.cfi_offset 8, -8
 1520              		.cfi_offset 14, -4
 1521 0004 0746     		mov	r7, r0
 1522 0006 0E46     		mov	r6, r1
 1523 0008 1546     		mov	r5, r2
 1524 000a 9DF81880 		ldrb	r8, [sp, #24]	@ zero_extendqisi2
 121:Core/Src/NOS_LIB_Driver/Src/WS2812B.c ****     {
 1525              		.loc 1 121 5 is_stmt 1 view .LVU442
 1526              	.LBB9:
 121:Core/Src/NOS_LIB_Driver/Src/WS2812B.c ****     {
 1527              		.loc 1 121 10 view .LVU443
 1528              	.LVL93:
 121:Core/Src/NOS_LIB_Driver/Src/WS2812B.c ****     {
 1529              		.loc 1 121 14 is_stmt 0 view .LVU444
 1530 000e 0024     		movs	r4, #0
 121:Core/Src/NOS_LIB_Driver/Src/WS2812B.c ****     {
 1531              		.loc 1 121 5 view .LVU445
 1532 0010 07E0     		b	.L124
 1533              	.LVL94:
 1534              	.L125:
 123:Core/Src/NOS_LIB_Driver/Src/WS2812B.c ****     }
 1535              		.loc 1 123 9 is_stmt 1 discriminator 3 view .LVU446
 123:Core/Src/NOS_LIB_Driver/Src/WS2812B.c ****     }
 1536              		.loc 1 123 55 is_stmt 0 discriminator 3 view .LVU447
 1537 0012 08EB0403 		add	r3, r8, r4
 123:Core/Src/NOS_LIB_Driver/Src/WS2812B.c ****     }
ARM GAS  C:\Users\igorn\AppData\Local\Temp\ccyy5tub.s 			page 43


 1538              		.loc 1 123 9 discriminator 3 view .LVU448
 1539 0016 E2B2     		uxtb	r2, r4
 1540 0018 F15C     		ldrb	r1, [r6, r3]	@ zero_extendqisi2
 1541 001a 3846     		mov	r0, r7
 1542 001c FFF7FEFF 		bl	NOS_WS2812B_Matrix_SetSymvol
 1543              	.LVL95:
 121:Core/Src/NOS_LIB_Driver/Src/WS2812B.c ****     {
 1544              		.loc 1 121 34 is_stmt 1 discriminator 3 view .LVU449
 1545 0020 0134     		adds	r4, r4, #1
 1546              	.LVL96:
 1547              	.L124:
 121:Core/Src/NOS_LIB_Driver/Src/WS2812B.c ****     {
 1548              		.loc 1 121 23 discriminator 1 view .LVU450
 1549 0022 A542     		cmp	r5, r4
 1550 0024 F5DC     		bgt	.L125
 1551              	.LBE9:
 127:Core/Src/NOS_LIB_Driver/Src/WS2812B.c **** 
 1552              		.loc 1 127 1 is_stmt 0 view .LVU451
 1553 0026 BDE8F081 		pop	{r4, r5, r6, r7, r8, pc}
 127:Core/Src/NOS_LIB_Driver/Src/WS2812B.c **** 
 1554              		.loc 1 127 1 view .LVU452
 1555              		.cfi_endproc
 1556              	.LFE138:
 1558              		.global	__aeabi_ui2d
 1559              		.global	__aeabi_i2d
 1560              		.global	__aeabi_ddiv
 1561              		.global	__aeabi_d2uiz
 1562              		.global	__aeabi_dmul
 1563              		.global	__aeabi_dsub
 1564              		.section	.text.NOS_WS2812B_Matrix_PrintIntNumber,"ax",%progbits
 1565              		.align	1
 1566              		.global	NOS_WS2812B_Matrix_PrintIntNumber
 1567              		.syntax unified
 1568              		.thumb
 1569              		.thumb_func
 1571              	NOS_WS2812B_Matrix_PrintIntNumber:
 1572              	.LVL97:
 1573              	.LFB139:
 130:Core/Src/NOS_LIB_Driver/Src/WS2812B.c **** 
 1574              		.loc 1 130 1 is_stmt 1 view -0
 1575              		.cfi_startproc
 1576              		@ args = 0, pretend = 0, frame = 24
 1577              		@ frame_needed = 0, uses_anonymous_args = 0
 130:Core/Src/NOS_LIB_Driver/Src/WS2812B.c **** 
 1578              		.loc 1 130 1 is_stmt 0 view .LVU454
 1579 0000 2DE9F04F 		push	{r4, r5, r6, r7, r8, r9, r10, fp, lr}
 1580              		.cfi_def_cfa_offset 36
 1581              		.cfi_offset 4, -36
 1582              		.cfi_offset 5, -32
 1583              		.cfi_offset 6, -28
 1584              		.cfi_offset 7, -24
 1585              		.cfi_offset 8, -20
 1586              		.cfi_offset 9, -16
 1587              		.cfi_offset 10, -12
 1588              		.cfi_offset 11, -8
 1589              		.cfi_offset 14, -4
 1590 0004 2DED048B 		vpush.64	{d8, d9}
ARM GAS  C:\Users\igorn\AppData\Local\Temp\ccyy5tub.s 			page 44


 1591              		.cfi_def_cfa_offset 52
 1592              		.cfi_offset 80, -52
 1593              		.cfi_offset 81, -48
 1594              		.cfi_offset 82, -44
 1595              		.cfi_offset 83, -40
 1596 0008 87B0     		sub	sp, sp, #28
 1597              		.cfi_def_cfa_offset 80
 1598 000a 0190     		str	r0, [sp, #4]
 1599 000c 0C46     		mov	r4, r1
 1600 000e 9346     		mov	fp, r2
 132:Core/Src/NOS_LIB_Driver/Src/WS2812B.c ****     int power = NOS_Math_GetNumberPower(num);
 1601              		.loc 1 132 5 is_stmt 1 view .LVU455
 1602              	.LVL98:
 133:Core/Src/NOS_LIB_Driver/Src/WS2812B.c ****     char buff[16];
 1603              		.loc 1 133 5 view .LVU456
 133:Core/Src/NOS_LIB_Driver/Src/WS2812B.c ****     char buff[16];
 1604              		.loc 1 133 17 is_stmt 0 view .LVU457
 1605 0010 0846     		mov	r0, r1
 1606              	.LVL99:
 133:Core/Src/NOS_LIB_Driver/Src/WS2812B.c ****     char buff[16];
 1607              		.loc 1 133 17 view .LVU458
 1608 0012 FFF7FEFF 		bl	NOS_Math_GetNumberPower
 1609              	.LVL100:
 134:Core/Src/NOS_LIB_Driver/Src/WS2812B.c **** 
 1610              		.loc 1 134 5 is_stmt 1 view .LVU459
 136:Core/Src/NOS_LIB_Driver/Src/WS2812B.c ****     {
 1611              		.loc 1 136 5 view .LVU460
 1612              	.LBB10:
 136:Core/Src/NOS_LIB_Driver/Src/WS2812B.c ****     {
 1613              		.loc 1 136 10 view .LVU461
 136:Core/Src/NOS_LIB_Driver/Src/WS2812B.c ****     {
 1614              		.loc 1 136 14 is_stmt 0 view .LVU462
 1615 0016 471E     		subs	r7, r0, #1
 1616              	.LVL101:
 136:Core/Src/NOS_LIB_Driver/Src/WS2812B.c ****     {
 1617              		.loc 1 136 14 view .LVU463
 1618              	.LBE10:
 132:Core/Src/NOS_LIB_Driver/Src/WS2812B.c ****     int power = NOS_Math_GetNumberPower(num);
 1619              		.loc 1 132 9 view .LVU464
 1620 0018 4FF0000A 		mov	r10, #0
 1621              	.LBB12:
 136:Core/Src/NOS_LIB_Driver/Src/WS2812B.c ****     {
 1622              		.loc 1 136 5 view .LVU465
 1623 001c 42E0     		b	.L128
 1624              	.LVL102:
 1625              	.L129:
 1626              	.LBB11:
 138:Core/Src/NOS_LIB_Driver/Src/WS2812B.c ****         num = num - (buff[a] * pow(10, i));
 1627              		.loc 1 138 9 is_stmt 1 discriminator 3 view .LVU466
 138:Core/Src/NOS_LIB_Driver/Src/WS2812B.c ****         num = num - (buff[a] * pow(10, i));
 1628              		.loc 1 138 23 is_stmt 0 discriminator 3 view .LVU467
 1629 001e 2046     		mov	r0, r4
 1630 0020 FFF7FEFF 		bl	__aeabi_ui2d
 1631              	.LVL103:
 1632 0024 0446     		mov	r4, r0
 1633              	.LVL104:
 138:Core/Src/NOS_LIB_Driver/Src/WS2812B.c ****         num = num - (buff[a] * pow(10, i));
ARM GAS  C:\Users\igorn\AppData\Local\Temp\ccyy5tub.s 			page 45


 1634              		.loc 1 138 23 discriminator 3 view .LVU468
 1635 0026 0D46     		mov	r5, r1
 138:Core/Src/NOS_LIB_Driver/Src/WS2812B.c ****         num = num - (buff[a] * pow(10, i));
 1636              		.loc 1 138 25 discriminator 3 view .LVU469
 1637 0028 3846     		mov	r0, r7
 1638 002a FFF7FEFF 		bl	__aeabi_i2d
 1639              	.LVL105:
 1640 002e 41EC180B 		vmov	d8, r0, r1
 1641 0032 9FED319B 		vldr.64	d9, .L133
 1642 0036 B0EE481A 		vmov.f32	s2, s16
 1643 003a F0EE681A 		vmov.f32	s3, s17
 1644 003e B0EE490A 		vmov.f32	s0, s18
 1645 0042 F0EE690A 		vmov.f32	s1, s19
 1646 0046 FFF7FEFF 		bl	pow
 1647              	.LVL106:
 1648 004a 53EC102B 		vmov	r2, r3, d0
 138:Core/Src/NOS_LIB_Driver/Src/WS2812B.c ****         num = num - (buff[a] * pow(10, i));
 1649              		.loc 1 138 23 discriminator 3 view .LVU470
 1650 004e 2046     		mov	r0, r4
 1651 0050 2946     		mov	r1, r5
 1652 0052 FFF7FEFF 		bl	__aeabi_ddiv
 1653              	.LVL107:
 138:Core/Src/NOS_LIB_Driver/Src/WS2812B.c ****         num = num - (buff[a] * pow(10, i));
 1654              		.loc 1 138 17 discriminator 3 view .LVU471
 1655 0056 FFF7FEFF 		bl	__aeabi_d2uiz
 1656              	.LVL108:
 1657 005a C6B2     		uxtb	r6, r0
 1658 005c 0AF11803 		add	r3, r10, #24
 1659 0060 6B44     		add	r3, sp, r3
 1660 0062 03F8106C 		strb	r6, [r3, #-16]
 139:Core/Src/NOS_LIB_Driver/Src/WS2812B.c ****         a++;
 1661              		.loc 1 139 9 is_stmt 1 discriminator 3 view .LVU472
 139:Core/Src/NOS_LIB_Driver/Src/WS2812B.c ****         a++;
 1662              		.loc 1 139 32 is_stmt 0 discriminator 3 view .LVU473
 1663 0066 B0EE481A 		vmov.f32	s2, s16
 1664 006a F0EE681A 		vmov.f32	s3, s17
 1665 006e B0EE490A 		vmov.f32	s0, s18
 1666 0072 F0EE690A 		vmov.f32	s1, s19
 1667 0076 FFF7FEFF 		bl	pow
 1668              	.LVL109:
 1669 007a 59EC108B 		vmov	r8, r9, d0
 139:Core/Src/NOS_LIB_Driver/Src/WS2812B.c ****         a++;
 1670              		.loc 1 139 30 discriminator 3 view .LVU474
 1671 007e 3046     		mov	r0, r6
 1672 0080 FFF7FEFF 		bl	__aeabi_i2d
 1673              	.LVL110:
 1674 0084 4246     		mov	r2, r8
 1675 0086 4B46     		mov	r3, r9
 1676 0088 FFF7FEFF 		bl	__aeabi_dmul
 1677              	.LVL111:
 1678 008c 0246     		mov	r2, r0
 1679 008e 0B46     		mov	r3, r1
 139:Core/Src/NOS_LIB_Driver/Src/WS2812B.c ****         a++;
 1680              		.loc 1 139 19 discriminator 3 view .LVU475
 1681 0090 2046     		mov	r0, r4
 1682 0092 2946     		mov	r1, r5
 1683 0094 FFF7FEFF 		bl	__aeabi_dsub
ARM GAS  C:\Users\igorn\AppData\Local\Temp\ccyy5tub.s 			page 46


 1684              	.LVL112:
 139:Core/Src/NOS_LIB_Driver/Src/WS2812B.c ****         a++;
 1685              		.loc 1 139 13 discriminator 3 view .LVU476
 1686 0098 FFF7FEFF 		bl	__aeabi_d2uiz
 1687              	.LVL113:
 1688 009c 0446     		mov	r4, r0
 1689              	.LVL114:
 140:Core/Src/NOS_LIB_Driver/Src/WS2812B.c ****     }
 1690              		.loc 1 140 9 is_stmt 1 discriminator 3 view .LVU477
 140:Core/Src/NOS_LIB_Driver/Src/WS2812B.c ****     }
 1691              		.loc 1 140 10 is_stmt 0 discriminator 3 view .LVU478
 1692 009e 0AF1010A 		add	r10, r10, #1
 1693              	.LVL115:
 140:Core/Src/NOS_LIB_Driver/Src/WS2812B.c ****     }
 1694              		.loc 1 140 10 discriminator 3 view .LVU479
 1695              	.LBE11:
 136:Core/Src/NOS_LIB_Driver/Src/WS2812B.c ****     {
 1696              		.loc 1 136 37 is_stmt 1 discriminator 3 view .LVU480
 1697 00a2 013F     		subs	r7, r7, #1
 1698              	.LVL116:
 1699              	.L128:
 136:Core/Src/NOS_LIB_Driver/Src/WS2812B.c ****     {
 1700              		.loc 1 136 31 discriminator 1 view .LVU481
 1701 00a4 002F     		cmp	r7, #0
 1702 00a6 BADC     		bgt	.L129
 136:Core/Src/NOS_LIB_Driver/Src/WS2812B.c ****     {
 1703              		.loc 1 136 31 is_stmt 0 discriminator 1 view .LVU482
 1704              	.LBE12:
 143:Core/Src/NOS_LIB_Driver/Src/WS2812B.c **** 
 1705              		.loc 1 143 5 is_stmt 1 view .LVU483
 143:Core/Src/NOS_LIB_Driver/Src/WS2812B.c **** 
 1706              		.loc 1 143 19 is_stmt 0 view .LVU484
 1707 00a8 154B     		ldr	r3, .L133+8
 1708 00aa A3FB0423 		umull	r2, r3, r3, r4
 1709 00ae DB08     		lsrs	r3, r3, #3
 1710 00b0 03EB8303 		add	r3, r3, r3, lsl #2
 1711 00b4 A4EB4303 		sub	r3, r4, r3, lsl #1
 143:Core/Src/NOS_LIB_Driver/Src/WS2812B.c **** 
 1712              		.loc 1 143 13 view .LVU485
 1713 00b8 0AF11802 		add	r2, r10, #24
 1714 00bc 6A44     		add	r2, sp, r2
 1715 00be 02F8103C 		strb	r3, [r2, #-16]
 145:Core/Src/NOS_LIB_Driver/Src/WS2812B.c ****     {
 1716              		.loc 1 145 5 is_stmt 1 view .LVU486
 1717              	.LBB13:
 145:Core/Src/NOS_LIB_Driver/Src/WS2812B.c ****     {
 1718              		.loc 1 145 10 view .LVU487
 1719              	.LVL117:
 145:Core/Src/NOS_LIB_Driver/Src/WS2812B.c ****     {
 1720              		.loc 1 145 14 is_stmt 0 view .LVU488
 1721 00c2 0024     		movs	r4, #0
 1722              	.LVL118:
 145:Core/Src/NOS_LIB_Driver/Src/WS2812B.c ****     {
 1723              		.loc 1 145 5 view .LVU489
 1724 00c4 0FE0     		b	.L130
 1725              	.LVL119:
 1726              	.L131:
ARM GAS  C:\Users\igorn\AppData\Local\Temp\ccyy5tub.s 			page 47


 147:Core/Src/NOS_LIB_Driver/Src/WS2812B.c ****         NOS_WS2812B_Matrix_SetSymvol(matrix, buff[i], i + startpos);
 1727              		.loc 1 147 9 is_stmt 1 discriminator 3 view .LVU490
 147:Core/Src/NOS_LIB_Driver/Src/WS2812B.c ****         NOS_WS2812B_Matrix_SetSymvol(matrix, buff[i], i + startpos);
 1728              		.loc 1 147 13 is_stmt 0 discriminator 3 view .LVU491
 1729 00c6 04F11803 		add	r3, r4, #24
 1730 00ca 6B44     		add	r3, sp, r3
 1731 00cc 13F8101C 		ldrb	r1, [r3, #-16]	@ zero_extendqisi2
 147:Core/Src/NOS_LIB_Driver/Src/WS2812B.c ****         NOS_WS2812B_Matrix_SetSymvol(matrix, buff[i], i + startpos);
 1732              		.loc 1 147 17 discriminator 3 view .LVU492
 1733 00d0 3031     		adds	r1, r1, #48
 1734 00d2 C9B2     		uxtb	r1, r1
 1735 00d4 03F8101C 		strb	r1, [r3, #-16]
 148:Core/Src/NOS_LIB_Driver/Src/WS2812B.c ****     }
 1736              		.loc 1 148 9 is_stmt 1 discriminator 3 view .LVU493
 1737 00d8 0BEB0402 		add	r2, fp, r4
 1738 00dc D2B2     		uxtb	r2, r2
 1739 00de 0198     		ldr	r0, [sp, #4]
 1740 00e0 FFF7FEFF 		bl	NOS_WS2812B_Matrix_SetSymvol
 1741              	.LVL120:
 145:Core/Src/NOS_LIB_Driver/Src/WS2812B.c ****     {
 1742              		.loc 1 145 33 discriminator 3 view .LVU494
 1743 00e4 0134     		adds	r4, r4, #1
 1744              	.LVL121:
 1745              	.L130:
 145:Core/Src/NOS_LIB_Driver/Src/WS2812B.c ****     {
 1746              		.loc 1 145 23 discriminator 1 view .LVU495
 1747 00e6 A245     		cmp	r10, r4
 1748 00e8 EDDA     		bge	.L131
 1749              	.LBE13:
 150:Core/Src/NOS_LIB_Driver/Src/WS2812B.c **** 
 1750              		.loc 1 150 1 is_stmt 0 view .LVU496
 1751 00ea 07B0     		add	sp, sp, #28
 1752              		.cfi_def_cfa_offset 52
 1753              		@ sp needed
 1754 00ec BDEC048B 		vldm	sp!, {d8-d9}
 1755              		.cfi_restore 82
 1756              		.cfi_restore 83
 1757              		.cfi_restore 80
 1758              		.cfi_restore 81
 1759              		.cfi_def_cfa_offset 36
 1760 00f0 BDE8F08F 		pop	{r4, r5, r6, r7, r8, r9, r10, fp, pc}
 1761              	.LVL122:
 1762              	.L134:
 150:Core/Src/NOS_LIB_Driver/Src/WS2812B.c **** 
 1763              		.loc 1 150 1 view .LVU497
 1764 00f4 AFF30080 		.align	3
 1765              	.L133:
 1766 00f8 00000000 		.word	0
 1767 00fc 00002440 		.word	1076101120
 1768 0100 CDCCCCCC 		.word	-858993459
 1769              		.cfi_endproc
 1770              	.LFE139:
 1772              		.section	.rodata.NOS_WS2812B_Matrix_PrintFloatNumber.str1.4,"aMS",%progbits,1
 1773              		.align	2
 1774              	.LC1:
 1775 0000 2E00     		.ascii	".\000"
 1776              		.section	.text.NOS_WS2812B_Matrix_PrintFloatNumber,"ax",%progbits
ARM GAS  C:\Users\igorn\AppData\Local\Temp\ccyy5tub.s 			page 48


 1777              		.align	1
 1778              		.global	NOS_WS2812B_Matrix_PrintFloatNumber
 1779              		.syntax unified
 1780              		.thumb
 1781              		.thumb_func
 1783              	NOS_WS2812B_Matrix_PrintFloatNumber:
 1784              	.LVL123:
 1785              	.LFB140:
 153:Core/Src/NOS_LIB_Driver/Src/WS2812B.c ****     if (num > 0.0f)
 1786              		.loc 1 153 1 is_stmt 1 view -0
 1787              		.cfi_startproc
 1788              		@ args = 0, pretend = 0, frame = 0
 1789              		@ frame_needed = 0, uses_anonymous_args = 0
 154:Core/Src/NOS_LIB_Driver/Src/WS2812B.c ****     {
 1790              		.loc 1 154 5 view .LVU499
 154:Core/Src/NOS_LIB_Driver/Src/WS2812B.c ****     {
 1791              		.loc 1 154 8 is_stmt 0 view .LVU500
 1792 0000 B5EEC00A 		vcmpe.f32	s0, #0
 1793 0004 F1EE10FA 		vmrs	APSR_nzcv, FPSCR
 1794 0008 00DC     		bgt	.L143
 1795 000a 7047     		bx	lr
 1796              	.L143:
 153:Core/Src/NOS_LIB_Driver/Src/WS2812B.c ****     if (num > 0.0f)
 1797              		.loc 1 153 1 view .LVU501
 1798 000c 70B5     		push	{r4, r5, r6, lr}
 1799              		.cfi_def_cfa_offset 16
 1800              		.cfi_offset 4, -16
 1801              		.cfi_offset 5, -12
 1802              		.cfi_offset 6, -8
 1803              		.cfi_offset 14, -4
 1804 000e 2DED028B 		vpush.64	{d8}
 1805              		.cfi_def_cfa_offset 24
 1806              		.cfi_offset 80, -24
 1807              		.cfi_offset 81, -20
 1808 0012 0546     		mov	r5, r0
 1809 0014 0E46     		mov	r6, r1
 1810              	.LBB14:
 156:Core/Src/NOS_LIB_Driver/Src/WS2812B.c ****         float after = num - (float)before;
 1811              		.loc 1 156 9 is_stmt 1 view .LVU502
 156:Core/Src/NOS_LIB_Driver/Src/WS2812B.c ****         float after = num - (float)before;
 1812              		.loc 1 156 13 is_stmt 0 view .LVU503
 1813 0016 FDEEC08A 		vcvt.s32.f32	s17, s0
 1814              	.LVL124:
 157:Core/Src/NOS_LIB_Driver/Src/WS2812B.c ****         int af = after * 100;
 1815              		.loc 1 157 9 is_stmt 1 view .LVU504
 157:Core/Src/NOS_LIB_Driver/Src/WS2812B.c ****         int af = after * 100;
 1816              		.loc 1 157 29 is_stmt 0 view .LVU505
 1817 001a F8EEE87A 		vcvt.f32.s32	s15, s17
 157:Core/Src/NOS_LIB_Driver/Src/WS2812B.c ****         int af = after * 100;
 1818              		.loc 1 157 15 view .LVU506
 1819 001e 30EE678A 		vsub.f32	s16, s0, s15
 1820              	.LVL125:
 158:Core/Src/NOS_LIB_Driver/Src/WS2812B.c ****         int pow = NOS_Math_GetNumberPower(before);
 1821              		.loc 1 158 9 is_stmt 1 view .LVU507
 158:Core/Src/NOS_LIB_Driver/Src/WS2812B.c ****         int pow = NOS_Math_GetNumberPower(before);
 1822              		.loc 1 158 24 is_stmt 0 view .LVU508
 1823 0022 DFED127A 		vldr.32	s15, .L144
ARM GAS  C:\Users\igorn\AppData\Local\Temp\ccyy5tub.s 			page 49


 1824 0026 28EE278A 		vmul.f32	s16, s16, s15
 1825              	.LVL126:
 158:Core/Src/NOS_LIB_Driver/Src/WS2812B.c ****         int pow = NOS_Math_GetNumberPower(before);
 1826              		.loc 1 158 13 view .LVU509
 1827 002a BDEEC88A 		vcvt.s32.f32	s16, s16
 1828              	.LVL127:
 159:Core/Src/NOS_LIB_Driver/Src/WS2812B.c ****         NOS_WS2812B_Matrix_PrintIntNumber(matrix, before, startpos, pow);
 1829              		.loc 1 159 9 is_stmt 1 view .LVU510
 159:Core/Src/NOS_LIB_Driver/Src/WS2812B.c ****         NOS_WS2812B_Matrix_PrintIntNumber(matrix, before, startpos, pow);
 1830              		.loc 1 159 19 is_stmt 0 view .LVU511
 1831 002e 18EE900A 		vmov	r0, s17	@ int
 1832              	.LVL128:
 159:Core/Src/NOS_LIB_Driver/Src/WS2812B.c ****         NOS_WS2812B_Matrix_PrintIntNumber(matrix, before, startpos, pow);
 1833              		.loc 1 159 19 view .LVU512
 1834 0032 FFF7FEFF 		bl	NOS_Math_GetNumberPower
 1835              	.LVL129:
 160:Core/Src/NOS_LIB_Driver/Src/WS2812B.c ****         NOS_WS2812B_Matrix_PrintStaticString(matrix, ".", startpos + pow, 1);
 1836              		.loc 1 160 9 is_stmt 1 view .LVU513
 1837 0036 C4B2     		uxtb	r4, r0
 1838 0038 2346     		mov	r3, r4
 1839 003a 3246     		mov	r2, r6
 1840 003c 18EE901A 		vmov	r1, s17	@ int
 1841 0040 2846     		mov	r0, r5
 1842              	.LVL130:
 160:Core/Src/NOS_LIB_Driver/Src/WS2812B.c ****         NOS_WS2812B_Matrix_PrintStaticString(matrix, ".", startpos + pow, 1);
 1843              		.loc 1 160 9 is_stmt 0 view .LVU514
 1844 0042 FFF7FEFF 		bl	NOS_WS2812B_Matrix_PrintIntNumber
 1845              	.LVL131:
 161:Core/Src/NOS_LIB_Driver/Src/WS2812B.c ****         NOS_WS2812B_Matrix_PrintIntNumber(matrix, af, startpos + pow + 1, 2);
 1846              		.loc 1 161 9 is_stmt 1 view .LVU515
 1847 0046 3444     		add	r4, r4, r6
 1848 0048 E4B2     		uxtb	r4, r4
 1849 004a 0123     		movs	r3, #1
 1850 004c 2246     		mov	r2, r4
 1851 004e 0849     		ldr	r1, .L144+4
 1852 0050 2846     		mov	r0, r5
 1853 0052 FFF7FEFF 		bl	NOS_WS2812B_Matrix_PrintStaticString
 1854              	.LVL132:
 162:Core/Src/NOS_LIB_Driver/Src/WS2812B.c ****     }
 1855              		.loc 1 162 9 view .LVU516
 1856 0056 621C     		adds	r2, r4, #1
 1857 0058 0223     		movs	r3, #2
 1858 005a D2B2     		uxtb	r2, r2
 1859 005c 18EE101A 		vmov	r1, s16	@ int
 1860 0060 2846     		mov	r0, r5
 1861 0062 FFF7FEFF 		bl	NOS_WS2812B_Matrix_PrintIntNumber
 1862              	.LVL133:
 1863              	.LBE14:
 164:Core/Src/NOS_LIB_Driver/Src/WS2812B.c **** 
 1864              		.loc 1 164 1 is_stmt 0 view .LVU517
 1865 0066 BDEC028B 		vldm	sp!, {d8}
 1866              		.cfi_restore 80
 1867              		.cfi_restore 81
 1868              		.cfi_def_cfa_offset 16
 1869              	.LVL134:
 164:Core/Src/NOS_LIB_Driver/Src/WS2812B.c **** 
 1870              		.loc 1 164 1 view .LVU518
ARM GAS  C:\Users\igorn\AppData\Local\Temp\ccyy5tub.s 			page 50


 1871 006a 70BD     		pop	{r4, r5, r6, pc}
 1872              	.LVL135:
 1873              	.L145:
 164:Core/Src/NOS_LIB_Driver/Src/WS2812B.c **** 
 1874              		.loc 1 164 1 view .LVU519
 1875              		.align	2
 1876              	.L144:
 1877 006c 0000C842 		.word	1120403456
 1878 0070 00000000 		.word	.LC1
 1879              		.cfi_endproc
 1880              	.LFE140:
 1882              		.section	.text.NOS_WS2812B_Matrix_PrintRealTime,"ax",%progbits
 1883              		.align	1
 1884              		.global	NOS_WS2812B_Matrix_PrintRealTime
 1885              		.syntax unified
 1886              		.thumb
 1887              		.thumb_func
 1889              	NOS_WS2812B_Matrix_PrintRealTime:
 1890              	.LVL136:
 1891              	.LFB141:
 167:Core/Src/NOS_LIB_Driver/Src/WS2812B.c ****     int startpos = 0;
 1892              		.loc 1 167 1 is_stmt 1 view -0
 1893              		.cfi_startproc
 1894              		@ args = 0, pretend = 0, frame = 8
 1895              		@ frame_needed = 0, uses_anonymous_args = 0
 167:Core/Src/NOS_LIB_Driver/Src/WS2812B.c ****     int startpos = 0;
 1896              		.loc 1 167 1 is_stmt 0 view .LVU521
 1897 0000 2DE9F043 		push	{r4, r5, r6, r7, r8, r9, lr}
 1898              		.cfi_def_cfa_offset 28
 1899              		.cfi_offset 4, -28
 1900              		.cfi_offset 5, -24
 1901              		.cfi_offset 6, -20
 1902              		.cfi_offset 7, -16
 1903              		.cfi_offset 8, -12
 1904              		.cfi_offset 9, -8
 1905              		.cfi_offset 14, -4
 1906 0004 83B0     		sub	sp, sp, #12
 1907              		.cfi_def_cfa_offset 40
 1908 0006 0546     		mov	r5, r0
 1909 0008 02AB     		add	r3, sp, #8
 1910 000a 03E90600 		stmdb	r3, {r1, r2}
 168:Core/Src/NOS_LIB_Driver/Src/WS2812B.c ****     if (rt.format == Hour24)
 1911              		.loc 1 168 5 is_stmt 1 view .LVU522
 1912              	.LVL137:
 169:Core/Src/NOS_LIB_Driver/Src/WS2812B.c ****     {
 1913              		.loc 1 169 5 view .LVU523
 169:Core/Src/NOS_LIB_Driver/Src/WS2812B.c ****     {
 1914              		.loc 1 169 11 is_stmt 0 view .LVU524
 1915 000e 9DF80730 		ldrb	r3, [sp, #7]	@ zero_extendqisi2
 169:Core/Src/NOS_LIB_Driver/Src/WS2812B.c ****     {
 1916              		.loc 1 169 8 view .LVU525
 1917 0012 6BB3     		cbz	r3, .L153
 168:Core/Src/NOS_LIB_Driver/Src/WS2812B.c ****     if (rt.format == Hour24)
 1918              		.loc 1 168 9 view .LVU526
 1919 0014 4FF00009 		mov	r9, #0
 1920              	.L147:
 1921              	.LVL138:
ARM GAS  C:\Users\igorn\AppData\Local\Temp\ccyy5tub.s 			page 51


 174:Core/Src/NOS_LIB_Driver/Src/WS2812B.c ****     {
 1922              		.loc 1 174 5 is_stmt 1 view .LVU527
 174:Core/Src/NOS_LIB_Driver/Src/WS2812B.c ****     {
 1923              		.loc 1 174 8 is_stmt 0 view .LVU528
 1924 0018 012B     		cmp	r3, #1
 1925 001a 4FD1     		bne	.L148
 176:Core/Src/NOS_LIB_Driver/Src/WS2812B.c ****         {
 1926              		.loc 1 176 9 is_stmt 1 view .LVU529
 176:Core/Src/NOS_LIB_Driver/Src/WS2812B.c ****         {
 1927              		.loc 1 176 15 is_stmt 0 view .LVU530
 1928 001c 9DF80440 		ldrb	r4, [sp, #4]	@ zero_extendqisi2
 176:Core/Src/NOS_LIB_Driver/Src/WS2812B.c ****         {
 1929              		.loc 1 176 12 view .LVU531
 1930 0020 0C2C     		cmp	r4, #12
 1931 0022 28D9     		bls	.L149
 178:Core/Src/NOS_LIB_Driver/Src/WS2812B.c ****             NOS_WS2812B_Matrix_SetSymvol(matrix, (char)(rt.hour - 12) % 10 + 48, startpos + 1);
 1932              		.loc 1 178 13 is_stmt 1 view .LVU532
 178:Core/Src/NOS_LIB_Driver/Src/WS2812B.c ****             NOS_WS2812B_Matrix_SetSymvol(matrix, (char)(rt.hour - 12) % 10 + 48, startpos + 1);
 1933              		.loc 1 178 50 is_stmt 0 view .LVU533
 1934 0024 0C3C     		subs	r4, r4, #12
 1935 0026 E4B2     		uxtb	r4, r4
 178:Core/Src/NOS_LIB_Driver/Src/WS2812B.c ****             NOS_WS2812B_Matrix_SetSymvol(matrix, (char)(rt.hour - 12) % 10 + 48, startpos + 1);
 1936              		.loc 1 178 13 view .LVU534
 1937 0028 5FFA89F7 		uxtb	r7, r9
 1938 002c 574E     		ldr	r6, .L155
 1939 002e A6FB0436 		umull	r3, r6, r6, r4
 1940 0032 F608     		lsrs	r6, r6, #3
 1941 0034 3A46     		mov	r2, r7
 1942 0036 06F13001 		add	r1, r6, #48
 1943 003a 2846     		mov	r0, r5
 1944              	.LVL139:
 178:Core/Src/NOS_LIB_Driver/Src/WS2812B.c ****             NOS_WS2812B_Matrix_SetSymvol(matrix, (char)(rt.hour - 12) % 10 + 48, startpos + 1);
 1945              		.loc 1 178 13 view .LVU535
 1946 003c FFF7FEFF 		bl	NOS_WS2812B_Matrix_SetSymvol
 1947              	.LVL140:
 179:Core/Src/NOS_LIB_Driver/Src/WS2812B.c ****             NOS_WS2812B_Matrix_SetSymvol(matrix, 'P', startpos + 8);
 1948              		.loc 1 179 13 is_stmt 1 view .LVU536
 1949 0040 06EB8606 		add	r6, r6, r6, lsl #2
 1950 0044 A4EB4604 		sub	r4, r4, r6, lsl #1
 1951 0048 04F13001 		add	r1, r4, #48
 1952 004c 7A1C     		adds	r2, r7, #1
 1953 004e C9B2     		uxtb	r1, r1
 1954 0050 2846     		mov	r0, r5
 1955 0052 FFF7FEFF 		bl	NOS_WS2812B_Matrix_SetSymvol
 1956              	.LVL141:
 180:Core/Src/NOS_LIB_Driver/Src/WS2812B.c ****             NOS_WS2812B_Matrix_SetSymvol(matrix, 'M', startpos + 9);
 1957              		.loc 1 180 13 view .LVU537
 1958 0056 07F10802 		add	r2, r7, #8
 1959 005a 5021     		movs	r1, #80
 1960 005c 2846     		mov	r0, r5
 1961 005e FFF7FEFF 		bl	NOS_WS2812B_Matrix_SetSymvol
 1962              	.LVL142:
 181:Core/Src/NOS_LIB_Driver/Src/WS2812B.c ****         }
 1963              		.loc 1 181 13 view .LVU538
 1964 0062 07F10902 		add	r2, r7, #9
 1965 0066 4D21     		movs	r1, #77
 1966 0068 2846     		mov	r0, r5
ARM GAS  C:\Users\igorn\AppData\Local\Temp\ccyy5tub.s 			page 52


 1967 006a FFF7FEFF 		bl	NOS_WS2812B_Matrix_SetSymvol
 1968              	.LVL143:
 1969 006e 43E0     		b	.L150
 1970              	.LVL144:
 1971              	.L153:
 171:Core/Src/NOS_LIB_Driver/Src/WS2812B.c ****     }
 1972              		.loc 1 171 18 is_stmt 0 view .LVU539
 1973 0070 4FF00109 		mov	r9, #1
 1974 0074 D0E7     		b	.L147
 1975              	.LVL145:
 1976              	.L149:
 185:Core/Src/NOS_LIB_Driver/Src/WS2812B.c ****             NOS_WS2812B_Matrix_SetSymvol(matrix, (char)(rt.hour) % 10 + 48, startpos + 1);
 1977              		.loc 1 185 13 is_stmt 1 view .LVU540
 1978 0076 5FFA89F7 		uxtb	r7, r9
 1979 007a 444E     		ldr	r6, .L155
 1980 007c A6FB0436 		umull	r3, r6, r6, r4
 1981 0080 F608     		lsrs	r6, r6, #3
 1982 0082 3A46     		mov	r2, r7
 1983 0084 06F13001 		add	r1, r6, #48
 1984 0088 2846     		mov	r0, r5
 1985              	.LVL146:
 185:Core/Src/NOS_LIB_Driver/Src/WS2812B.c ****             NOS_WS2812B_Matrix_SetSymvol(matrix, (char)(rt.hour) % 10 + 48, startpos + 1);
 1986              		.loc 1 185 13 is_stmt 0 view .LVU541
 1987 008a FFF7FEFF 		bl	NOS_WS2812B_Matrix_SetSymvol
 1988              	.LVL147:
 186:Core/Src/NOS_LIB_Driver/Src/WS2812B.c ****             NOS_WS2812B_Matrix_SetSymvol(matrix, 'A', startpos + 8);
 1989              		.loc 1 186 13 is_stmt 1 view .LVU542
 1990 008e 06EB8606 		add	r6, r6, r6, lsl #2
 1991 0092 A4EB4601 		sub	r1, r4, r6, lsl #1
 1992 0096 3031     		adds	r1, r1, #48
 1993 0098 7A1C     		adds	r2, r7, #1
 1994 009a C9B2     		uxtb	r1, r1
 1995 009c 2846     		mov	r0, r5
 1996 009e FFF7FEFF 		bl	NOS_WS2812B_Matrix_SetSymvol
 1997              	.LVL148:
 187:Core/Src/NOS_LIB_Driver/Src/WS2812B.c ****             NOS_WS2812B_Matrix_SetSymvol(matrix, 'M', startpos + 9);
 1998              		.loc 1 187 13 view .LVU543
 1999 00a2 07F10802 		add	r2, r7, #8
 2000 00a6 4121     		movs	r1, #65
 2001 00a8 2846     		mov	r0, r5
 2002 00aa FFF7FEFF 		bl	NOS_WS2812B_Matrix_SetSymvol
 2003              	.LVL149:
 188:Core/Src/NOS_LIB_Driver/Src/WS2812B.c ****         }
 2004              		.loc 1 188 13 view .LVU544
 2005 00ae 07F10902 		add	r2, r7, #9
 2006 00b2 4D21     		movs	r1, #77
 2007 00b4 2846     		mov	r0, r5
 2008 00b6 FFF7FEFF 		bl	NOS_WS2812B_Matrix_SetSymvol
 2009              	.LVL150:
 2010 00ba 1DE0     		b	.L150
 2011              	.LVL151:
 2012              	.L148:
 193:Core/Src/NOS_LIB_Driver/Src/WS2812B.c ****         NOS_WS2812B_Matrix_SetSymvol(matrix, (char)(rt.hour) % 10 + 48, startpos + 1);
 2013              		.loc 1 193 9 view .LVU545
 193:Core/Src/NOS_LIB_Driver/Src/WS2812B.c ****         NOS_WS2812B_Matrix_SetSymvol(matrix, (char)(rt.hour) % 10 + 48, startpos + 1);
 2014              		.loc 1 193 55 is_stmt 0 view .LVU546
 2015 00bc 9DF80460 		ldrb	r6, [sp, #4]	@ zero_extendqisi2
ARM GAS  C:\Users\igorn\AppData\Local\Temp\ccyy5tub.s 			page 53


 193:Core/Src/NOS_LIB_Driver/Src/WS2812B.c ****         NOS_WS2812B_Matrix_SetSymvol(matrix, (char)(rt.hour) % 10 + 48, startpos + 1);
 2016              		.loc 1 193 9 view .LVU547
 2017 00c0 5FFA89F7 		uxtb	r7, r9
 2018 00c4 314C     		ldr	r4, .L155
 2019 00c6 A4FB0634 		umull	r3, r4, r4, r6
 2020 00ca E408     		lsrs	r4, r4, #3
 2021 00cc 3A46     		mov	r2, r7
 2022 00ce 04F13001 		add	r1, r4, #48
 2023 00d2 2846     		mov	r0, r5
 2024              	.LVL152:
 193:Core/Src/NOS_LIB_Driver/Src/WS2812B.c ****         NOS_WS2812B_Matrix_SetSymvol(matrix, (char)(rt.hour) % 10 + 48, startpos + 1);
 2025              		.loc 1 193 9 view .LVU548
 2026 00d4 FFF7FEFF 		bl	NOS_WS2812B_Matrix_SetSymvol
 2027              	.LVL153:
 194:Core/Src/NOS_LIB_Driver/Src/WS2812B.c ****         NOS_WS2812B_Matrix_SetSymvol(matrix, ' ', startpos + 8);
 2028              		.loc 1 194 9 is_stmt 1 view .LVU549
 2029 00d8 04EB8404 		add	r4, r4, r4, lsl #2
 2030 00dc A6EB4401 		sub	r1, r6, r4, lsl #1
 2031 00e0 3031     		adds	r1, r1, #48
 2032 00e2 7A1C     		adds	r2, r7, #1
 2033 00e4 C9B2     		uxtb	r1, r1
 2034 00e6 2846     		mov	r0, r5
 2035 00e8 FFF7FEFF 		bl	NOS_WS2812B_Matrix_SetSymvol
 2036              	.LVL154:
 195:Core/Src/NOS_LIB_Driver/Src/WS2812B.c ****     }
 2037              		.loc 1 195 9 view .LVU550
 2038 00ec 07F10802 		add	r2, r7, #8
 2039 00f0 2021     		movs	r1, #32
 2040 00f2 2846     		mov	r0, r5
 2041 00f4 FFF7FEFF 		bl	NOS_WS2812B_Matrix_SetSymvol
 2042              	.LVL155:
 2043              	.L150:
 198:Core/Src/NOS_LIB_Driver/Src/WS2812B.c ****     NOS_WS2812B_Matrix_SetSymvol(matrix, (char)(rt.min % 10) + 48, startpos + 4);
 2044              		.loc 1 198 5 view .LVU551
 198:Core/Src/NOS_LIB_Driver/Src/WS2812B.c ****     NOS_WS2812B_Matrix_SetSymvol(matrix, (char)(rt.min % 10) + 48, startpos + 4);
 2045              		.loc 1 198 51 is_stmt 0 view .LVU552
 2046 00f8 9DF80580 		ldrb	r8, [sp, #5]	@ zero_extendqisi2
 198:Core/Src/NOS_LIB_Driver/Src/WS2812B.c ****     NOS_WS2812B_Matrix_SetSymvol(matrix, (char)(rt.min % 10) + 48, startpos + 4);
 2047              		.loc 1 198 5 view .LVU553
 2048 00fc 5FFA89F6 		uxtb	r6, r9
 2049 0100 224C     		ldr	r4, .L155
 2050 0102 A4FB0837 		umull	r3, r7, r4, r8
 2051 0106 FF08     		lsrs	r7, r7, #3
 2052 0108 09F10302 		add	r2, r9, #3
 2053 010c 07F13001 		add	r1, r7, #48
 2054 0110 2846     		mov	r0, r5
 2055 0112 FFF7FEFF 		bl	NOS_WS2812B_Matrix_SetSymvol
 2056              	.LVL156:
 199:Core/Src/NOS_LIB_Driver/Src/WS2812B.c **** 
 2057              		.loc 1 199 5 is_stmt 1 view .LVU554
 2058 0116 07EB8707 		add	r7, r7, r7, lsl #2
 2059 011a A8EB4701 		sub	r1, r8, r7, lsl #1
 2060 011e 3031     		adds	r1, r1, #48
 2061 0120 321D     		adds	r2, r6, #4
 2062 0122 C9B2     		uxtb	r1, r1
 2063 0124 2846     		mov	r0, r5
 2064 0126 FFF7FEFF 		bl	NOS_WS2812B_Matrix_SetSymvol
ARM GAS  C:\Users\igorn\AppData\Local\Temp\ccyy5tub.s 			page 54


 2065              	.LVL157:
 201:Core/Src/NOS_LIB_Driver/Src/WS2812B.c ****     NOS_WS2812B_Matrix_SetSymvol(matrix, (char)rt.sec % 10 + 48, startpos + 7);
 2066              		.loc 1 201 5 view .LVU555
 201:Core/Src/NOS_LIB_Driver/Src/WS2812B.c ****     NOS_WS2812B_Matrix_SetSymvol(matrix, (char)rt.sec % 10 + 48, startpos + 7);
 2067              		.loc 1 201 50 is_stmt 0 view .LVU556
 2068 012a 9DF80670 		ldrb	r7, [sp, #6]	@ zero_extendqisi2
 201:Core/Src/NOS_LIB_Driver/Src/WS2812B.c ****     NOS_WS2812B_Matrix_SetSymvol(matrix, (char)rt.sec % 10 + 48, startpos + 7);
 2069              		.loc 1 201 5 view .LVU557
 2070 012e A4FB0734 		umull	r3, r4, r4, r7
 2071 0132 E408     		lsrs	r4, r4, #3
 2072 0134 B21D     		adds	r2, r6, #6
 2073 0136 04F13001 		add	r1, r4, #48
 2074 013a 2846     		mov	r0, r5
 2075 013c FFF7FEFF 		bl	NOS_WS2812B_Matrix_SetSymvol
 2076              	.LVL158:
 202:Core/Src/NOS_LIB_Driver/Src/WS2812B.c **** 
 2077              		.loc 1 202 5 is_stmt 1 view .LVU558
 2078 0140 04EB8401 		add	r1, r4, r4, lsl #2
 2079 0144 A7EB4101 		sub	r1, r7, r1, lsl #1
 2080 0148 3031     		adds	r1, r1, #48
 2081 014a F21D     		adds	r2, r6, #7
 2082 014c C9B2     		uxtb	r1, r1
 2083 014e 2846     		mov	r0, r5
 2084 0150 FFF7FEFF 		bl	NOS_WS2812B_Matrix_SetSymvol
 2085              	.LVL159:
 204:Core/Src/NOS_LIB_Driver/Src/WS2812B.c ****     {
 2086              		.loc 1 204 5 view .LVU559
 204:Core/Src/NOS_LIB_Driver/Src/WS2812B.c ****     {
 2087              		.loc 1 204 8 is_stmt 0 view .LVU560
 2088 0154 17F0010F 		tst	r7, #1
 2089 0158 0CD1     		bne	.L151
 206:Core/Src/NOS_LIB_Driver/Src/WS2812B.c ****         NOS_WS2812B_Matrix_SetSymvol(matrix, ':', startpos + 5);
 2090              		.loc 1 206 9 is_stmt 1 view .LVU561
 2091 015a B21C     		adds	r2, r6, #2
 2092 015c 3A21     		movs	r1, #58
 2093 015e 2846     		mov	r0, r5
 2094 0160 FFF7FEFF 		bl	NOS_WS2812B_Matrix_SetSymvol
 2095              	.LVL160:
 207:Core/Src/NOS_LIB_Driver/Src/WS2812B.c ****     }
 2096              		.loc 1 207 9 view .LVU562
 2097 0164 721D     		adds	r2, r6, #5
 2098 0166 3A21     		movs	r1, #58
 2099 0168 2846     		mov	r0, r5
 2100 016a FFF7FEFF 		bl	NOS_WS2812B_Matrix_SetSymvol
 2101              	.LVL161:
 2102              	.L146:
 214:Core/Src/NOS_LIB_Driver/Src/WS2812B.c **** 
 2103              		.loc 1 214 1 is_stmt 0 view .LVU563
 2104 016e 03B0     		add	sp, sp, #12
 2105              		.cfi_remember_state
 2106              		.cfi_def_cfa_offset 28
 2107              		@ sp needed
 2108 0170 BDE8F083 		pop	{r4, r5, r6, r7, r8, r9, pc}
 2109              	.LVL162:
 2110              	.L151:
 2111              		.cfi_restore_state
 211:Core/Src/NOS_LIB_Driver/Src/WS2812B.c ****         NOS_WS2812B_Matrix_SetSymvol(matrix, ' ', startpos + 5);
ARM GAS  C:\Users\igorn\AppData\Local\Temp\ccyy5tub.s 			page 55


 2112              		.loc 1 211 9 is_stmt 1 view .LVU564
 2113 0174 B21C     		adds	r2, r6, #2
 2114 0176 2021     		movs	r1, #32
 2115 0178 2846     		mov	r0, r5
 2116 017a FFF7FEFF 		bl	NOS_WS2812B_Matrix_SetSymvol
 2117              	.LVL163:
 212:Core/Src/NOS_LIB_Driver/Src/WS2812B.c ****     }
 2118              		.loc 1 212 9 view .LVU565
 2119 017e 721D     		adds	r2, r6, #5
 2120 0180 2021     		movs	r1, #32
 2121 0182 2846     		mov	r0, r5
 2122 0184 FFF7FEFF 		bl	NOS_WS2812B_Matrix_SetSymvol
 2123              	.LVL164:
 214:Core/Src/NOS_LIB_Driver/Src/WS2812B.c **** 
 2124              		.loc 1 214 1 is_stmt 0 view .LVU566
 2125 0188 F1E7     		b	.L146
 2126              	.L156:
 2127 018a 00BF     		.align	2
 2128              	.L155:
 2129 018c CDCCCCCC 		.word	-858993459
 2130              		.cfi_endproc
 2131              	.LFE141:
 2133              		.section	.text.NOS_WS2812B_Matrix_PrintTemperature,"ax",%progbits
 2134              		.align	1
 2135              		.global	NOS_WS2812B_Matrix_PrintTemperature
 2136              		.syntax unified
 2137              		.thumb
 2138              		.thumb_func
 2140              	NOS_WS2812B_Matrix_PrintTemperature:
 2141              	.LVL165:
 2142              	.LFB144:
 274:Core/Src/NOS_LIB_Driver/Src/WS2812B.c ****     if (temperature > 0)
 2143              		.loc 1 274 1 is_stmt 1 view -0
 2144              		.cfi_startproc
 2145              		@ args = 0, pretend = 0, frame = 0
 2146              		@ frame_needed = 0, uses_anonymous_args = 0
 274:Core/Src/NOS_LIB_Driver/Src/WS2812B.c ****     if (temperature > 0)
 2147              		.loc 1 274 1 is_stmt 0 view .LVU568
 2148 0000 38B5     		push	{r3, r4, r5, lr}
 2149              		.cfi_def_cfa_offset 16
 2150              		.cfi_offset 3, -16
 2151              		.cfi_offset 4, -12
 2152              		.cfi_offset 5, -8
 2153              		.cfi_offset 14, -4
 2154 0002 0546     		mov	r5, r0
 275:Core/Src/NOS_LIB_Driver/Src/WS2812B.c ****     {
 2155              		.loc 1 275 5 is_stmt 1 view .LVU569
 275:Core/Src/NOS_LIB_Driver/Src/WS2812B.c ****     {
 2156              		.loc 1 275 8 is_stmt 0 view .LVU570
 2157 0004 0C1E     		subs	r4, r1, #0
 2158 0006 16DD     		ble	.L158
 277:Core/Src/NOS_LIB_Driver/Src/WS2812B.c ****     }
 2159              		.loc 1 277 9 is_stmt 1 view .LVU571
 2160 0008 0022     		movs	r2, #0
 2161 000a 2B21     		movs	r1, #43
 2162              	.LVL166:
 277:Core/Src/NOS_LIB_Driver/Src/WS2812B.c ****     }
ARM GAS  C:\Users\igorn\AppData\Local\Temp\ccyy5tub.s 			page 56


 2163              		.loc 1 277 9 is_stmt 0 view .LVU572
 2164 000c FFF7FEFF 		bl	NOS_WS2812B_Matrix_SetSymvol
 2165              	.LVL167:
 2166              	.L159:
 284:Core/Src/NOS_LIB_Driver/Src/WS2812B.c ****     NOS_WS2812B_Matrix_SetSymvol(matrix, 'C', 4);
 2167              		.loc 1 284 5 is_stmt 1 view .LVU573
 2168 0010 0322     		movs	r2, #3
 2169 0012 2A21     		movs	r1, #42
 2170 0014 2846     		mov	r0, r5
 2171 0016 FFF7FEFF 		bl	NOS_WS2812B_Matrix_SetSymvol
 2172              	.LVL168:
 285:Core/Src/NOS_LIB_Driver/Src/WS2812B.c **** 
 2173              		.loc 1 285 5 view .LVU574
 2174 001a 0422     		movs	r2, #4
 2175 001c 4321     		movs	r1, #67
 2176 001e 2846     		mov	r0, r5
 2177 0020 FFF7FEFF 		bl	NOS_WS2812B_Matrix_SetSymvol
 2178              	.LVL169:
 287:Core/Src/NOS_LIB_Driver/Src/WS2812B.c ****     if (temperature < 0)
 2179              		.loc 1 287 5 view .LVU575
 288:Core/Src/NOS_LIB_Driver/Src/WS2812B.c ****     {
 2180              		.loc 1 288 5 view .LVU576
 288:Core/Src/NOS_LIB_Driver/Src/WS2812B.c ****     {
 2181              		.loc 1 288 8 is_stmt 0 view .LVU577
 2182 0024 002C     		cmp	r4, #0
 2183 0026 12DB     		blt	.L167
 298:Core/Src/NOS_LIB_Driver/Src/WS2812B.c ****     }
 2184              		.loc 1 298 9 is_stmt 1 view .LVU578
 298:Core/Src/NOS_LIB_Driver/Src/WS2812B.c ****     }
 2185              		.loc 1 298 17 is_stmt 0 view .LVU579
 2186 0028 E1B2     		uxtb	r1, r4
 2187              	.LVL170:
 2188              	.L163:
 301:Core/Src/NOS_LIB_Driver/Src/WS2812B.c **** }
 2189              		.loc 1 301 5 is_stmt 1 view .LVU580
 2190 002a 0223     		movs	r3, #2
 2191 002c 0122     		movs	r2, #1
 2192 002e 2846     		mov	r0, r5
 2193 0030 FFF7FEFF 		bl	NOS_WS2812B_Matrix_PrintIntNumber
 2194              	.LVL171:
 302:Core/Src/NOS_LIB_Driver/Src/WS2812B.c **** 
 2195              		.loc 1 302 1 is_stmt 0 view .LVU581
 2196 0034 38BD     		pop	{r3, r4, r5, pc}
 2197              	.LVL172:
 2198              	.L158:
 281:Core/Src/NOS_LIB_Driver/Src/WS2812B.c ****     }
 2199              		.loc 1 281 9 is_stmt 1 view .LVU582
 2200 0036 0022     		movs	r2, #0
 2201 0038 2D21     		movs	r1, #45
 2202              	.LVL173:
 281:Core/Src/NOS_LIB_Driver/Src/WS2812B.c ****     }
 2203              		.loc 1 281 9 is_stmt 0 view .LVU583
 2204 003a FFF7FEFF 		bl	NOS_WS2812B_Matrix_SetSymvol
 2205              	.LVL174:
 281:Core/Src/NOS_LIB_Driver/Src/WS2812B.c ****     }
 2206              		.loc 1 281 9 view .LVU584
 2207 003e E7E7     		b	.L159
ARM GAS  C:\Users\igorn\AppData\Local\Temp\ccyy5tub.s 			page 57


 2208              	.LVL175:
 2209              	.L162:
 292:Core/Src/NOS_LIB_Driver/Src/WS2812B.c ****             counter++;
 2210              		.loc 1 292 13 is_stmt 1 view .LVU585
 292:Core/Src/NOS_LIB_Driver/Src/WS2812B.c ****             counter++;
 2211              		.loc 1 292 24 is_stmt 0 view .LVU586
 2212 0040 0134     		adds	r4, r4, #1
 2213              	.LVL176:
 292:Core/Src/NOS_LIB_Driver/Src/WS2812B.c ****             counter++;
 2214              		.loc 1 292 24 view .LVU587
 2215 0042 24B2     		sxth	r4, r4
 2216              	.LVL177:
 293:Core/Src/NOS_LIB_Driver/Src/WS2812B.c ****         }
 2217              		.loc 1 293 13 is_stmt 1 view .LVU588
 293:Core/Src/NOS_LIB_Driver/Src/WS2812B.c ****         }
 2218              		.loc 1 293 20 is_stmt 0 view .LVU589
 2219 0044 0131     		adds	r1, r1, #1
 2220              	.LVL178:
 293:Core/Src/NOS_LIB_Driver/Src/WS2812B.c ****         }
 2221              		.loc 1 293 20 view .LVU590
 2222 0046 C9B2     		uxtb	r1, r1
 2223              	.LVL179:
 2224              	.L160:
 290:Core/Src/NOS_LIB_Driver/Src/WS2812B.c ****         {
 2225              		.loc 1 290 28 is_stmt 1 view .LVU591
 2226 0048 002C     		cmp	r4, #0
 2227 004a F9DB     		blt	.L162
 2228 004c EDE7     		b	.L163
 2229              	.LVL180:
 2230              	.L167:
 287:Core/Src/NOS_LIB_Driver/Src/WS2812B.c ****     if (temperature < 0)
 2231              		.loc 1 287 13 is_stmt 0 view .LVU592
 2232 004e 0021     		movs	r1, #0
 2233 0050 FAE7     		b	.L160
 2234              		.cfi_endproc
 2235              	.LFE144:
 2237              		.section	.rodata.NOS_WS2812B_Matrix_PrintDetectorValue.str1.4,"aMS",%progbits,1
 2238              		.align	2
 2239              	.LC2:
 2240 0000 7553762F 		.ascii	"uSv/Hour\000"
 2240      486F7572 
 2240      00
 2241 0009 000000   		.align	2
 2242              	.LC3:
 2243 000c 6D6B3342 		.ascii	"mk3B/god\000"
 2243      2F676F64 
 2243      00
 2244              		.section	.text.NOS_WS2812B_Matrix_PrintDetectorValue,"ax",%progbits
 2245              		.align	1
 2246              		.global	NOS_WS2812B_Matrix_PrintDetectorValue
 2247              		.syntax unified
 2248              		.thumb
 2249              		.thumb_func
 2251              	NOS_WS2812B_Matrix_PrintDetectorValue:
 2252              	.LVL181:
 2253              	.LFB145:
 305:Core/Src/NOS_LIB_Driver/Src/WS2812B.c ****     if (detector->value.data < 10.0f)
ARM GAS  C:\Users\igorn\AppData\Local\Temp\ccyy5tub.s 			page 58


 2254              		.loc 1 305 1 is_stmt 1 view -0
 2255              		.cfi_startproc
 2256              		@ args = 8, pretend = 0, frame = 0
 2257              		@ frame_needed = 0, uses_anonymous_args = 0
 305:Core/Src/NOS_LIB_Driver/Src/WS2812B.c ****     if (detector->value.data < 10.0f)
 2258              		.loc 1 305 1 is_stmt 0 view .LVU594
 2259 0000 F8B5     		push	{r3, r4, r5, r6, r7, lr}
 2260              		.cfi_def_cfa_offset 24
 2261              		.cfi_offset 3, -24
 2262              		.cfi_offset 4, -20
 2263              		.cfi_offset 5, -16
 2264              		.cfi_offset 6, -12
 2265              		.cfi_offset 7, -8
 2266              		.cfi_offset 14, -4
 2267 0002 0546     		mov	r5, r0
 2268 0004 0C46     		mov	r4, r1
 2269 0006 1646     		mov	r6, r2
 2270 0008 1F46     		mov	r7, r3
 306:Core/Src/NOS_LIB_Driver/Src/WS2812B.c ****     {
 2271              		.loc 1 306 5 is_stmt 1 view .LVU595
 306:Core/Src/NOS_LIB_Driver/Src/WS2812B.c ****     {
 2272              		.loc 1 306 24 is_stmt 0 view .LVU596
 2273 000a 91ED010A 		vldr.32	s0, [r1, #4]
 306:Core/Src/NOS_LIB_Driver/Src/WS2812B.c ****     {
 2274              		.loc 1 306 8 view .LVU597
 2275 000e F2EE047A 		vmov.f32	s15, #1.0e+1
 2276 0012 B4EEE70A 		vcmpe.f32	s0, s15
 2277 0016 F1EE10FA 		vmrs	APSR_nzcv, FPSCR
 2278 001a 1FD5     		bpl	.L185
 308:Core/Src/NOS_LIB_Driver/Src/WS2812B.c ****         NOS_WS2812B_Matrix_PrintFloatNumber(matrix, detector->value.data, 2);
 2279              		.loc 1 308 9 is_stmt 1 view .LVU598
 2280 001c 0122     		movs	r2, #1
 2281              	.LVL182:
 308:Core/Src/NOS_LIB_Driver/Src/WS2812B.c ****         NOS_WS2812B_Matrix_PrintFloatNumber(matrix, detector->value.data, 2);
 2282              		.loc 1 308 9 is_stmt 0 view .LVU599
 2283 001e 2021     		movs	r1, #32
 2284              	.LVL183:
 308:Core/Src/NOS_LIB_Driver/Src/WS2812B.c ****         NOS_WS2812B_Matrix_PrintFloatNumber(matrix, detector->value.data, 2);
 2285              		.loc 1 308 9 view .LVU600
 2286 0020 FFF7FEFF 		bl	NOS_WS2812B_Matrix_SetSymvol
 2287              	.LVL184:
 309:Core/Src/NOS_LIB_Driver/Src/WS2812B.c ****     }
 2288              		.loc 1 309 9 is_stmt 1 view .LVU601
 2289 0024 0221     		movs	r1, #2
 2290 0026 94ED010A 		vldr.32	s0, [r4, #4]
 2291 002a 2846     		mov	r0, r5
 2292 002c FFF7FEFF 		bl	NOS_WS2812B_Matrix_PrintFloatNumber
 2293              	.LVL185:
 2294              	.L171:
 316:Core/Src/NOS_LIB_Driver/Src/WS2812B.c ****     {
 2295              		.loc 1 316 5 view .LVU602
 2296 0030 C6B1     		cbz	r6, .L172
 2297 0032 012E     		cmp	r6, #1
 2298 0034 1DD0     		beq	.L173
 2299              	.L174:
 329:Core/Src/NOS_LIB_Driver/Src/WS2812B.c ****     {
 2300              		.loc 1 329 5 view .LVU603
ARM GAS  C:\Users\igorn\AppData\Local\Temp\ccyy5tub.s 			page 59


 329:Core/Src/NOS_LIB_Driver/Src/WS2812B.c ****     {
 2301              		.loc 1 329 24 is_stmt 0 view .LVU604
 2302 0036 D4ED017A 		vldr.32	s15, [r4, #4]
 329:Core/Src/NOS_LIB_Driver/Src/WS2812B.c ****     {
 2303              		.loc 1 329 55 view .LVU605
 2304 003a 94ED027A 		vldr.32	s14, [r4, #8]
 329:Core/Src/NOS_LIB_Driver/Src/WS2812B.c ****     {
 2305              		.loc 1 329 8 view .LVU606
 2306 003e F4EEC77A 		vcmpe.f32	s15, s14
 2307 0042 F1EE10FA 		vmrs	APSR_nzcv, FPSCR
 2308 0046 1BDB     		blt	.L175
 329:Core/Src/NOS_LIB_Driver/Src/WS2812B.c ****     {
 2309              		.loc 1 329 110 discriminator 1 view .LVU607
 2310 0048 94ED037A 		vldr.32	s14, [r4, #12]
 329:Core/Src/NOS_LIB_Driver/Src/WS2812B.c ****     {
 2311              		.loc 1 329 61 discriminator 1 view .LVU608
 2312 004c F4EEC77A 		vcmpe.f32	s15, s14
 2313 0050 F1EE10FA 		vmrs	APSR_nzcv, FPSCR
 2314 0054 14D5     		bpl	.L175
 331:Core/Src/NOS_LIB_Driver/Src/WS2812B.c ****     }
 2315              		.loc 1 331 9 is_stmt 1 view .LVU609
 331:Core/Src/NOS_LIB_Driver/Src/WS2812B.c ****     }
 2316              		.loc 1 331 27 is_stmt 0 view .LVU610
 2317 0056 069B     		ldr	r3, [sp, #24]
 2318 0058 EB60     		str	r3, [r5, #12]
 2319 005a 19E0     		b	.L168
 2320              	.LVL186:
 2321              	.L185:
 313:Core/Src/NOS_LIB_Driver/Src/WS2812B.c ****     }
 2322              		.loc 1 313 9 is_stmt 1 view .LVU611
 2323 005c 0121     		movs	r1, #1
 2324              	.LVL187:
 313:Core/Src/NOS_LIB_Driver/Src/WS2812B.c ****     }
 2325              		.loc 1 313 9 is_stmt 0 view .LVU612
 2326 005e FFF7FEFF 		bl	NOS_WS2812B_Matrix_PrintFloatNumber
 2327              	.LVL188:
 313:Core/Src/NOS_LIB_Driver/Src/WS2812B.c ****     }
 2328              		.loc 1 313 9 view .LVU613
 2329 0062 E5E7     		b	.L171
 2330              	.L172:
 319:Core/Src/NOS_LIB_Driver/Src/WS2812B.c ****         break;
 2331              		.loc 1 319 9 is_stmt 1 view .LVU614
 2332 0064 0823     		movs	r3, #8
 2333 0066 0722     		movs	r2, #7
 2334 0068 0B49     		ldr	r1, .L188
 2335 006a 2846     		mov	r0, r5
 2336 006c FFF7FEFF 		bl	NOS_WS2812B_Matrix_PrintStaticString
 2337              	.LVL189:
 320:Core/Src/NOS_LIB_Driver/Src/WS2812B.c ****     case Ukrainian:
 2338              		.loc 1 320 9 view .LVU615
 2339 0070 E1E7     		b	.L174
 2340              	.L173:
 322:Core/Src/NOS_LIB_Driver/Src/WS2812B.c ****         break;
 2341              		.loc 1 322 9 view .LVU616
 2342 0072 0823     		movs	r3, #8
 2343 0074 0722     		movs	r2, #7
 2344 0076 0949     		ldr	r1, .L188+4
ARM GAS  C:\Users\igorn\AppData\Local\Temp\ccyy5tub.s 			page 60


 2345 0078 2846     		mov	r0, r5
 2346 007a FFF7FEFF 		bl	NOS_WS2812B_Matrix_PrintStaticString
 2347              	.LVL190:
 323:Core/Src/NOS_LIB_Driver/Src/WS2812B.c **** 
 2348              		.loc 1 323 9 view .LVU617
 2349 007e DAE7     		b	.L174
 2350              	.L175:
 333:Core/Src/NOS_LIB_Driver/Src/WS2812B.c ****     {
 2351              		.loc 1 333 10 view .LVU618
 333:Core/Src/NOS_LIB_Driver/Src/WS2812B.c ****     {
 2352              		.loc 1 333 61 is_stmt 0 view .LVU619
 2353 0080 94ED037A 		vldr.32	s14, [r4, #12]
 333:Core/Src/NOS_LIB_Driver/Src/WS2812B.c ****     {
 2354              		.loc 1 333 13 view .LVU620
 2355 0084 F4EEC77A 		vcmpe.f32	s15, s14
 2356 0088 F1EE10FA 		vmrs	APSR_nzcv, FPSCR
 2357 008c 01DB     		blt	.L186
 335:Core/Src/NOS_LIB_Driver/Src/WS2812B.c ****     }
 2358              		.loc 1 335 9 is_stmt 1 view .LVU621
 335:Core/Src/NOS_LIB_Driver/Src/WS2812B.c ****     }
 2359              		.loc 1 335 27 is_stmt 0 view .LVU622
 2360 008e EF60     		str	r7, [r5, #12]
 2361              	.L168:
 341:Core/Src/NOS_LIB_Driver/Src/WS2812B.c **** 
 2362              		.loc 1 341 1 view .LVU623
 2363 0090 F8BD     		pop	{r3, r4, r5, r6, r7, pc}
 2364              	.LVL191:
 2365              	.L186:
 339:Core/Src/NOS_LIB_Driver/Src/WS2812B.c ****     }
 2366              		.loc 1 339 9 is_stmt 1 view .LVU624
 339:Core/Src/NOS_LIB_Driver/Src/WS2812B.c ****     }
 2367              		.loc 1 339 27 is_stmt 0 view .LVU625
 2368 0092 079B     		ldr	r3, [sp, #28]
 2369 0094 EB60     		str	r3, [r5, #12]
 341:Core/Src/NOS_LIB_Driver/Src/WS2812B.c **** 
 2370              		.loc 1 341 1 view .LVU626
 2371 0096 FBE7     		b	.L168
 2372              	.L189:
 2373              		.align	2
 2374              	.L188:
 2375 0098 00000000 		.word	.LC2
 2376 009c 0C000000 		.word	.LC3
 2377              		.cfi_endproc
 2378              	.LFE145:
 2380              		.section	.text.NOS_WS2812B_Matrix_FillColor,"ax",%progbits
 2381              		.align	1
 2382              		.global	NOS_WS2812B_Matrix_FillColor
 2383              		.syntax unified
 2384              		.thumb
 2385              		.thumb_func
 2387              	NOS_WS2812B_Matrix_FillColor:
 2388              	.LVL192:
 2389              	.LFB147:
 352:Core/Src/NOS_LIB_Driver/Src/WS2812B.c ****     uint8_t symvolCount = matrix->size->col / 6;
 2390              		.loc 1 352 1 is_stmt 1 view -0
 2391              		.cfi_startproc
 2392              		@ args = 0, pretend = 0, frame = 0
ARM GAS  C:\Users\igorn\AppData\Local\Temp\ccyy5tub.s 			page 61


 2393              		@ frame_needed = 0, uses_anonymous_args = 0
 352:Core/Src/NOS_LIB_Driver/Src/WS2812B.c ****     uint8_t symvolCount = matrix->size->col / 6;
 2394              		.loc 1 352 1 is_stmt 0 view .LVU628
 2395 0000 F8B5     		push	{r3, r4, r5, r6, r7, lr}
 2396              		.cfi_def_cfa_offset 24
 2397              		.cfi_offset 3, -24
 2398              		.cfi_offset 4, -20
 2399              		.cfi_offset 5, -16
 2400              		.cfi_offset 6, -12
 2401              		.cfi_offset 7, -8
 2402              		.cfi_offset 14, -4
 2403 0002 0646     		mov	r6, r0
 2404 0004 0F46     		mov	r7, r1
 353:Core/Src/NOS_LIB_Driver/Src/WS2812B.c ****     for (int i = 0; i < symvolCount; i++)
 2405              		.loc 1 353 5 is_stmt 1 view .LVU629
 353:Core/Src/NOS_LIB_Driver/Src/WS2812B.c ****     for (int i = 0; i < symvolCount; i++)
 2406              		.loc 1 353 33 is_stmt 0 view .LVU630
 2407 0006 8368     		ldr	r3, [r0, #8]
 353:Core/Src/NOS_LIB_Driver/Src/WS2812B.c ****     for (int i = 0; i < symvolCount; i++)
 2408              		.loc 1 353 39 view .LVU631
 2409 0008 1D78     		ldrb	r5, [r3]	@ zero_extendqisi2
 353:Core/Src/NOS_LIB_Driver/Src/WS2812B.c ****     for (int i = 0; i < symvolCount; i++)
 2410              		.loc 1 353 13 view .LVU632
 2411 000a 084B     		ldr	r3, .L194
 2412 000c A3FB0535 		umull	r3, r5, r3, r5
 2413 0010 AD08     		lsrs	r5, r5, #2
 2414              	.LVL193:
 354:Core/Src/NOS_LIB_Driver/Src/WS2812B.c ****     {
 2415              		.loc 1 354 5 is_stmt 1 view .LVU633
 2416              	.LBB15:
 354:Core/Src/NOS_LIB_Driver/Src/WS2812B.c ****     {
 2417              		.loc 1 354 10 view .LVU634
 354:Core/Src/NOS_LIB_Driver/Src/WS2812B.c ****     {
 2418              		.loc 1 354 14 is_stmt 0 view .LVU635
 2419 0012 0024     		movs	r4, #0
 354:Core/Src/NOS_LIB_Driver/Src/WS2812B.c ****     {
 2420              		.loc 1 354 5 view .LVU636
 2421 0014 05E0     		b	.L191
 2422              	.LVL194:
 2423              	.L192:
 356:Core/Src/NOS_LIB_Driver/Src/WS2812B.c ****     }
 2424              		.loc 1 356 9 is_stmt 1 discriminator 3 view .LVU637
 2425 0016 E2B2     		uxtb	r2, r4
 2426 0018 7B21     		movs	r1, #123
 2427 001a 3046     		mov	r0, r6
 2428 001c FFF7FEFF 		bl	NOS_WS2812B_Matrix_SetSymvol
 2429              	.LVL195:
 354:Core/Src/NOS_LIB_Driver/Src/WS2812B.c ****     {
 2430              		.loc 1 354 39 discriminator 3 view .LVU638
 2431 0020 0134     		adds	r4, r4, #1
 2432              	.LVL196:
 2433              	.L191:
 354:Core/Src/NOS_LIB_Driver/Src/WS2812B.c ****     {
 2434              		.loc 1 354 23 discriminator 1 view .LVU639
 2435 0022 A542     		cmp	r5, r4
 2436 0024 F7DC     		bgt	.L192
 2437              	.LBE15:
ARM GAS  C:\Users\igorn\AppData\Local\Temp\ccyy5tub.s 			page 62


 358:Core/Src/NOS_LIB_Driver/Src/WS2812B.c **** }
 2438              		.loc 1 358 5 view .LVU640
 358:Core/Src/NOS_LIB_Driver/Src/WS2812B.c **** }
 2439              		.loc 1 358 23 is_stmt 0 view .LVU641
 2440 0026 F760     		str	r7, [r6, #12]
 359:Core/Src/NOS_LIB_Driver/Src/WS2812B.c **** 
 2441              		.loc 1 359 1 view .LVU642
 2442 0028 F8BD     		pop	{r3, r4, r5, r6, r7, pc}
 2443              	.LVL197:
 2444              	.L195:
 359:Core/Src/NOS_LIB_Driver/Src/WS2812B.c **** 
 2445              		.loc 1 359 1 view .LVU643
 2446 002a 00BF     		.align	2
 2447              	.L194:
 2448 002c ABAAAAAA 		.word	-1431655765
 2449              		.cfi_endproc
 2450              	.LFE147:
 2452              		.global	Num_9
 2453              		.section	.data.Num_9,"aw"
 2454              		.align	2
 2457              	Num_9:
 2458 0000 4C929292 		.ascii	"L\222\222\222|"
 2458      7C
 2459              		.global	Num_8
 2460              		.section	.data.Num_8,"aw"
 2461              		.align	2
 2464              	Num_8:
 2465 0000 6C929292 		.ascii	"l\222\222\222l"
 2465      6C
 2466              		.global	Num_7
 2467              		.section	.data.Num_7,"aw"
 2468              		.align	2
 2471              	Num_7:
 2472 0000 0202F20A 		.ascii	"\002\002\362\012\006"
 2472      06
 2473              		.global	Num_6
 2474              		.section	.data.Num_6,"aw"
 2475              		.align	2
 2478              	Num_6:
 2479 0000 7C929292 		.ascii	"|\222\222\222d"
 2479      64
 2480              		.global	Num_5
 2481              		.section	.data.Num_5,"aw"
 2482              		.align	2
 2485              	Num_5:
 2486 0000 8E929292 		.ascii	"\216\222\222\222b"
 2486      62
 2487              		.global	Num_4
 2488              		.section	.data.Num_4,"aw"
 2489              		.align	2
 2492              	Num_4:
 2493 0000 0E101010 		.ascii	"\016\020\020\020\376"
 2493      FE
 2494              		.global	Num_3
 2495              		.section	.data.Num_3,"aw"
 2496              		.align	2
 2499              	Num_3:
ARM GAS  C:\Users\igorn\AppData\Local\Temp\ccyy5tub.s 			page 63


 2500 0000 44929292 		.ascii	"D\222\222\222l"
 2500      6C
 2501              		.global	Num_2
 2502              		.section	.data.Num_2,"aw"
 2503              		.align	2
 2506              	Num_2:
 2507 0000 84C2A292 		.ascii	"\204\302\242\222\214"
 2507      8C
 2508              		.global	Num_1
 2509              		.section	.data.Num_1,"aw"
 2510              		.align	2
 2513              	Num_1:
 2514 0000 8884FE80 		.ascii	"\210\204\376\200\200"
 2514      80
 2515              		.global	Num_0
 2516              		.section	.data.Num_0,"aw"
 2517              		.align	2
 2520              	Num_0:
 2521 0000 7CA2928A 		.ascii	"|\242\222\212|"
 2521      7C
 2522              		.global	Attemption
 2523              		.section	.data.Attemption,"aw"
 2524              		.align	2
 2527              	Attemption:
 2528 0000 0000BE00 		.ascii	"\000\000\276\000\000"
 2528      00
 2529              		.global	FullSym
 2530              		.section	.data.FullSym,"aw"
 2531              		.align	2
 2534              	FullSym:
 2535 0000 FFFFFFFF 		.ascii	"\377\377\377\377\377"
 2535      FF
 2536              		.global	Celcium
 2537              		.section	.data.Celcium,"aw"
 2538              		.align	2
 2541              	Celcium:
 2542 0000 0000040A 		.ascii	"\000\000\004\012\004"
 2542      04
 2543              		.global	Multiply
 2544              		.section	.data.Multiply,"aw"
 2545              		.align	2
 2548              	Multiply:
 2549 0000 44281028 		.ascii	"D(\020(D"
 2549      44
 2550              		.global	Minus
 2551              		.section	.data.Minus,"aw"
 2552              		.align	2
 2555              	Minus:
 2556 0000 10101010 		.ascii	"\020\020\020\020\020"
 2556      10
 2557              		.global	Plus
 2558              		.section	.data.Plus,"aw"
 2559              		.align	2
 2562              	Plus:
 2563 0000 10107C10 		.ascii	"\020\020|\020\020"
 2563      10
 2564              		.global	Slash
ARM GAS  C:\Users\igorn\AppData\Local\Temp\ccyy5tub.s 			page 64


 2565              		.section	.data.Slash,"aw"
 2566              		.align	2
 2569              	Slash:
 2570 0000 40201008 		.ascii	"@ \020\010\004"
 2570      04
 2571              		.global	DoubleDot
 2572              		.section	.data.DoubleDot,"aw"
 2573              		.align	2
 2576              	DoubleDot:
 2577 0000 00004400 		.ascii	"\000\000D\000\000"
 2577      00
 2578              		.global	Dot
 2579              		.section	.data.Dot,"aw"
 2580              		.align	2
 2583              	Dot:
 2584 0000 00008000 		.ascii	"\000\000\200\000\000"
 2584      00
 2585              		.global	Space
 2586              		.section	.bss.Space,"aw",%nobits
 2587              		.align	2
 2590              	Space:
 2591 0000 00000000 		.space	5
 2591      00
 2592              		.global	Ukr_ch
 2593              		.section	.data.Ukr_ch,"aw"
 2594              		.align	2
 2597              	Ukr_ch:
 2598 0000 18202020 		.ascii	"\030   \370"
 2598      F8
 2599              		.global	Ukr_d
 2600              		.section	.data.Ukr_d,"aw"
 2601              		.align	2
 2604              	Ukr_d:
 2605 0000 C0784878 		.ascii	"\300xHx\300"
 2605      C0
 2606              		.global	Ukr_g
 2607              		.section	.data.Ukr_g,"aw"
 2608              		.align	2
 2611              	Ukr_g:
 2612 0000 F8080808 		.ascii	"\370\010\010\010\000"
 2612      00
 2613              		.global	Ukr_k
 2614              		.section	.data.Ukr_k,"aw"
 2615              		.align	2
 2618              	Ukr_k:
 2619 0000 F8205088 		.ascii	"\370 P\210\000"
 2619      00
 2620              		.global	Ukr_m
 2621              		.section	.data.Ukr_m,"aw"
 2622              		.align	2
 2625              	Ukr_m:
 2626 0000 F8102010 		.ascii	"\370\020 \020\370"
 2626      F8
 2627              		.global	Eng_r
 2628              		.section	.data.Eng_r,"aw"
 2629              		.align	2
 2632              	Eng_r:
ARM GAS  C:\Users\igorn\AppData\Local\Temp\ccyy5tub.s 			page 65


 2633 0000 F8100808 		.ascii	"\370\020\010\010\010"
 2633      08
 2634              		.global	Eng_o
 2635              		.section	.data.Eng_o,"aw"
 2636              		.align	2
 2639              	Eng_o:
 2640 0000 70888888 		.ascii	"p\210\210\210p"
 2640      70
 2641              		.global	Eng_u
 2642              		.section	.data.Eng_u,"aw"
 2643              		.align	2
 2646              	Eng_u:
 2647 0000 78808080 		.ascii	"x\200\200\200x"
 2647      78
 2648              		.global	Eng_v
 2649              		.section	.data.Eng_v,"aw"
 2650              		.align	2
 2653              	Eng_v:
 2654 0000 38408040 		.ascii	"8@\200@8"
 2654      38
 2655              		.global	Eng_c
 2656              		.section	.data.Eng_c,"aw"
 2657              		.align	2
 2660              	Eng_c:
 2661 0000 70888888 		.ascii	"p\210\210\210\000"
 2661      00
 2662              		.global	Eng_a
 2663              		.section	.data.Eng_a,"aw"
 2664              		.align	2
 2667              	Eng_a:
 2668 0000 40A8A8A8 		.ascii	"@\250\250\250p"
 2668      70
 2669              		.global	Eng_Z
 2670              		.section	.data.Eng_Z,"aw"
 2671              		.align	2
 2674              	Eng_Z:
 2675 0000 C2A2928A 		.ascii	"\302\242\222\212\206"
 2675      86
 2676              		.global	Eng_Y
 2677              		.section	.data.Eng_Y,"aw"
 2678              		.align	2
 2681              	Eng_Y:
 2682 0000 0204F804 		.ascii	"\002\004\370\004\002"
 2682      02
 2683              		.global	Eng_X
 2684              		.section	.data.Eng_X,"aw"
 2685              		.align	2
 2688              	Eng_X:
 2689 0000 C6281028 		.ascii	"\306(\020(\306"
 2689      C6
 2690              		.global	Eng_W
 2691              		.section	.data.Eng_W,"aw"
 2692              		.align	2
 2695              	Eng_W:
 2696 0000 7E807880 		.ascii	"~\200x\200~"
 2696      7E
 2697              		.global	Eng_V
ARM GAS  C:\Users\igorn\AppData\Local\Temp\ccyy5tub.s 			page 66


 2698              		.section	.data.Eng_V,"aw"
 2699              		.align	2
 2702              	Eng_V:
 2703 0000 3E408040 		.ascii	">@\200@>"
 2703      3E
 2704              		.global	Eng_U
 2705              		.section	.data.Eng_U,"aw"
 2706              		.align	2
 2709              	Eng_U:
 2710 0000 7E808080 		.ascii	"~\200\200\200~"
 2710      7E
 2711              		.global	Eng_T
 2712              		.section	.data.Eng_T,"aw"
 2713              		.align	2
 2716              	Eng_T:
 2717 0000 0202FE02 		.ascii	"\002\002\376\002\002"
 2717      02
 2718              		.global	Eng_S
 2719              		.section	.data.Eng_S,"aw"
 2720              		.align	2
 2723              	Eng_S:
 2724 0000 4C929292 		.ascii	"L\222\222\222d"
 2724      64
 2725              		.global	Eng_R
 2726              		.section	.data.Eng_R,"aw"
 2727              		.align	2
 2730              	Eng_R:
 2731 0000 FE123252 		.ascii	"\376\0222R\214"
 2731      8C
 2732              		.global	Eng_Q
 2733              		.section	.data.Eng_Q,"aw"
 2734              		.align	2
 2737              	Eng_Q:
 2738 0000 7C82A242 		.ascii	"|\202\242B\274"
 2738      BC
 2739              		.global	Eng_P
 2740              		.section	.data.Eng_P,"aw"
 2741              		.align	2
 2744              	Eng_P:
 2745 0000 FE121212 		.ascii	"\376\022\022\022\014"
 2745      0C
 2746              		.global	Eng_O
 2747              		.section	.data.Eng_O,"aw"
 2748              		.align	2
 2751              	Eng_O:
 2752 0000 7C828282 		.ascii	"|\202\202\202|"
 2752      7C
 2753              		.global	Eng_N
 2754              		.section	.data.Eng_N,"aw"
 2755              		.align	2
 2758              	Eng_N:
 2759 0000 FE081020 		.ascii	"\376\010\020 \376"
 2759      FE
 2760              		.global	Eng_M
 2761              		.section	.data.Eng_M,"aw"
 2762              		.align	2
 2765              	Eng_M:
ARM GAS  C:\Users\igorn\AppData\Local\Temp\ccyy5tub.s 			page 67


 2766 0000 FE040804 		.ascii	"\376\004\010\004\376"
 2766      FE
 2767              		.global	Eng_L
 2768              		.section	.data.Eng_L,"aw"
 2769              		.align	2
 2772              	Eng_L:
 2773 0000 FE808080 		.ascii	"\376\200\200\200\200"
 2773      80
 2774              		.global	Eng_K
 2775              		.section	.data.Eng_K,"aw"
 2776              		.align	2
 2779              	Eng_K:
 2780 0000 FE102844 		.ascii	"\376\020(D\202"
 2780      82
 2781              		.global	Eng_J
 2782              		.section	.data.Eng_J,"aw"
 2783              		.align	2
 2786              	Eng_J:
 2787 0000 40808080 		.ascii	"@\200\200\200~"
 2787      7E
 2788              		.global	Eng_I
 2789              		.section	.data.Eng_I,"aw"
 2790              		.align	2
 2793              	Eng_I:
 2794 0000 0082FE82 		.ascii	"\000\202\376\202\000"
 2794      00
 2795              		.global	Eng_H
 2796              		.section	.data.Eng_H,"aw"
 2797              		.align	2
 2800              	Eng_H:
 2801 0000 FE101010 		.ascii	"\376\020\020\020\376"
 2801      FE
 2802              		.global	Eng_G
 2803              		.section	.data.Eng_G,"aw"
 2804              		.align	2
 2807              	Eng_G:
 2808 0000 7C829292 		.ascii	"|\202\222\222t"
 2808      74
 2809              		.global	Eng_F
 2810              		.section	.data.Eng_F,"aw"
 2811              		.align	2
 2814              	Eng_F:
 2815 0000 FE121212 		.ascii	"\376\022\022\022\002"
 2815      02
 2816              		.global	Eng_E
 2817              		.section	.data.Eng_E,"aw"
 2818              		.align	2
 2821              	Eng_E:
 2822 0000 FE929292 		.ascii	"\376\222\222\222\202"
 2822      82
 2823              		.global	Eng_D
 2824              		.section	.data.Eng_D,"aw"
 2825              		.align	2
 2828              	Eng_D:
 2829 0000 FE828282 		.ascii	"\376\202\202\202|"
 2829      7C
 2830              		.global	Eng_C
ARM GAS  C:\Users\igorn\AppData\Local\Temp\ccyy5tub.s 			page 68


 2831              		.section	.data.Eng_C,"aw"
 2832              		.align	2
 2835              	Eng_C:
 2836 0000 7C828282 		.ascii	"|\202\202\202D"
 2836      44
 2837              		.global	Eng_B
 2838              		.section	.data.Eng_B,"aw"
 2839              		.align	2
 2842              	Eng_B:
 2843 0000 FE929292 		.ascii	"\376\222\222\222l"
 2843      6C
 2844              		.global	Eng_A
 2845              		.section	.data.Eng_A,"aw"
 2846              		.align	2
 2849              	Eng_A:
 2850 0000 FC121212 		.ascii	"\374\022\022\022\374"
 2850      FC
 2851              		.text
 2852              	.Letext0:
 2853              		.file 2 "c:\\users\\igorn\\appdata\\roaming\\code\\user\\globalstorage\\bmd.stm32-for-vscode\\@xpa
 2854              		.file 3 "c:\\users\\igorn\\appdata\\roaming\\code\\user\\globalstorage\\bmd.stm32-for-vscode\\@xpa
 2855              		.file 4 "Core/Src/NOS_LIB_Driver/Inc/NOS_Typedefs.h"
 2856              		.file 5 "Core/Src/NOS_LIB_Driver/Inc/CharLib(7x5).h"
 2857              		.file 6 "c:\\users\\igorn\\appdata\\roaming\\code\\user\\globalstorage\\bmd.stm32-for-vscode\\@xpa
 2858              		.file 7 "Core/Src/NOS_LIB_Driver/Inc/NOS_Math.h"
 2859              		.file 8 "<built-in>"
ARM GAS  C:\Users\igorn\AppData\Local\Temp\ccyy5tub.s 			page 69

