ARM GAS  C:\Users\igorn\AppData\Local\Temp\ccXHSSPx.s 			page 1


   1              		.cpu cortex-m4
   2              		.arch armv7e-m
   3              		.fpu fpv4-sp-d16
   4              		.eabi_attribute 27, 1
   5              		.eabi_attribute 28, 1
   6              		.eabi_attribute 20, 1
   7              		.eabi_attribute 21, 1
   8              		.eabi_attribute 23, 3
   9              		.eabi_attribute 24, 1
  10              		.eabi_attribute 25, 1
  11              		.eabi_attribute 26, 1
  12              		.eabi_attribute 30, 1
  13              		.eabi_attribute 34, 1
  14              		.eabi_attribute 18, 4
  15              		.file	"NOS_WS2812B_Strip.c"
  16              		.text
  17              	.Ltext0:
  18              		.cfi_sections	.debug_frame
  19              		.file 1 "Core/Src/NOS_LIB_Driver/Src/NOS_WS2812B_Strip.c"
  20              		.section	.text.NOS_WS2812B_Strip_FullInit,"ax",%progbits
  21              		.align	1
  22              		.global	NOS_WS2812B_Strip_FullInit
  23              		.syntax unified
  24              		.thumb
  25              		.thumb_func
  27              	NOS_WS2812B_Strip_FullInit:
  28              	.LVL0:
  29              	.LFB130:
   1:Core/Src/NOS_LIB_Driver/Src/NOS_WS2812B_Strip.c **** #include "NOS_WS2812B_Strip.h"
   2:Core/Src/NOS_LIB_Driver/Src/NOS_WS2812B_Strip.c **** 
   3:Core/Src/NOS_LIB_Driver/Src/NOS_WS2812B_Strip.c **** void NOS_WS2812B_Strip_FullInit(WS2812B_Strip* strip,uint8_t* buff,PixelColor* pixels,int lenght)
   4:Core/Src/NOS_LIB_Driver/Src/NOS_WS2812B_Strip.c **** {
  30              		.loc 1 4 1 view -0
  31              		.cfi_startproc
  32              		@ args = 0, pretend = 0, frame = 0
  33              		@ frame_needed = 0, uses_anonymous_args = 0
  34              		@ link register save eliminated.
   5:Core/Src/NOS_LIB_Driver/Src/NOS_WS2812B_Strip.c ****     strip->pixels = pixels;
  35              		.loc 1 5 5 view .LVU1
  36              		.loc 1 5 19 is_stmt 0 view .LVU2
  37 0000 4260     		str	r2, [r0, #4]
   6:Core/Src/NOS_LIB_Driver/Src/NOS_WS2812B_Strip.c ****     strip->frameBuffer = buff;
  38              		.loc 1 6 5 is_stmt 1 view .LVU3
  39              		.loc 1 6 24 is_stmt 0 view .LVU4
  40 0002 0160     		str	r1, [r0]
   7:Core/Src/NOS_LIB_Driver/Src/NOS_WS2812B_Strip.c ****     strip->pixelCount = lenght;
  41              		.loc 1 7 5 is_stmt 1 view .LVU5
  42              		.loc 1 7 23 is_stmt 0 view .LVU6
  43 0004 8360     		str	r3, [r0, #8]
   8:Core/Src/NOS_LIB_Driver/Src/NOS_WS2812B_Strip.c ****     strip->bright = 100;
  44              		.loc 1 8 5 is_stmt 1 view .LVU7
  45              		.loc 1 8 19 is_stmt 0 view .LVU8
  46 0006 6423     		movs	r3, #100
  47              	.LVL1:
  48              		.loc 1 8 19 view .LVU9
  49 0008 C360     		str	r3, [r0, #12]
   9:Core/Src/NOS_LIB_Driver/Src/NOS_WS2812B_Strip.c **** }
ARM GAS  C:\Users\igorn\AppData\Local\Temp\ccXHSSPx.s 			page 2


  50              		.loc 1 9 1 view .LVU10
  51 000a 7047     		bx	lr
  52              		.cfi_endproc
  53              	.LFE130:
  55              		.section	.text.NOS_WS2812B_Strip_CoreSetPixel,"ax",%progbits
  56              		.align	1
  57              		.global	NOS_WS2812B_Strip_CoreSetPixel
  58              		.syntax unified
  59              		.thumb
  60              		.thumb_func
  62              	NOS_WS2812B_Strip_CoreSetPixel:
  63              	.LVL2:
  64              	.LFB131:
  10:Core/Src/NOS_LIB_Driver/Src/NOS_WS2812B_Strip.c **** 
  11:Core/Src/NOS_LIB_Driver/Src/NOS_WS2812B_Strip.c **** void NOS_WS2812B_Strip_CoreSetPixel(WS2812B_Strip* strip,int pixelPos,uint8_t r, uint8_t g, uint8_t
  12:Core/Src/NOS_LIB_Driver/Src/NOS_WS2812B_Strip.c **** {
  65              		.loc 1 12 1 is_stmt 1 view -0
  66              		.cfi_startproc
  67              		@ args = 4, pretend = 0, frame = 0
  68              		@ frame_needed = 0, uses_anonymous_args = 0
  69              		@ link register save eliminated.
  70              		.loc 1 12 1 is_stmt 0 view .LVU12
  71 0000 30B4     		push	{r4, r5}
  72              		.cfi_def_cfa_offset 8
  73              		.cfi_offset 4, -8
  74              		.cfi_offset 5, -4
  13:Core/Src/NOS_LIB_Driver/Src/NOS_WS2812B_Strip.c ****     if(strip->frameBuffer != NULL && pixelPos <= strip->pixelCount)
  75              		.loc 1 13 5 is_stmt 1 view .LVU13
  76              		.loc 1 13 13 is_stmt 0 view .LVU14
  77 0002 0468     		ldr	r4, [r0]
  78              		.loc 1 13 7 view .LVU15
  79 0004 6CB1     		cbz	r4, .L2
  80              		.loc 1 13 35 discriminator 1 view .LVU16
  81 0006 8568     		ldr	r5, [r0, #8]
  82 0008 8D42     		cmp	r5, r1
  83 000a 0ADB     		blt	.L2
  14:Core/Src/NOS_LIB_Driver/Src/NOS_WS2812B_Strip.c ****     {
  15:Core/Src/NOS_LIB_Driver/Src/NOS_WS2812B_Strip.c ****         strip->frameBuffer[pixelPos * 3] = r;
  84              		.loc 1 15 9 is_stmt 1 view .LVU17
  85              		.loc 1 15 37 is_stmt 0 view .LVU18
  86 000c 01EB4101 		add	r1, r1, r1, lsl #1
  87              	.LVL3:
  88              		.loc 1 15 42 view .LVU19
  89 0010 6254     		strb	r2, [r4, r1]
  16:Core/Src/NOS_LIB_Driver/Src/NOS_WS2812B_Strip.c ****         strip->frameBuffer[pixelPos * 3 + 1] = g;
  90              		.loc 1 16 9 is_stmt 1 view .LVU20
  91              		.loc 1 16 14 is_stmt 0 view .LVU21
  92 0012 0468     		ldr	r4, [r0]
  93              		.loc 1 16 27 view .LVU22
  94 0014 4A1C     		adds	r2, r1, #1
  95              	.LVL4:
  96              		.loc 1 16 46 view .LVU23
  97 0016 A354     		strb	r3, [r4, r2]
  17:Core/Src/NOS_LIB_Driver/Src/NOS_WS2812B_Strip.c ****         strip->frameBuffer[pixelPos * 3 + 2] = b;
  98              		.loc 1 17 9 is_stmt 1 view .LVU24
  99              		.loc 1 17 14 is_stmt 0 view .LVU25
 100 0018 0368     		ldr	r3, [r0]
ARM GAS  C:\Users\igorn\AppData\Local\Temp\ccXHSSPx.s 			page 3


 101              	.LVL5:
 102              		.loc 1 17 27 view .LVU26
 103 001a 0231     		adds	r1, r1, #2
 104              		.loc 1 17 46 view .LVU27
 105 001c 9DF80820 		ldrb	r2, [sp, #8]	@ zero_extendqisi2
 106              	.LVL6:
 107              		.loc 1 17 46 view .LVU28
 108 0020 5A54     		strb	r2, [r3, r1]
 109              	.LVL7:
 110              	.L2:
  18:Core/Src/NOS_LIB_Driver/Src/NOS_WS2812B_Strip.c ****     }
  19:Core/Src/NOS_LIB_Driver/Src/NOS_WS2812B_Strip.c **** }
 111              		.loc 1 19 1 view .LVU29
 112 0022 30BC     		pop	{r4, r5}
 113              		.cfi_restore 5
 114              		.cfi_restore 4
 115              		.cfi_def_cfa_offset 0
 116              	.LVL8:
 117              		.loc 1 19 1 view .LVU30
 118 0024 7047     		bx	lr
 119              		.cfi_endproc
 120              	.LFE131:
 122              		.section	.text.NOS_WS2812B_Strip_SetPixel,"ax",%progbits
 123              		.align	1
 124              		.global	NOS_WS2812B_Strip_SetPixel
 125              		.syntax unified
 126              		.thumb
 127              		.thumb_func
 129              	NOS_WS2812B_Strip_SetPixel:
 130              	.LVL9:
 131              	.LFB132:
  20:Core/Src/NOS_LIB_Driver/Src/NOS_WS2812B_Strip.c **** 
  21:Core/Src/NOS_LIB_Driver/Src/NOS_WS2812B_Strip.c **** void NOS_WS2812B_Strip_SetPixel(WS2812B_Strip* strip,int pixelPos,uint8_t r, uint8_t g, uint8_t b)
  22:Core/Src/NOS_LIB_Driver/Src/NOS_WS2812B_Strip.c **** {
 132              		.loc 1 22 1 is_stmt 1 view -0
 133              		.cfi_startproc
 134              		@ args = 4, pretend = 0, frame = 0
 135              		@ frame_needed = 0, uses_anonymous_args = 0
 136              		@ link register save eliminated.
 137              		.loc 1 22 1 is_stmt 0 view .LVU32
 138 0000 30B4     		push	{r4, r5}
 139              		.cfi_def_cfa_offset 8
 140              		.cfi_offset 4, -8
 141              		.cfi_offset 5, -4
  23:Core/Src/NOS_LIB_Driver/Src/NOS_WS2812B_Strip.c ****     if(strip->pixels != NULL && pixelPos <= strip->pixelCount)
 142              		.loc 1 23 5 is_stmt 1 view .LVU33
 143              		.loc 1 23 13 is_stmt 0 view .LVU34
 144 0002 4468     		ldr	r4, [r0, #4]
 145              		.loc 1 23 7 view .LVU35
 146 0004 6CB1     		cbz	r4, .L5
 147              		.loc 1 23 30 discriminator 1 view .LVU36
 148 0006 8568     		ldr	r5, [r0, #8]
 149 0008 8D42     		cmp	r5, r1
 150 000a 0ADB     		blt	.L5
  24:Core/Src/NOS_LIB_Driver/Src/NOS_WS2812B_Strip.c ****     {
  25:Core/Src/NOS_LIB_Driver/Src/NOS_WS2812B_Strip.c ****         strip->pixels[pixelPos].R = r;
 151              		.loc 1 25 9 is_stmt 1 view .LVU37
ARM GAS  C:\Users\igorn\AppData\Local\Temp\ccXHSSPx.s 			page 4


 152              		.loc 1 25 22 is_stmt 0 view .LVU38
 153 000c 01EB4101 		add	r1, r1, r1, lsl #1
 154              	.LVL10:
 155              		.loc 1 25 35 view .LVU39
 156 0010 6254     		strb	r2, [r4, r1]
  26:Core/Src/NOS_LIB_Driver/Src/NOS_WS2812B_Strip.c ****         strip->pixels[pixelPos].G = g;
 157              		.loc 1 26 9 is_stmt 1 view .LVU40
 158              		.loc 1 26 14 is_stmt 0 view .LVU41
 159 0012 4268     		ldr	r2, [r0, #4]
 160              	.LVL11:
 161              		.loc 1 26 22 view .LVU42
 162 0014 0A44     		add	r2, r2, r1
 163              		.loc 1 26 35 view .LVU43
 164 0016 5370     		strb	r3, [r2, #1]
 165              	.LVL12:
  27:Core/Src/NOS_LIB_Driver/Src/NOS_WS2812B_Strip.c ****         strip->pixels[pixelPos].B = b;
 166              		.loc 1 27 9 is_stmt 1 view .LVU44
 167              		.loc 1 27 14 is_stmt 0 view .LVU45
 168 0018 4368     		ldr	r3, [r0, #4]
 169              	.LVL13:
 170              		.loc 1 27 22 view .LVU46
 171 001a 0B44     		add	r3, r3, r1
 172              		.loc 1 27 35 view .LVU47
 173 001c 9DF80820 		ldrb	r2, [sp, #8]	@ zero_extendqisi2
 174              	.LVL14:
 175              		.loc 1 27 35 view .LVU48
 176 0020 9A70     		strb	r2, [r3, #2]
 177              	.L5:
  28:Core/Src/NOS_LIB_Driver/Src/NOS_WS2812B_Strip.c ****     }         
  29:Core/Src/NOS_LIB_Driver/Src/NOS_WS2812B_Strip.c **** }
 178              		.loc 1 29 1 view .LVU49
 179 0022 30BC     		pop	{r4, r5}
 180              		.cfi_restore 5
 181              		.cfi_restore 4
 182              		.cfi_def_cfa_offset 0
 183              	.LVL15:
 184              		.loc 1 29 1 view .LVU50
 185 0024 7047     		bx	lr
 186              		.cfi_endproc
 187              	.LFE132:
 189              		.section	.text.NOS_WS2812B_Strip_Clear,"ax",%progbits
 190              		.align	1
 191              		.global	NOS_WS2812B_Strip_Clear
 192              		.syntax unified
 193              		.thumb
 194              		.thumb_func
 196              	NOS_WS2812B_Strip_Clear:
 197              	.LVL16:
 198              	.LFB133:
  30:Core/Src/NOS_LIB_Driver/Src/NOS_WS2812B_Strip.c **** 
  31:Core/Src/NOS_LIB_Driver/Src/NOS_WS2812B_Strip.c **** void NOS_WS2812B_Strip_Clear(WS2812B_Strip* strip)
  32:Core/Src/NOS_LIB_Driver/Src/NOS_WS2812B_Strip.c **** {
 199              		.loc 1 32 1 is_stmt 1 view -0
 200              		.cfi_startproc
 201              		@ args = 0, pretend = 0, frame = 0
 202              		@ frame_needed = 0, uses_anonymous_args = 0
 203              		.loc 1 32 1 is_stmt 0 view .LVU52
ARM GAS  C:\Users\igorn\AppData\Local\Temp\ccXHSSPx.s 			page 5


 204 0000 30B5     		push	{r4, r5, lr}
 205              		.cfi_def_cfa_offset 12
 206              		.cfi_offset 4, -12
 207              		.cfi_offset 5, -8
 208              		.cfi_offset 14, -4
 209 0002 83B0     		sub	sp, sp, #12
 210              		.cfi_def_cfa_offset 24
 211 0004 0546     		mov	r5, r0
  33:Core/Src/NOS_LIB_Driver/Src/NOS_WS2812B_Strip.c ****     for(int i = 0; i < strip->pixelCount; i++)
 212              		.loc 1 33 5 is_stmt 1 view .LVU53
 213              	.LBB2:
 214              		.loc 1 33 9 view .LVU54
 215              	.LVL17:
 216              		.loc 1 33 13 is_stmt 0 view .LVU55
 217 0006 0024     		movs	r4, #0
 218              		.loc 1 33 5 view .LVU56
 219 0008 07E0     		b	.L9
 220              	.LVL18:
 221              	.L10:
  34:Core/Src/NOS_LIB_Driver/Src/NOS_WS2812B_Strip.c ****     {
  35:Core/Src/NOS_LIB_Driver/Src/NOS_WS2812B_Strip.c ****         NOS_WS2812B_Strip_SetPixel(strip,i,0,0,0);
 222              		.loc 1 35 9 is_stmt 1 discriminator 3 view .LVU57
 223 000a 0022     		movs	r2, #0
 224 000c 0092     		str	r2, [sp]
 225 000e 1346     		mov	r3, r2
 226 0010 2146     		mov	r1, r4
 227 0012 2846     		mov	r0, r5
 228 0014 FFF7FEFF 		bl	NOS_WS2812B_Strip_SetPixel
 229              	.LVL19:
  33:Core/Src/NOS_LIB_Driver/Src/NOS_WS2812B_Strip.c ****     for(int i = 0; i < strip->pixelCount; i++)
 230              		.loc 1 33 44 discriminator 3 view .LVU58
 231 0018 0134     		adds	r4, r4, #1
 232              	.LVL20:
 233              	.L9:
  33:Core/Src/NOS_LIB_Driver/Src/NOS_WS2812B_Strip.c ****     for(int i = 0; i < strip->pixelCount; i++)
 234              		.loc 1 33 22 discriminator 1 view .LVU59
  33:Core/Src/NOS_LIB_Driver/Src/NOS_WS2812B_Strip.c ****     for(int i = 0; i < strip->pixelCount; i++)
 235              		.loc 1 33 29 is_stmt 0 discriminator 1 view .LVU60
 236 001a AB68     		ldr	r3, [r5, #8]
  33:Core/Src/NOS_LIB_Driver/Src/NOS_WS2812B_Strip.c ****     for(int i = 0; i < strip->pixelCount; i++)
 237              		.loc 1 33 22 discriminator 1 view .LVU61
 238 001c A342     		cmp	r3, r4
 239 001e F4DC     		bgt	.L10
 240              	.LBE2:
  36:Core/Src/NOS_LIB_Driver/Src/NOS_WS2812B_Strip.c ****     }
  37:Core/Src/NOS_LIB_Driver/Src/NOS_WS2812B_Strip.c **** }
 241              		.loc 1 37 1 view .LVU62
 242 0020 03B0     		add	sp, sp, #12
 243              		.cfi_def_cfa_offset 12
 244              		@ sp needed
 245 0022 30BD     		pop	{r4, r5, pc}
 246              		.loc 1 37 1 view .LVU63
 247              		.cfi_endproc
 248              	.LFE133:
 250              		.section	.text.NOS_WS2812B_Strip_Update,"ax",%progbits
 251              		.align	1
 252              		.global	NOS_WS2812B_Strip_Update
ARM GAS  C:\Users\igorn\AppData\Local\Temp\ccXHSSPx.s 			page 6


 253              		.syntax unified
 254              		.thumb
 255              		.thumb_func
 257              	NOS_WS2812B_Strip_Update:
 258              	.LVL21:
 259              	.LFB134:
  38:Core/Src/NOS_LIB_Driver/Src/NOS_WS2812B_Strip.c **** 
  39:Core/Src/NOS_LIB_Driver/Src/NOS_WS2812B_Strip.c **** void NOS_WS2812B_Strip_Update(WS2812B_Strip* strip)
  40:Core/Src/NOS_LIB_Driver/Src/NOS_WS2812B_Strip.c **** {
 260              		.loc 1 40 1 is_stmt 1 view -0
 261              		.cfi_startproc
 262              		@ args = 0, pretend = 0, frame = 16
 263              		@ frame_needed = 0, uses_anonymous_args = 0
 264              		.loc 1 40 1 is_stmt 0 view .LVU65
 265 0000 30B5     		push	{r4, r5, lr}
 266              		.cfi_def_cfa_offset 12
 267              		.cfi_offset 4, -12
 268              		.cfi_offset 5, -8
 269              		.cfi_offset 14, -4
 270 0002 87B0     		sub	sp, sp, #28
 271              		.cfi_def_cfa_offset 40
 272 0004 0546     		mov	r5, r0
  41:Core/Src/NOS_LIB_Driver/Src/NOS_WS2812B_Strip.c ****     for(int i = 0; i < strip->pixelCount; i++)
 273              		.loc 1 41 5 is_stmt 1 view .LVU66
 274              	.LBB3:
 275              		.loc 1 41 9 view .LVU67
 276              	.LVL22:
 277              		.loc 1 41 13 is_stmt 0 view .LVU68
 278 0006 0024     		movs	r4, #0
 279              		.loc 1 41 5 view .LVU69
 280 0008 38E0     		b	.L13
 281              	.LVL23:
 282              	.L14:
 283              	.LBB4:
  42:Core/Src/NOS_LIB_Driver/Src/NOS_WS2812B_Strip.c ****     {
  43:Core/Src/NOS_LIB_Driver/Src/NOS_WS2812B_Strip.c ****         float coef = (float)strip->bright / 100;
 284              		.loc 1 43 9 is_stmt 1 discriminator 3 view .LVU70
 285              		.loc 1 43 22 is_stmt 0 discriminator 3 view .LVU71
 286 000a D5ED037A 		vldr.32	s15, [r5, #12]	@ int
 287 000e F8EEE77A 		vcvt.f32.s32	s15, s15
 288              		.loc 1 43 15 discriminator 3 view .LVU72
 289 0012 DFED1D6A 		vldr.32	s13, .L16
 290 0016 87EEA67A 		vdiv.f32	s14, s15, s13
 291              	.LVL24:
  44:Core/Src/NOS_LIB_Driver/Src/NOS_WS2812B_Strip.c ****         uint8_t currR = (float)strip->pixels[i].R * coef;
 292              		.loc 1 44 9 is_stmt 1 discriminator 3 view .LVU73
 293              		.loc 1 44 37 is_stmt 0 discriminator 3 view .LVU74
 294 001a 6968     		ldr	r1, [r5, #4]
 295              		.loc 1 44 45 discriminator 3 view .LVU75
 296 001c 04EB4402 		add	r2, r4, r4, lsl #1
 297 0020 8B18     		adds	r3, r1, r2
 298              		.loc 1 44 48 discriminator 3 view .LVU76
 299 0022 8A5C     		ldrb	r2, [r1, r2]	@ zero_extendqisi2
 300 0024 07EE902A 		vmov	s15, r2	@ int
 301              		.loc 1 44 25 discriminator 3 view .LVU77
 302 0028 F8EE677A 		vcvt.f32.u32	s15, s15
 303              		.loc 1 44 51 discriminator 3 view .LVU78
ARM GAS  C:\Users\igorn\AppData\Local\Temp\ccXHSSPx.s 			page 7


 304 002c 67EE877A 		vmul.f32	s15, s15, s14
 305              		.loc 1 44 17 discriminator 3 view .LVU79
 306 0030 FCEEE77A 		vcvt.u32.f32	s15, s15
 307 0034 CDED037A 		vstr.32	s15, [sp, #12]	@ int
 308              	.LVL25:
  45:Core/Src/NOS_LIB_Driver/Src/NOS_WS2812B_Strip.c ****         uint8_t currG = (float)strip->pixels[i].G * coef;
 309              		.loc 1 45 9 is_stmt 1 discriminator 3 view .LVU80
 310              		.loc 1 45 48 is_stmt 0 discriminator 3 view .LVU81
 311 0038 5A78     		ldrb	r2, [r3, #1]	@ zero_extendqisi2
 312 003a 07EE902A 		vmov	s15, r2	@ int
 313              		.loc 1 45 25 discriminator 3 view .LVU82
 314 003e F8EE677A 		vcvt.f32.u32	s15, s15
 315              		.loc 1 45 51 discriminator 3 view .LVU83
 316 0042 67EE877A 		vmul.f32	s15, s15, s14
 317              		.loc 1 45 17 discriminator 3 view .LVU84
 318 0046 FCEEE77A 		vcvt.u32.f32	s15, s15
 319 004a CDED047A 		vstr.32	s15, [sp, #16]	@ int
 320              	.LVL26:
  46:Core/Src/NOS_LIB_Driver/Src/NOS_WS2812B_Strip.c ****         uint8_t currB = (float)strip->pixels[i].B * coef;
 321              		.loc 1 46 9 is_stmt 1 discriminator 3 view .LVU85
 322              		.loc 1 46 48 is_stmt 0 discriminator 3 view .LVU86
 323 004e 9B78     		ldrb	r3, [r3, #2]	@ zero_extendqisi2
 324 0050 07EE903A 		vmov	s15, r3	@ int
 325              		.loc 1 46 25 discriminator 3 view .LVU87
 326 0054 F8EE677A 		vcvt.f32.u32	s15, s15
 327              		.loc 1 46 51 discriminator 3 view .LVU88
 328 0058 67EE877A 		vmul.f32	s15, s15, s14
 329              		.loc 1 46 17 discriminator 3 view .LVU89
 330 005c FCEEE77A 		vcvt.u32.f32	s15, s15
 331 0060 CDED057A 		vstr.32	s15, [sp, #20]	@ int
 332 0064 9DF81430 		ldrb	r3, [sp, #20]	@ zero_extendqisi2
 333              	.LVL27:
  47:Core/Src/NOS_LIB_Driver/Src/NOS_WS2812B_Strip.c ****         NOS_WS2812B_Strip_CoreSetPixel(strip,i,currR,currG,currB);
 334              		.loc 1 47 9 is_stmt 1 discriminator 3 view .LVU90
 335 0068 0093     		str	r3, [sp]
 336 006a 9DF81030 		ldrb	r3, [sp, #16]	@ zero_extendqisi2
 337              	.LVL28:
 338              		.loc 1 47 9 is_stmt 0 discriminator 3 view .LVU91
 339 006e 9DF80C20 		ldrb	r2, [sp, #12]	@ zero_extendqisi2
 340 0072 2146     		mov	r1, r4
 341 0074 2846     		mov	r0, r5
 342 0076 FFF7FEFF 		bl	NOS_WS2812B_Strip_CoreSetPixel
 343              	.LVL29:
 344              		.loc 1 47 9 discriminator 3 view .LVU92
 345              	.LBE4:
  41:Core/Src/NOS_LIB_Driver/Src/NOS_WS2812B_Strip.c ****     {
 346              		.loc 1 41 44 is_stmt 1 discriminator 3 view .LVU93
 347 007a 0134     		adds	r4, r4, #1
 348              	.LVL30:
 349              	.L13:
  41:Core/Src/NOS_LIB_Driver/Src/NOS_WS2812B_Strip.c ****     {
 350              		.loc 1 41 22 discriminator 1 view .LVU94
  41:Core/Src/NOS_LIB_Driver/Src/NOS_WS2812B_Strip.c ****     {
 351              		.loc 1 41 29 is_stmt 0 discriminator 1 view .LVU95
 352 007c AB68     		ldr	r3, [r5, #8]
  41:Core/Src/NOS_LIB_Driver/Src/NOS_WS2812B_Strip.c ****     {
 353              		.loc 1 41 22 discriminator 1 view .LVU96
ARM GAS  C:\Users\igorn\AppData\Local\Temp\ccXHSSPx.s 			page 8


 354 007e A342     		cmp	r3, r4
 355 0080 C3DC     		bgt	.L14
 356              	.LBE3:
  48:Core/Src/NOS_LIB_Driver/Src/NOS_WS2812B_Strip.c ****     }
  49:Core/Src/NOS_LIB_Driver/Src/NOS_WS2812B_Strip.c **** }
 357              		.loc 1 49 1 view .LVU97
 358 0082 07B0     		add	sp, sp, #28
 359              		.cfi_def_cfa_offset 12
 360              		@ sp needed
 361 0084 30BD     		pop	{r4, r5, pc}
 362              	.LVL31:
 363              	.L17:
 364              		.loc 1 49 1 view .LVU98
 365 0086 00BF     		.align	2
 366              	.L16:
 367 0088 0000C842 		.word	1120403456
 368              		.cfi_endproc
 369              	.LFE134:
 371              		.section	.text.NOS_WS2812B_Strip_TestFill,"ax",%progbits
 372              		.align	1
 373              		.global	NOS_WS2812B_Strip_TestFill
 374              		.syntax unified
 375              		.thumb
 376              		.thumb_func
 378              	NOS_WS2812B_Strip_TestFill:
 379              	.LVL32:
 380              	.LFB135:
  50:Core/Src/NOS_LIB_Driver/Src/NOS_WS2812B_Strip.c **** 
  51:Core/Src/NOS_LIB_Driver/Src/NOS_WS2812B_Strip.c **** void NOS_WS2812B_Strip_TestFill(WS2812B_Strip* strip)
  52:Core/Src/NOS_LIB_Driver/Src/NOS_WS2812B_Strip.c **** {
 381              		.loc 1 52 1 is_stmt 1 view -0
 382              		.cfi_startproc
 383              		@ args = 0, pretend = 0, frame = 0
 384              		@ frame_needed = 0, uses_anonymous_args = 0
 385              		.loc 1 52 1 is_stmt 0 view .LVU100
 386 0000 2DE9F041 		push	{r4, r5, r6, r7, r8, lr}
 387              		.cfi_def_cfa_offset 24
 388              		.cfi_offset 4, -24
 389              		.cfi_offset 5, -20
 390              		.cfi_offset 6, -16
 391              		.cfi_offset 7, -12
 392              		.cfi_offset 8, -8
 393              		.cfi_offset 14, -4
 394 0004 82B0     		sub	sp, sp, #8
 395              		.cfi_def_cfa_offset 32
 396 0006 0646     		mov	r6, r0
  53:Core/Src/NOS_LIB_Driver/Src/NOS_WS2812B_Strip.c ****     int repeats = strip->pixelCount/7;
 397              		.loc 1 53 5 is_stmt 1 view .LVU101
 398              		.loc 1 53 24 is_stmt 0 view .LVU102
 399 0008 8368     		ldr	r3, [r0, #8]
 400              		.loc 1 53 9 view .LVU103
 401 000a 234A     		ldr	r2, .L22
 402 000c 82FB0312 		smull	r1, r2, r2, r3
 403 0010 1A44     		add	r2, r2, r3
 404 0012 4FEAE378 		asr	r8, r3, #31
 405 0016 C8EBA208 		rsb	r8, r8, r2, asr #2
 406              	.LVL33:
ARM GAS  C:\Users\igorn\AppData\Local\Temp\ccXHSSPx.s 			page 9


  54:Core/Src/NOS_LIB_Driver/Src/NOS_WS2812B_Strip.c **** 
  55:Core/Src/NOS_LIB_Driver/Src/NOS_WS2812B_Strip.c ****     for(int i = 0; i < repeats; i++)
 407              		.loc 1 55 5 is_stmt 1 view .LVU104
 408              	.LBB5:
 409              		.loc 1 55 9 view .LVU105
 410              		.loc 1 55 13 is_stmt 0 view .LVU106
 411 001a 0027     		movs	r7, #0
 412              		.loc 1 55 5 view .LVU107
 413 001c 37E0     		b	.L19
 414              	.LVL34:
 415              	.L20:
  56:Core/Src/NOS_LIB_Driver/Src/NOS_WS2812B_Strip.c ****     {
  57:Core/Src/NOS_LIB_Driver/Src/NOS_WS2812B_Strip.c ****         NOS_WS2812B_Strip_SetPixel(strip,i * 7 + 0,255,0,0); //red
 416              		.loc 1 57 9 is_stmt 1 discriminator 3 view .LVU108
 417 001e C7EBC705 		rsb	r5, r7, r7, lsl #3
 418 0022 0024     		movs	r4, #0
 419 0024 0094     		str	r4, [sp]
 420 0026 2346     		mov	r3, r4
 421 0028 FF22     		movs	r2, #255
 422 002a 2946     		mov	r1, r5
 423 002c 3046     		mov	r0, r6
 424 002e FFF7FEFF 		bl	NOS_WS2812B_Strip_SetPixel
 425              	.LVL35:
  58:Core/Src/NOS_LIB_Driver/Src/NOS_WS2812B_Strip.c ****         NOS_WS2812B_Strip_SetPixel(strip,i * 7 + 1,255,127,0); //orange
 426              		.loc 1 58 9 discriminator 3 view .LVU109
 427 0032 0094     		str	r4, [sp]
 428 0034 7F23     		movs	r3, #127
 429 0036 FF22     		movs	r2, #255
 430 0038 691C     		adds	r1, r5, #1
 431 003a 3046     		mov	r0, r6
 432 003c FFF7FEFF 		bl	NOS_WS2812B_Strip_SetPixel
 433              	.LVL36:
  59:Core/Src/NOS_LIB_Driver/Src/NOS_WS2812B_Strip.c ****         NOS_WS2812B_Strip_SetPixel(strip,i * 7 + 2,255,255,0); //yellow
 434              		.loc 1 59 9 discriminator 3 view .LVU110
 435 0040 0094     		str	r4, [sp]
 436 0042 FF23     		movs	r3, #255
 437 0044 1A46     		mov	r2, r3
 438 0046 A91C     		adds	r1, r5, #2
 439 0048 3046     		mov	r0, r6
 440 004a FFF7FEFF 		bl	NOS_WS2812B_Strip_SetPixel
 441              	.LVL37:
  60:Core/Src/NOS_LIB_Driver/Src/NOS_WS2812B_Strip.c ****         NOS_WS2812B_Strip_SetPixel(strip,i * 7 + 3,0,255,0); //green
 442              		.loc 1 60 9 discriminator 3 view .LVU111
 443 004e 0094     		str	r4, [sp]
 444 0050 FF23     		movs	r3, #255
 445 0052 2246     		mov	r2, r4
 446 0054 E91C     		adds	r1, r5, #3
 447 0056 3046     		mov	r0, r6
 448 0058 FFF7FEFF 		bl	NOS_WS2812B_Strip_SetPixel
 449              	.LVL38:
  61:Core/Src/NOS_LIB_Driver/Src/NOS_WS2812B_Strip.c ****         NOS_WS2812B_Strip_SetPixel(strip,i * 7 + 4,0,0,255); //blue
 450              		.loc 1 61 9 discriminator 3 view .LVU112
 451 005c FF23     		movs	r3, #255
 452 005e 0093     		str	r3, [sp]
 453 0060 2346     		mov	r3, r4
 454 0062 2246     		mov	r2, r4
 455 0064 291D     		adds	r1, r5, #4
ARM GAS  C:\Users\igorn\AppData\Local\Temp\ccXHSSPx.s 			page 10


 456 0066 3046     		mov	r0, r6
 457 0068 FFF7FEFF 		bl	NOS_WS2812B_Strip_SetPixel
 458              	.LVL39:
  62:Core/Src/NOS_LIB_Driver/Src/NOS_WS2812B_Strip.c ****         NOS_WS2812B_Strip_SetPixel(strip,i * 7 + 5,75,0,130); //violet
 459              		.loc 1 62 9 discriminator 3 view .LVU113
 460 006c 8223     		movs	r3, #130
 461 006e 0093     		str	r3, [sp]
 462 0070 2346     		mov	r3, r4
 463 0072 4B22     		movs	r2, #75
 464 0074 691D     		adds	r1, r5, #5
 465 0076 3046     		mov	r0, r6
 466 0078 FFF7FEFF 		bl	NOS_WS2812B_Strip_SetPixel
 467              	.LVL40:
  63:Core/Src/NOS_LIB_Driver/Src/NOS_WS2812B_Strip.c ****         NOS_WS2812B_Strip_SetPixel(strip,i * 7 + 6,148,0,211); //violet2
 468              		.loc 1 63 9 discriminator 3 view .LVU114
 469 007c D323     		movs	r3, #211
 470 007e 0093     		str	r3, [sp]
 471 0080 2346     		mov	r3, r4
 472 0082 9422     		movs	r2, #148
 473 0084 A91D     		adds	r1, r5, #6
 474 0086 3046     		mov	r0, r6
 475 0088 FFF7FEFF 		bl	NOS_WS2812B_Strip_SetPixel
 476              	.LVL41:
  55:Core/Src/NOS_LIB_Driver/Src/NOS_WS2812B_Strip.c ****     {
 477              		.loc 1 55 34 discriminator 3 view .LVU115
 478 008c 0137     		adds	r7, r7, #1
 479              	.LVL42:
 480              	.L19:
  55:Core/Src/NOS_LIB_Driver/Src/NOS_WS2812B_Strip.c ****     {
 481              		.loc 1 55 22 discriminator 1 view .LVU116
 482 008e 4745     		cmp	r7, r8
 483 0090 C5DB     		blt	.L20
 484              	.LBE5:
  64:Core/Src/NOS_LIB_Driver/Src/NOS_WS2812B_Strip.c ****     }
  65:Core/Src/NOS_LIB_Driver/Src/NOS_WS2812B_Strip.c **** }
 485              		.loc 1 65 1 is_stmt 0 view .LVU117
 486 0092 02B0     		add	sp, sp, #8
 487              		.cfi_def_cfa_offset 24
 488              		@ sp needed
 489 0094 BDE8F081 		pop	{r4, r5, r6, r7, r8, pc}
 490              	.LVL43:
 491              	.L23:
 492              		.loc 1 65 1 view .LVU118
 493              		.align	2
 494              	.L22:
 495 0098 93244992 		.word	-1840700269
 496              		.cfi_endproc
 497              	.LFE135:
 499              		.section	.text.NOS_WS2812B_Strip_ColorFill,"ax",%progbits
 500              		.align	1
 501              		.global	NOS_WS2812B_Strip_ColorFill
 502              		.syntax unified
 503              		.thumb
 504              		.thumb_func
 506              	NOS_WS2812B_Strip_ColorFill:
 507              	.LVL44:
 508              	.LFB136:
ARM GAS  C:\Users\igorn\AppData\Local\Temp\ccXHSSPx.s 			page 11


  66:Core/Src/NOS_LIB_Driver/Src/NOS_WS2812B_Strip.c **** 
  67:Core/Src/NOS_LIB_Driver/Src/NOS_WS2812B_Strip.c **** void NOS_WS2812B_Strip_ColorFill(WS2812B_Strip* strip,PixelColor color)
  68:Core/Src/NOS_LIB_Driver/Src/NOS_WS2812B_Strip.c **** {
 509              		.loc 1 68 1 is_stmt 1 view -0
 510              		.cfi_startproc
 511              		@ args = 0, pretend = 0, frame = 8
 512              		@ frame_needed = 0, uses_anonymous_args = 0
 513              		.loc 1 68 1 is_stmt 0 view .LVU120
 514 0000 30B5     		push	{r4, r5, lr}
 515              		.cfi_def_cfa_offset 12
 516              		.cfi_offset 4, -12
 517              		.cfi_offset 5, -8
 518              		.cfi_offset 14, -4
 519 0002 85B0     		sub	sp, sp, #20
 520              		.cfi_def_cfa_offset 32
 521 0004 0546     		mov	r5, r0
 522 0006 0391     		str	r1, [sp, #12]
  69:Core/Src/NOS_LIB_Driver/Src/NOS_WS2812B_Strip.c ****     for(int i = 0; i < strip->pixelCount; i++)
 523              		.loc 1 69 5 is_stmt 1 view .LVU121
 524              	.LBB6:
 525              		.loc 1 69 9 view .LVU122
 526              	.LVL45:
 527              		.loc 1 69 13 is_stmt 0 view .LVU123
 528 0008 0024     		movs	r4, #0
 529              		.loc 1 69 5 view .LVU124
 530 000a 0BE0     		b	.L25
 531              	.LVL46:
 532              	.L26:
  70:Core/Src/NOS_LIB_Driver/Src/NOS_WS2812B_Strip.c ****     {
  71:Core/Src/NOS_LIB_Driver/Src/NOS_WS2812B_Strip.c ****         NOS_WS2812B_Strip_SetPixel(strip,i,color.R,color.G,color.B);
 533              		.loc 1 71 9 is_stmt 1 discriminator 3 view .LVU125
 534 000c 9DF80E30 		ldrb	r3, [sp, #14]	@ zero_extendqisi2
 535 0010 0093     		str	r3, [sp]
 536 0012 9DF80D30 		ldrb	r3, [sp, #13]	@ zero_extendqisi2
 537 0016 9DF80C20 		ldrb	r2, [sp, #12]	@ zero_extendqisi2
 538 001a 2146     		mov	r1, r4
 539 001c 2846     		mov	r0, r5
 540 001e FFF7FEFF 		bl	NOS_WS2812B_Strip_SetPixel
 541              	.LVL47:
  69:Core/Src/NOS_LIB_Driver/Src/NOS_WS2812B_Strip.c ****     for(int i = 0; i < strip->pixelCount; i++)
 542              		.loc 1 69 44 discriminator 3 view .LVU126
 543 0022 0134     		adds	r4, r4, #1
 544              	.LVL48:
 545              	.L25:
  69:Core/Src/NOS_LIB_Driver/Src/NOS_WS2812B_Strip.c ****     for(int i = 0; i < strip->pixelCount; i++)
 546              		.loc 1 69 22 discriminator 1 view .LVU127
  69:Core/Src/NOS_LIB_Driver/Src/NOS_WS2812B_Strip.c ****     for(int i = 0; i < strip->pixelCount; i++)
 547              		.loc 1 69 29 is_stmt 0 discriminator 1 view .LVU128
 548 0024 AB68     		ldr	r3, [r5, #8]
  69:Core/Src/NOS_LIB_Driver/Src/NOS_WS2812B_Strip.c ****     for(int i = 0; i < strip->pixelCount; i++)
 549              		.loc 1 69 22 discriminator 1 view .LVU129
 550 0026 A342     		cmp	r3, r4
 551 0028 F0DC     		bgt	.L26
 552              	.LBE6:
  72:Core/Src/NOS_LIB_Driver/Src/NOS_WS2812B_Strip.c ****     }
  73:Core/Src/NOS_LIB_Driver/Src/NOS_WS2812B_Strip.c **** }
 553              		.loc 1 73 1 view .LVU130
ARM GAS  C:\Users\igorn\AppData\Local\Temp\ccXHSSPx.s 			page 12


 554 002a 05B0     		add	sp, sp, #20
 555              		.cfi_def_cfa_offset 12
 556              		@ sp needed
 557 002c 30BD     		pop	{r4, r5, pc}
 558              		.loc 1 73 1 view .LVU131
 559              		.cfi_endproc
 560              	.LFE136:
 562              		.section	.text.NOS_WS2812B_Strip_SetPixelByRGB,"ax",%progbits
 563              		.align	1
 564              		.global	NOS_WS2812B_Strip_SetPixelByRGB
 565              		.syntax unified
 566              		.thumb
 567              		.thumb_func
 569              	NOS_WS2812B_Strip_SetPixelByRGB:
 570              	.LVL49:
 571              	.LFB137:
  74:Core/Src/NOS_LIB_Driver/Src/NOS_WS2812B_Strip.c **** 
  75:Core/Src/NOS_LIB_Driver/Src/NOS_WS2812B_Strip.c **** void NOS_WS2812B_Strip_SetPixelByRGB(WS2812B_Strip* strip,int pixelPos,uint32_t rgb)
  76:Core/Src/NOS_LIB_Driver/Src/NOS_WS2812B_Strip.c **** {
 572              		.loc 1 76 1 is_stmt 1 view -0
 573              		.cfi_startproc
 574              		@ args = 0, pretend = 0, frame = 0
 575              		@ frame_needed = 0, uses_anonymous_args = 0
 576              		.loc 1 76 1 is_stmt 0 view .LVU133
 577 0000 00B5     		push	{lr}
 578              		.cfi_def_cfa_offset 4
 579              		.cfi_offset 14, -4
 580 0002 83B0     		sub	sp, sp, #12
 581              		.cfi_def_cfa_offset 16
  77:Core/Src/NOS_LIB_Driver/Src/NOS_WS2812B_Strip.c ****     uint8_t R = (rgb & 0x00FF0000) >> 16;
 582              		.loc 1 77 5 is_stmt 1 view .LVU134
 583              	.LVL50:
  78:Core/Src/NOS_LIB_Driver/Src/NOS_WS2812B_Strip.c ****     uint8_t G = (rgb & 0x0000FF00) >> 8;
 584              		.loc 1 78 5 view .LVU135
  79:Core/Src/NOS_LIB_Driver/Src/NOS_WS2812B_Strip.c ****     uint8_t B = rgb & 0x000000FF;
 585              		.loc 1 79 5 view .LVU136
 586              		.loc 1 79 13 is_stmt 0 view .LVU137
 587 0004 D3B2     		uxtb	r3, r2
 588              	.LVL51:
  80:Core/Src/NOS_LIB_Driver/Src/NOS_WS2812B_Strip.c **** 
  81:Core/Src/NOS_LIB_Driver/Src/NOS_WS2812B_Strip.c ****     NOS_WS2812B_Strip_SetPixel(strip,pixelPos,R,G,B);
 589              		.loc 1 81 5 is_stmt 1 view .LVU138
 590 0006 0093     		str	r3, [sp]
 591 0008 C2F30723 		ubfx	r3, r2, #8, #8
 592              	.LVL52:
 593              		.loc 1 81 5 is_stmt 0 view .LVU139
 594 000c C2F30742 		ubfx	r2, r2, #16, #8
 595              	.LVL53:
 596              		.loc 1 81 5 view .LVU140
 597 0010 FFF7FEFF 		bl	NOS_WS2812B_Strip_SetPixel
 598              	.LVL54:
  82:Core/Src/NOS_LIB_Driver/Src/NOS_WS2812B_Strip.c **** }
 599              		.loc 1 82 1 view .LVU141
 600 0014 03B0     		add	sp, sp, #12
 601              		.cfi_def_cfa_offset 4
 602              		@ sp needed
 603 0016 5DF804FB 		ldr	pc, [sp], #4
ARM GAS  C:\Users\igorn\AppData\Local\Temp\ccXHSSPx.s 			page 13


 604              		.cfi_endproc
 605              	.LFE137:
 607              		.section	.text.NOS_WS2812B_Strip_SetBright,"ax",%progbits
 608              		.align	1
 609              		.global	NOS_WS2812B_Strip_SetBright
 610              		.syntax unified
 611              		.thumb
 612              		.thumb_func
 614              	NOS_WS2812B_Strip_SetBright:
 615              	.LVL55:
 616              	.LFB138:
  83:Core/Src/NOS_LIB_Driver/Src/NOS_WS2812B_Strip.c **** 
  84:Core/Src/NOS_LIB_Driver/Src/NOS_WS2812B_Strip.c **** void NOS_WS2812B_Strip_SetBright(WS2812B_Strip* strip,uint8_t bright)
  85:Core/Src/NOS_LIB_Driver/Src/NOS_WS2812B_Strip.c **** {
 617              		.loc 1 85 1 is_stmt 1 view -0
 618              		.cfi_startproc
 619              		@ args = 0, pretend = 0, frame = 0
 620              		@ frame_needed = 0, uses_anonymous_args = 0
 621              		@ link register save eliminated.
  86:Core/Src/NOS_LIB_Driver/Src/NOS_WS2812B_Strip.c ****     strip->bright = bright;
 622              		.loc 1 86 5 view .LVU143
 623              		.loc 1 86 19 is_stmt 0 view .LVU144
 624 0000 C160     		str	r1, [r0, #12]
  87:Core/Src/NOS_LIB_Driver/Src/NOS_WS2812B_Strip.c **** }
 625              		.loc 1 87 1 view .LVU145
 626 0002 7047     		bx	lr
 627              		.cfi_endproc
 628              	.LFE138:
 630              		.text
 631              	.Letext0:
 632              		.file 2 "c:\\users\\igorn\\appdata\\roaming\\code\\user\\globalstorage\\bmd.stm32-for-vscode\\@xpa
 633              		.file 3 "c:\\users\\igorn\\appdata\\roaming\\code\\user\\globalstorage\\bmd.stm32-for-vscode\\@xpa
 634              		.file 4 "Core/Src/NOS_LIB_Driver/Inc/NOS_Typedefs.h"
ARM GAS  C:\Users\igorn\AppData\Local\Temp\ccXHSSPx.s 			page 14

