ARM GAS  C:\Users\igorn\AppData\Local\Temp\ccpc6f5d.s 			page 1


   1              		.cpu cortex-m4
   2              		.arch armv7e-m
   3              		.fpu fpv4-sp-d16
   4              		.eabi_attribute 27, 1
   5              		.eabi_attribute 28, 1
   6              		.eabi_attribute 20, 1
   7              		.eabi_attribute 21, 1
   8              		.eabi_attribute 23, 3
   9              		.eabi_attribute 24, 1
  10              		.eabi_attribute 25, 1
  11              		.eabi_attribute 26, 1
  12              		.eabi_attribute 30, 1
  13              		.eabi_attribute 34, 1
  14              		.eabi_attribute 18, 4
  15              		.file	"NOS_Strip_UART.c"
  16              		.text
  17              	.Ltext0:
  18              		.cfi_sections	.debug_frame
  19              		.file 1 "Core/Src/NOS_LIB_Driver/Src/NOS_Strip_UART.c"
  20              		.section	.rodata.NOS_Strip_Uart_ParseCommand.str1.4,"aMS",%progbits,1
  21              		.align	2
  22              	.LC0:
  23 0000 72656164 		.ascii	"ready!\000"
  23      792100
  24              		.section	.text.NOS_Strip_Uart_ParseCommand,"ax",%progbits
  25              		.align	1
  26              		.global	NOS_Strip_Uart_ParseCommand
  27              		.syntax unified
  28              		.thumb
  29              		.thumb_func
  31              	NOS_Strip_Uart_ParseCommand:
  32              	.LVL0:
  33              	.LFB130:
   1:Core/Src/NOS_LIB_Driver/Src/NOS_Strip_UART.c **** #include "NOS_Strip_UART.h"
   2:Core/Src/NOS_LIB_Driver/Src/NOS_Strip_UART.c **** #include "NOS_WS2812B_Strip.h"
   3:Core/Src/NOS_LIB_Driver/Src/NOS_Strip_UART.c **** 
   4:Core/Src/NOS_LIB_Driver/Src/NOS_Strip_UART.c **** 
   5:Core/Src/NOS_LIB_Driver/Src/NOS_Strip_UART.c **** const char* NOS_Strip_Uart_ParseCommand(WS2812B_Strip* strip,uint8_t* command)
   6:Core/Src/NOS_LIB_Driver/Src/NOS_Strip_UART.c **** {
  34              		.loc 1 6 1 view -0
  35              		.cfi_startproc
  36              		@ args = 0, pretend = 0, frame = 32
  37              		@ frame_needed = 0, uses_anonymous_args = 0
   7:Core/Src/NOS_LIB_Driver/Src/NOS_Strip_UART.c ****     NOS_Short tempShort;
  38              		.loc 1 7 5 view .LVU1
   8:Core/Src/NOS_LIB_Driver/Src/NOS_Strip_UART.c ****     int currPos = 4;
  39              		.loc 1 8 5 view .LVU2
   9:Core/Src/NOS_LIB_Driver/Src/NOS_Strip_UART.c ****     int tempInt1,tempInt2;
  40              		.loc 1 9 5 view .LVU3
  10:Core/Src/NOS_LIB_Driver/Src/NOS_Strip_UART.c ****     uint8_t r,g,b;
  41              		.loc 1 10 5 view .LVU4
  11:Core/Src/NOS_LIB_Driver/Src/NOS_Strip_UART.c **** 
  12:Core/Src/NOS_LIB_Driver/Src/NOS_Strip_UART.c ****     if(command != NULL)
  42              		.loc 1 12 5 view .LVU5
  43              		.loc 1 12 7 is_stmt 0 view .LVU6
  44 0000 0029     		cmp	r1, #0
  45 0002 00F00581 		beq	.L23
ARM GAS  C:\Users\igorn\AppData\Local\Temp\ccpc6f5d.s 			page 2


   6:Core/Src/NOS_LIB_Driver/Src/NOS_Strip_UART.c ****     NOS_Short tempShort;
  46              		.loc 1 6 1 view .LVU7
  47 0006 2DE9F04F 		push	{r4, r5, r6, r7, r8, r9, r10, fp, lr}
  48              		.cfi_def_cfa_offset 36
  49              		.cfi_offset 4, -36
  50              		.cfi_offset 5, -32
  51              		.cfi_offset 6, -28
  52              		.cfi_offset 7, -24
  53              		.cfi_offset 8, -20
  54              		.cfi_offset 9, -16
  55              		.cfi_offset 10, -12
  56              		.cfi_offset 11, -8
  57              		.cfi_offset 14, -4
  58 000a 8FB0     		sub	sp, sp, #60
  59              		.cfi_def_cfa_offset 96
  60 000c 0446     		mov	r4, r0
  61 000e 0D46     		mov	r5, r1
  13:Core/Src/NOS_LIB_Driver/Src/NOS_Strip_UART.c ****     {
  14:Core/Src/NOS_LIB_Driver/Src/NOS_Strip_UART.c ****             switch (command[3])
  62              		.loc 1 14 13 is_stmt 1 view .LVU8
  63              		.loc 1 14 28 is_stmt 0 view .LVU9
  64 0010 CB78     		ldrb	r3, [r1, #3]	@ zero_extendqisi2
  65              		.loc 1 14 13 view .LVU10
  66 0012 203B     		subs	r3, r3, #32
  67 0014 302B     		cmp	r3, #48
  68 0016 00F2F780 		bhi	.L19
  69 001a DFE813F0 		tbh	[pc, r3, lsl #1]
  70              	.L5:
  71 001e 3100     		.2byte	(.L11-.L5)/2
  72 0020 F500     		.2byte	(.L19-.L5)/2
  73 0022 F500     		.2byte	(.L19-.L5)/2
  74 0024 F500     		.2byte	(.L19-.L5)/2
  75 0026 F500     		.2byte	(.L19-.L5)/2
  76 0028 F500     		.2byte	(.L19-.L5)/2
  77 002a F500     		.2byte	(.L19-.L5)/2
  78 002c F500     		.2byte	(.L19-.L5)/2
  79 002e F500     		.2byte	(.L19-.L5)/2
  80 0030 F500     		.2byte	(.L19-.L5)/2
  81 0032 F500     		.2byte	(.L19-.L5)/2
  82 0034 F500     		.2byte	(.L19-.L5)/2
  83 0036 F500     		.2byte	(.L19-.L5)/2
  84 0038 F500     		.2byte	(.L19-.L5)/2
  85 003a F500     		.2byte	(.L19-.L5)/2
  86 003c F500     		.2byte	(.L19-.L5)/2
  87 003e 3300     		.2byte	(.L10-.L5)/2
  88 0040 4300     		.2byte	(.L9-.L5)/2
  89 0042 6400     		.2byte	(.L8-.L5)/2
  90 0044 7600     		.2byte	(.L7-.L5)/2
  91 0046 F500     		.2byte	(.L19-.L5)/2
  92 0048 7A00     		.2byte	(.L6-.L5)/2
  93 004a F500     		.2byte	(.L19-.L5)/2
  94 004c F500     		.2byte	(.L19-.L5)/2
  95 004e F500     		.2byte	(.L19-.L5)/2
  96 0050 F500     		.2byte	(.L19-.L5)/2
  97 0052 F500     		.2byte	(.L19-.L5)/2
  98 0054 F500     		.2byte	(.L19-.L5)/2
  99 0056 F500     		.2byte	(.L19-.L5)/2
ARM GAS  C:\Users\igorn\AppData\Local\Temp\ccpc6f5d.s 			page 3


 100 0058 F500     		.2byte	(.L19-.L5)/2
 101 005a F500     		.2byte	(.L19-.L5)/2
 102 005c F500     		.2byte	(.L19-.L5)/2
 103 005e F500     		.2byte	(.L19-.L5)/2
 104 0060 F500     		.2byte	(.L19-.L5)/2
 105 0062 F500     		.2byte	(.L19-.L5)/2
 106 0064 F500     		.2byte	(.L19-.L5)/2
 107 0066 F500     		.2byte	(.L19-.L5)/2
 108 0068 F500     		.2byte	(.L19-.L5)/2
 109 006a F500     		.2byte	(.L19-.L5)/2
 110 006c F500     		.2byte	(.L19-.L5)/2
 111 006e F500     		.2byte	(.L19-.L5)/2
 112 0070 F500     		.2byte	(.L19-.L5)/2
 113 0072 F500     		.2byte	(.L19-.L5)/2
 114 0074 F500     		.2byte	(.L19-.L5)/2
 115 0076 F500     		.2byte	(.L19-.L5)/2
 116 0078 F500     		.2byte	(.L19-.L5)/2
 117 007a F500     		.2byte	(.L19-.L5)/2
 118 007c F500     		.2byte	(.L19-.L5)/2
 119 007e F200     		.2byte	(.L20-.L5)/2
 120              		.p2align 1
 121              	.L11:
 122 0080 6448     		ldr	r0, .L27
 123              	.LVL1:
 124              		.loc 1 14 13 view .LVU11
 125 0082 C2E0     		b	.L1
 126              	.LVL2:
 127              	.L10:
 128              	.LBB2:
  15:Core/Src/NOS_LIB_Driver/Src/NOS_Strip_UART.c ****             {
  16:Core/Src/NOS_LIB_Driver/Src/NOS_Strip_UART.c ****             case CHECK_CONNECTION:
  17:Core/Src/NOS_LIB_Driver/Src/NOS_Strip_UART.c ****                 return "ready!";
  18:Core/Src/NOS_LIB_Driver/Src/NOS_Strip_UART.c ****             
  19:Core/Src/NOS_LIB_Driver/Src/NOS_Strip_UART.c ****             case SET_ONE_PIXEL_COLOR_COMMAND:
  20:Core/Src/NOS_LIB_Driver/Src/NOS_Strip_UART.c **** 
  21:Core/Src/NOS_LIB_Driver/Src/NOS_Strip_UART.c ****                 //pixelPos 
  22:Core/Src/NOS_LIB_Driver/Src/NOS_Strip_UART.c ****                 tempShort.bytes[1] = command[4];
 129              		.loc 1 22 17 is_stmt 1 view .LVU12
 130              		.loc 1 22 36 is_stmt 0 view .LVU13
 131 0084 0B79     		ldrb	r3, [r1, #4]	@ zero_extendqisi2
 132 0086 4FF00006 		mov	r6, #0	@ movhi
 133              	.LVL3:
 134              		.loc 1 22 36 view .LVU14
 135 008a 63F30F26 		bfi	r6, r3, #8, #8
 136              	.LVL4:
  23:Core/Src/NOS_LIB_Driver/Src/NOS_Strip_UART.c ****                 tempShort.bytes[0] = command[5];
 137              		.loc 1 23 17 is_stmt 1 view .LVU15
 138              		.loc 1 23 36 is_stmt 0 view .LVU16
 139 008e 4B79     		ldrb	r3, [r1, #5]	@ zero_extendqisi2
 140 0090 63F30706 		bfi	r6, r3, #0, #8
  24:Core/Src/NOS_LIB_Driver/Src/NOS_Strip_UART.c ****                 tempInt1 = tempShort.data;
 141              		.loc 1 24 17 is_stmt 1 view .LVU17
 142              	.LVL5:
  25:Core/Src/NOS_LIB_Driver/Src/NOS_Strip_UART.c **** 
  26:Core/Src/NOS_LIB_Driver/Src/NOS_Strip_UART.c ****                 //color
  27:Core/Src/NOS_LIB_Driver/Src/NOS_Strip_UART.c ****                 r = command[6];
 143              		.loc 1 27 17 view .LVU18
ARM GAS  C:\Users\igorn\AppData\Local\Temp\ccpc6f5d.s 			page 4


  28:Core/Src/NOS_LIB_Driver/Src/NOS_Strip_UART.c ****                 g = command[7];
 144              		.loc 1 28 17 view .LVU19
  29:Core/Src/NOS_LIB_Driver/Src/NOS_Strip_UART.c ****                 b = command[8];
 145              		.loc 1 29 17 view .LVU20
 146              		.loc 1 29 19 is_stmt 0 view .LVU21
 147 0094 0B7A     		ldrb	r3, [r1, #8]	@ zero_extendqisi2
 148              	.LVL6:
  30:Core/Src/NOS_LIB_Driver/Src/NOS_Strip_UART.c **** 
  31:Core/Src/NOS_LIB_Driver/Src/NOS_Strip_UART.c ****                 NOS_WS2812B_Strip_SetPixel(strip,tempInt1,r,g,b);
 149              		.loc 1 31 17 is_stmt 1 view .LVU22
 150 0096 0093     		str	r3, [sp]
 151              	.LVL7:
 152              		.loc 1 31 17 is_stmt 0 view .LVU23
 153 0098 CB79     		ldrb	r3, [r1, #7]	@ zero_extendqisi2
 154              	.LVL8:
 155              		.loc 1 31 17 view .LVU24
 156 009a 8A79     		ldrb	r2, [r1, #6]	@ zero_extendqisi2
 157 009c B1B2     		uxth	r1, r6
 158              	.LVL9:
 159              		.loc 1 31 17 view .LVU25
 160 009e FFF7FEFF 		bl	NOS_WS2812B_Strip_SetPixel
 161              	.LVL10:
  32:Core/Src/NOS_LIB_Driver/Src/NOS_Strip_UART.c ****                 break;
 162              		.loc 1 32 17 is_stmt 1 view .LVU26
 163 00a2 B2E0     		b	.L1
 164              	.LVL11:
 165              	.L9:
  33:Core/Src/NOS_LIB_Driver/Src/NOS_Strip_UART.c **** 
  34:Core/Src/NOS_LIB_Driver/Src/NOS_Strip_UART.c ****             case SET_ROW_PIXEL_COLOR_COMMAND:
  35:Core/Src/NOS_LIB_Driver/Src/NOS_Strip_UART.c **** 
  36:Core/Src/NOS_LIB_Driver/Src/NOS_Strip_UART.c ****                 //pixelPos
  37:Core/Src/NOS_LIB_Driver/Src/NOS_Strip_UART.c ****                 tempShort.bytes[1] = command[currPos++];
 166              		.loc 1 37 17 view .LVU27
 167              		.loc 1 37 45 is_stmt 0 view .LVU28
 168 00a4 0B79     		ldrb	r3, [r1, #4]	@ zero_extendqisi2
 169              		.loc 1 37 36 view .LVU29
 170 00a6 4FF00006 		mov	r6, #0	@ movhi
 171              		.loc 1 37 36 view .LVU30
 172 00aa 63F30F26 		bfi	r6, r3, #8, #8
 173              	.LVL12:
  38:Core/Src/NOS_LIB_Driver/Src/NOS_Strip_UART.c ****                 tempShort.bytes[0] = command[currPos++];
 174              		.loc 1 38 17 is_stmt 1 view .LVU31
 175              		.loc 1 38 45 is_stmt 0 view .LVU32
 176 00ae 4B79     		ldrb	r3, [r1, #5]	@ zero_extendqisi2
 177              		.loc 1 38 36 view .LVU33
 178 00b0 63F30706 		bfi	r6, r3, #0, #8
  39:Core/Src/NOS_LIB_Driver/Src/NOS_Strip_UART.c ****                 tempInt1 = tempShort.data;
 179              		.loc 1 39 17 is_stmt 1 view .LVU34
 180              		.loc 1 39 37 is_stmt 0 view .LVU35
 181 00b4 B7B2     		uxth	r7, r6
 182              	.LVL13:
  40:Core/Src/NOS_LIB_Driver/Src/NOS_Strip_UART.c **** 
  41:Core/Src/NOS_LIB_Driver/Src/NOS_Strip_UART.c ****                 //pixelCount
  42:Core/Src/NOS_LIB_Driver/Src/NOS_Strip_UART.c ****                 tempShort.bytes[1] = command[currPos++];
 183              		.loc 1 42 17 is_stmt 1 view .LVU36
 184              		.loc 1 42 45 is_stmt 0 view .LVU37
 185 00b6 8B79     		ldrb	r3, [r1, #6]	@ zero_extendqisi2
ARM GAS  C:\Users\igorn\AppData\Local\Temp\ccpc6f5d.s 			page 5


 186              		.loc 1 42 36 view .LVU38
 187 00b8 63F30F26 		bfi	r6, r3, #8, #8
  43:Core/Src/NOS_LIB_Driver/Src/NOS_Strip_UART.c ****                 tempShort.bytes[0] = command[currPos++];
 188              		.loc 1 43 17 is_stmt 1 view .LVU39
 189              	.LVL14:
 190              		.loc 1 43 45 is_stmt 0 view .LVU40
 191 00bc CB79     		ldrb	r3, [r1, #7]	@ zero_extendqisi2
 192              		.loc 1 43 36 view .LVU41
 193 00be 63F30706 		bfi	r6, r3, #0, #8
  44:Core/Src/NOS_LIB_Driver/Src/NOS_Strip_UART.c ****                 tempInt2 = tempShort.data;
 194              		.loc 1 44 17 is_stmt 1 view .LVU42
 195              		.loc 1 44 37 is_stmt 0 view .LVU43
 196 00c2 B6B2     		uxth	r6, r6
 197              	.LVL15:
  45:Core/Src/NOS_LIB_Driver/Src/NOS_Strip_UART.c **** 
  46:Core/Src/NOS_LIB_Driver/Src/NOS_Strip_UART.c ****                 //color
  47:Core/Src/NOS_LIB_Driver/Src/NOS_Strip_UART.c ****                 r = command[currPos++];
 198              		.loc 1 47 17 is_stmt 1 view .LVU44
 199              		.loc 1 47 19 is_stmt 0 view .LVU45
 200 00c4 91F80890 		ldrb	r9, [r1, #8]	@ zero_extendqisi2
 201              	.LVL16:
  48:Core/Src/NOS_LIB_Driver/Src/NOS_Strip_UART.c ****                 g = command[currPos++];
 202              		.loc 1 48 17 is_stmt 1 view .LVU46
 203              		.loc 1 48 19 is_stmt 0 view .LVU47
 204 00c8 91F80980 		ldrb	r8, [r1, #9]	@ zero_extendqisi2
 205              	.LVL17:
  49:Core/Src/NOS_LIB_Driver/Src/NOS_Strip_UART.c ****                 b = command[currPos++];
 206              		.loc 1 49 17 is_stmt 1 view .LVU48
 207              		.loc 1 49 19 is_stmt 0 view .LVU49
 208 00cc 8D7A     		ldrb	r5, [r1, #10]	@ zero_extendqisi2
 209              	.LVL18:
  50:Core/Src/NOS_LIB_Driver/Src/NOS_Strip_UART.c **** 
  51:Core/Src/NOS_LIB_Driver/Src/NOS_Strip_UART.c ****                 //fill in row
  52:Core/Src/NOS_LIB_Driver/Src/NOS_Strip_UART.c ****                 for(int i = tempInt1; i < tempInt2; i++)
 210              		.loc 1 52 17 is_stmt 1 view .LVU50
 211              	.LBB3:
 212              		.loc 1 52 21 view .LVU51
 213              		.loc 1 52 17 is_stmt 0 view .LVU52
 214 00ce 07E0     		b	.L13
 215              	.LVL19:
 216              	.L14:
  53:Core/Src/NOS_LIB_Driver/Src/NOS_Strip_UART.c ****                 {
  54:Core/Src/NOS_LIB_Driver/Src/NOS_Strip_UART.c ****                     NOS_WS2812B_Strip_SetPixel(strip,i,r,g,b);
 217              		.loc 1 54 21 is_stmt 1 discriminator 3 view .LVU53
 218 00d0 0095     		str	r5, [sp]
 219 00d2 4346     		mov	r3, r8
 220 00d4 4A46     		mov	r2, r9
 221 00d6 3946     		mov	r1, r7
 222 00d8 2046     		mov	r0, r4
 223 00da FFF7FEFF 		bl	NOS_WS2812B_Strip_SetPixel
 224              	.LVL20:
  52:Core/Src/NOS_LIB_Driver/Src/NOS_Strip_UART.c ****                 {
 225              		.loc 1 52 54 discriminator 3 view .LVU54
 226 00de 0137     		adds	r7, r7, #1
 227              	.LVL21:
 228              	.L13:
  52:Core/Src/NOS_LIB_Driver/Src/NOS_Strip_UART.c ****                 {
ARM GAS  C:\Users\igorn\AppData\Local\Temp\ccpc6f5d.s 			page 6


 229              		.loc 1 52 41 discriminator 1 view .LVU55
 230 00e0 B742     		cmp	r7, r6
 231 00e2 F5DB     		blt	.L14
  52:Core/Src/NOS_LIB_Driver/Src/NOS_Strip_UART.c ****                 {
 232              		.loc 1 52 41 is_stmt 0 discriminator 1 view .LVU56
 233 00e4 91E0     		b	.L1
 234              	.LVL22:
 235              	.L8:
  52:Core/Src/NOS_LIB_Driver/Src/NOS_Strip_UART.c ****                 {
 236              		.loc 1 52 41 discriminator 1 view .LVU57
 237              	.LBE3:
  55:Core/Src/NOS_LIB_Driver/Src/NOS_Strip_UART.c ****                 }
  56:Core/Src/NOS_LIB_Driver/Src/NOS_Strip_UART.c **** 
  57:Core/Src/NOS_LIB_Driver/Src/NOS_Strip_UART.c ****                 break;
  58:Core/Src/NOS_LIB_Driver/Src/NOS_Strip_UART.c **** 
  59:Core/Src/NOS_LIB_Driver/Src/NOS_Strip_UART.c ****             case SET_ALL_PIXEL_ONE_COLOR_COMMAND:
  60:Core/Src/NOS_LIB_Driver/Src/NOS_Strip_UART.c **** 
  61:Core/Src/NOS_LIB_Driver/Src/NOS_Strip_UART.c ****                 //color
  62:Core/Src/NOS_LIB_Driver/Src/NOS_Strip_UART.c ****                 r = command[currPos++];
 238              		.loc 1 62 17 is_stmt 1 view .LVU58
 239              		.loc 1 62 19 is_stmt 0 view .LVU59
 240 00e6 91F80480 		ldrb	r8, [r1, #4]	@ zero_extendqisi2
 241              	.LVL23:
  63:Core/Src/NOS_LIB_Driver/Src/NOS_Strip_UART.c ****                 g = command[currPos++];
 242              		.loc 1 63 17 is_stmt 1 view .LVU60
 243              		.loc 1 63 19 is_stmt 0 view .LVU61
 244 00ea 4F79     		ldrb	r7, [r1, #5]	@ zero_extendqisi2
 245              	.LVL24:
  64:Core/Src/NOS_LIB_Driver/Src/NOS_Strip_UART.c ****                 b = command[currPos++];
 246              		.loc 1 64 17 is_stmt 1 view .LVU62
 247              		.loc 1 64 19 is_stmt 0 view .LVU63
 248 00ec 8E79     		ldrb	r6, [r1, #6]	@ zero_extendqisi2
 249              	.LVL25:
  65:Core/Src/NOS_LIB_Driver/Src/NOS_Strip_UART.c **** 
  66:Core/Src/NOS_LIB_Driver/Src/NOS_Strip_UART.c ****                 //fill all pixels
  67:Core/Src/NOS_LIB_Driver/Src/NOS_Strip_UART.c ****                 for(int i = 0; i < strip->pixelCount; i++)
 250              		.loc 1 67 17 is_stmt 1 view .LVU64
 251              	.LBB4:
 252              		.loc 1 67 21 view .LVU65
 253              		.loc 1 67 25 is_stmt 0 view .LVU66
 254 00ee 0025     		movs	r5, #0
 255              		.loc 1 67 17 view .LVU67
 256 00f0 07E0     		b	.L15
 257              	.LVL26:
 258              	.L16:
  68:Core/Src/NOS_LIB_Driver/Src/NOS_Strip_UART.c ****                 {
  69:Core/Src/NOS_LIB_Driver/Src/NOS_Strip_UART.c ****                     NOS_WS2812B_Strip_SetPixel(strip,i,r,g,b);
 259              		.loc 1 69 21 is_stmt 1 discriminator 3 view .LVU68
 260 00f2 0096     		str	r6, [sp]
 261 00f4 3B46     		mov	r3, r7
 262 00f6 4246     		mov	r2, r8
 263 00f8 2946     		mov	r1, r5
 264 00fa 2046     		mov	r0, r4
 265 00fc FFF7FEFF 		bl	NOS_WS2812B_Strip_SetPixel
 266              	.LVL27:
  67:Core/Src/NOS_LIB_Driver/Src/NOS_Strip_UART.c ****                 {
 267              		.loc 1 67 56 discriminator 3 view .LVU69
ARM GAS  C:\Users\igorn\AppData\Local\Temp\ccpc6f5d.s 			page 7


 268 0100 0135     		adds	r5, r5, #1
 269              	.LVL28:
 270              	.L15:
  67:Core/Src/NOS_LIB_Driver/Src/NOS_Strip_UART.c ****                 {
 271              		.loc 1 67 34 discriminator 1 view .LVU70
  67:Core/Src/NOS_LIB_Driver/Src/NOS_Strip_UART.c ****                 {
 272              		.loc 1 67 41 is_stmt 0 discriminator 1 view .LVU71
 273 0102 A368     		ldr	r3, [r4, #8]
  67:Core/Src/NOS_LIB_Driver/Src/NOS_Strip_UART.c ****                 {
 274              		.loc 1 67 34 discriminator 1 view .LVU72
 275 0104 AB42     		cmp	r3, r5
 276 0106 F4DC     		bgt	.L16
 277 0108 7FE0     		b	.L1
 278              	.LVL29:
 279              	.L7:
  67:Core/Src/NOS_LIB_Driver/Src/NOS_Strip_UART.c ****                 {
 280              		.loc 1 67 34 discriminator 1 view .LVU73
 281              	.LBE4:
  70:Core/Src/NOS_LIB_Driver/Src/NOS_Strip_UART.c ****                 }
  71:Core/Src/NOS_LIB_Driver/Src/NOS_Strip_UART.c **** 
  72:Core/Src/NOS_LIB_Driver/Src/NOS_Strip_UART.c ****                 break;
  73:Core/Src/NOS_LIB_Driver/Src/NOS_Strip_UART.c **** 
  74:Core/Src/NOS_LIB_Driver/Src/NOS_Strip_UART.c ****             case SET_BRIGHT_COMMAND:
  75:Core/Src/NOS_LIB_Driver/Src/NOS_Strip_UART.c **** 
  76:Core/Src/NOS_LIB_Driver/Src/NOS_Strip_UART.c ****                 NOS_WS2812B_Strip_SetBright(strip,command[currPos++]);
 282              		.loc 1 76 17 is_stmt 1 view .LVU74
 283              		.loc 1 76 17 is_stmt 0 view .LVU75
 284 010a 0979     		ldrb	r1, [r1, #4]	@ zero_extendqisi2
 285              	.LVL30:
 286              		.loc 1 76 17 view .LVU76
 287 010c FFF7FEFF 		bl	NOS_WS2812B_Strip_SetBright
 288              	.LVL31:
  77:Core/Src/NOS_LIB_Driver/Src/NOS_Strip_UART.c **** 
  78:Core/Src/NOS_LIB_Driver/Src/NOS_Strip_UART.c ****                 break;
 289              		.loc 1 78 17 is_stmt 1 view .LVU77
 290 0110 7BE0     		b	.L1
 291              	.LVL32:
 292              	.L6:
  79:Core/Src/NOS_LIB_Driver/Src/NOS_Strip_UART.c **** 
  80:Core/Src/NOS_LIB_Driver/Src/NOS_Strip_UART.c ****             case SET_ALL_PIXEL_COMMAND:
  81:Core/Src/NOS_LIB_Driver/Src/NOS_Strip_UART.c **** 
  82:Core/Src/NOS_LIB_Driver/Src/NOS_Strip_UART.c ****                 //Pixel count
  83:Core/Src/NOS_LIB_Driver/Src/NOS_Strip_UART.c ****                 tempShort.bytes[1] = command[currPos++];
 293              		.loc 1 83 17 view .LVU78
 294              		.loc 1 83 45 is_stmt 0 view .LVU79
 295 0112 0B79     		ldrb	r3, [r1, #4]	@ zero_extendqisi2
 296              		.loc 1 83 36 view .LVU80
 297 0114 4FF00006 		mov	r6, #0	@ movhi
 298              		.loc 1 83 36 view .LVU81
 299 0118 63F30F26 		bfi	r6, r3, #8, #8
 300              	.LVL33:
  84:Core/Src/NOS_LIB_Driver/Src/NOS_Strip_UART.c ****                 tempShort.bytes[0] = command[currPos++];
 301              		.loc 1 84 17 is_stmt 1 view .LVU82
 302              		.loc 1 84 45 is_stmt 0 view .LVU83
 303 011c 4B79     		ldrb	r3, [r1, #5]	@ zero_extendqisi2
 304              		.loc 1 84 36 view .LVU84
 305 011e 63F30706 		bfi	r6, r3, #0, #8
ARM GAS  C:\Users\igorn\AppData\Local\Temp\ccpc6f5d.s 			page 8


  85:Core/Src/NOS_LIB_Driver/Src/NOS_Strip_UART.c ****                 tempInt1 = tempShort.data;
 306              		.loc 1 85 17 is_stmt 1 view .LVU85
 307              		.loc 1 85 37 is_stmt 0 view .LVU86
 308 0122 1FFA86F8 		uxth	r8, r6
 309              	.LVL34:
  86:Core/Src/NOS_LIB_Driver/Src/NOS_Strip_UART.c **** 
  87:Core/Src/NOS_LIB_Driver/Src/NOS_Strip_UART.c ****                 if(tempInt1 <= strip->pixelCount)
 310              		.loc 1 87 17 is_stmt 1 view .LVU87
 311              		.loc 1 87 37 is_stmt 0 view .LVU88
 312 0126 8368     		ldr	r3, [r0, #8]
 313              		.loc 1 87 19 view .LVU89
 314 0128 4345     		cmp	r3, r8
 315 012a 66DA     		bge	.L21
  84:Core/Src/NOS_LIB_Driver/Src/NOS_Strip_UART.c ****                 tempInt1 = tempShort.data;
 316              		.loc 1 84 53 view .LVU90
 317 012c 4FF0060B 		mov	fp, #6
 318              	.LVL35:
 319              	.L4:
  88:Core/Src/NOS_LIB_Driver/Src/NOS_Strip_UART.c ****                 {
  89:Core/Src/NOS_LIB_Driver/Src/NOS_Strip_UART.c ****                     for(int i = 0; i < tempInt1; i++)
  90:Core/Src/NOS_LIB_Driver/Src/NOS_Strip_UART.c ****                     {
  91:Core/Src/NOS_LIB_Driver/Src/NOS_Strip_UART.c ****                         r = command[currPos++];
  92:Core/Src/NOS_LIB_Driver/Src/NOS_Strip_UART.c ****                         g = command[currPos++];
  93:Core/Src/NOS_LIB_Driver/Src/NOS_Strip_UART.c ****                         b = command[currPos++];
  94:Core/Src/NOS_LIB_Driver/Src/NOS_Strip_UART.c **** 
  95:Core/Src/NOS_LIB_Driver/Src/NOS_Strip_UART.c ****                         NOS_WS2812B_Strip_SetPixel(strip,i,r,g,b);
  96:Core/Src/NOS_LIB_Driver/Src/NOS_Strip_UART.c ****                     }
  97:Core/Src/NOS_LIB_Driver/Src/NOS_Strip_UART.c ****                 }
  98:Core/Src/NOS_LIB_Driver/Src/NOS_Strip_UART.c **** 
  99:Core/Src/NOS_LIB_Driver/Src/NOS_Strip_UART.c ****             case SET_BREATHE_EFFECT_COMMAND:
 100:Core/Src/NOS_LIB_Driver/Src/NOS_Strip_UART.c **** 
 101:Core/Src/NOS_LIB_Driver/Src/NOS_Strip_UART.c ****                 uint8_t pos = command[currPos++];
 320              		.loc 1 101 17 is_stmt 1 view .LVU91
 321              		.loc 1 101 46 is_stmt 0 view .LVU92
 322 0130 0BF10103 		add	r3, fp, #1
 323              	.LVL36:
 324              		.loc 1 101 25 view .LVU93
 325 0134 15F80B70 		ldrb	r7, [r5, fp]	@ zero_extendqisi2
 326              	.LVL37:
 102:Core/Src/NOS_LIB_Driver/Src/NOS_Strip_UART.c **** 
 103:Core/Src/NOS_LIB_Driver/Src/NOS_Strip_UART.c ****                 tempShort.bytes[1] = command[currPos++];
 327              		.loc 1 103 17 is_stmt 1 view .LVU94
 328              		.loc 1 103 53 is_stmt 0 view .LVU95
 329 0138 0BF10202 		add	r2, fp, #2
 330              	.LVL38:
 331              		.loc 1 103 45 view .LVU96
 332 013c EB5C     		ldrb	r3, [r5, r3]	@ zero_extendqisi2
 333              		.loc 1 103 36 view .LVU97
 334 013e 63F30F26 		bfi	r6, r3, #8, #8
 104:Core/Src/NOS_LIB_Driver/Src/NOS_Strip_UART.c ****                 tempShort.bytes[0] = command[currPos++];
 335              		.loc 1 104 17 is_stmt 1 view .LVU98
 336              		.loc 1 104 53 is_stmt 0 view .LVU99
 337 0142 0BF10303 		add	r3, fp, #3
 338              	.LVL39:
 339              		.loc 1 104 45 view .LVU100
 340 0146 AA5C     		ldrb	r2, [r5, r2]	@ zero_extendqisi2
 341              		.loc 1 104 36 view .LVU101
ARM GAS  C:\Users\igorn\AppData\Local\Temp\ccpc6f5d.s 			page 9


 342 0148 62F30706 		bfi	r6, r2, #0, #8
 105:Core/Src/NOS_LIB_Driver/Src/NOS_Strip_UART.c ****                 uint16_t speed = tempShort.data;
 343              		.loc 1 105 17 is_stmt 1 view .LVU102
 344              		.loc 1 105 26 is_stmt 0 view .LVU103
 345 014c 1FFA86F8 		uxth	r8, r6
 346              	.LVL40:
 106:Core/Src/NOS_LIB_Driver/Src/NOS_Strip_UART.c **** 
 107:Core/Src/NOS_LIB_Driver/Src/NOS_Strip_UART.c ****                 tempShort.bytes[1] = command[currPos++];
 347              		.loc 1 107 17 is_stmt 1 view .LVU104
 348              		.loc 1 107 53 is_stmt 0 view .LVU105
 349 0150 0BF10402 		add	r2, fp, #4
 350              	.LVL41:
 351              		.loc 1 107 45 view .LVU106
 352 0154 EB5C     		ldrb	r3, [r5, r3]	@ zero_extendqisi2
 353              		.loc 1 107 36 view .LVU107
 354 0156 63F30F26 		bfi	r6, r3, #8, #8
 355              	.LVL42:
 108:Core/Src/NOS_LIB_Driver/Src/NOS_Strip_UART.c ****                 tempShort.bytes[0] = command[currPos++];
 356              		.loc 1 108 17 is_stmt 1 view .LVU108
 357              		.loc 1 108 53 is_stmt 0 view .LVU109
 358 015a 0BF10503 		add	r3, fp, #5
 359              	.LVL43:
 360              		.loc 1 108 45 view .LVU110
 361 015e AA5C     		ldrb	r2, [r5, r2]	@ zero_extendqisi2
 362              		.loc 1 108 36 view .LVU111
 363 0160 62F30706 		bfi	r6, r2, #0, #8
 109:Core/Src/NOS_LIB_Driver/Src/NOS_Strip_UART.c ****                 uint16_t step = tempShort.data;
 364              		.loc 1 109 17 is_stmt 1 view .LVU112
 365              		.loc 1 109 26 is_stmt 0 view .LVU113
 366 0164 1FFA86F9 		uxth	r9, r6
 367              	.LVL44:
 110:Core/Src/NOS_LIB_Driver/Src/NOS_Strip_UART.c **** 
 111:Core/Src/NOS_LIB_Driver/Src/NOS_Strip_UART.c ****                 tempShort.bytes[1] = command[currPos++];
 368              		.loc 1 111 17 is_stmt 1 view .LVU114
 369              		.loc 1 111 53 is_stmt 0 view .LVU115
 370 0168 0BF10602 		add	r2, fp, #6
 371              	.LVL45:
 372              		.loc 1 111 45 view .LVU116
 373 016c EB5C     		ldrb	r3, [r5, r3]	@ zero_extendqisi2
 374              		.loc 1 111 36 view .LVU117
 375 016e 63F30F26 		bfi	r6, r3, #8, #8
 376              	.LVL46:
 112:Core/Src/NOS_LIB_Driver/Src/NOS_Strip_UART.c ****                 tempShort.bytes[0] = command[currPos++];
 377              		.loc 1 112 17 is_stmt 1 view .LVU118
 378              		.loc 1 112 53 is_stmt 0 view .LVU119
 379 0172 0BF10703 		add	r3, fp, #7
 380              	.LVL47:
 381              		.loc 1 112 45 view .LVU120
 382 0176 AA5C     		ldrb	r2, [r5, r2]	@ zero_extendqisi2
 383              		.loc 1 112 36 view .LVU121
 384 0178 62F30706 		bfi	r6, r2, #0, #8
 113:Core/Src/NOS_LIB_Driver/Src/NOS_Strip_UART.c ****                 uint16_t min = tempShort.data;
 385              		.loc 1 113 17 is_stmt 1 view .LVU122
 386              		.loc 1 113 26 is_stmt 0 view .LVU123
 387 017c 1FFA86FA 		uxth	r10, r6
 388              	.LVL48:
 114:Core/Src/NOS_LIB_Driver/Src/NOS_Strip_UART.c **** 
ARM GAS  C:\Users\igorn\AppData\Local\Temp\ccpc6f5d.s 			page 10


 115:Core/Src/NOS_LIB_Driver/Src/NOS_Strip_UART.c ****                 tempShort.bytes[1] = command[currPos++];
 389              		.loc 1 115 17 is_stmt 1 view .LVU124
 390              		.loc 1 115 53 is_stmt 0 view .LVU125
 391 0180 0BF1080B 		add	fp, fp, #8
 392              	.LVL49:
 393              		.loc 1 115 45 view .LVU126
 394 0184 EB5C     		ldrb	r3, [r5, r3]	@ zero_extendqisi2
 395              		.loc 1 115 36 view .LVU127
 396 0186 63F30F26 		bfi	r6, r3, #8, #8
 397              	.LVL50:
 116:Core/Src/NOS_LIB_Driver/Src/NOS_Strip_UART.c ****                 tempShort.bytes[0] = command[currPos++];
 398              		.loc 1 116 17 is_stmt 1 view .LVU128
 399              		.loc 1 116 45 is_stmt 0 view .LVU129
 400 018a 15F80B30 		ldrb	r3, [r5, fp]	@ zero_extendqisi2
 401              		.loc 1 116 36 view .LVU130
 402 018e 63F30706 		bfi	r6, r3, #0, #8
 117:Core/Src/NOS_LIB_Driver/Src/NOS_Strip_UART.c ****                 uint16_t max = tempShort.data;
 403              		.loc 1 117 17 is_stmt 1 view .LVU131
 404              		.loc 1 117 26 is_stmt 0 view .LVU132
 405 0192 B6B2     		uxth	r6, r6
 406              	.LVL51:
 118:Core/Src/NOS_LIB_Driver/Src/NOS_Strip_UART.c **** 
 119:Core/Src/NOS_LIB_Driver/Src/NOS_Strip_UART.c ****                 Effect_Struct tempEffect = {0};
 407              		.loc 1 119 17 is_stmt 1 view .LVU133
 408              		.loc 1 119 31 is_stmt 0 view .LVU134
 409 0194 06AD     		add	r5, sp, #24
 410              	.LVL52:
 411              		.loc 1 119 31 view .LVU135
 412 0196 4FF0200B 		mov	fp, #32
 413 019a 5A46     		mov	r2, fp
 414 019c 0021     		movs	r1, #0
 415 019e 2846     		mov	r0, r5
 416 01a0 FFF7FEFF 		bl	memset
 417              	.LVL53:
 120:Core/Src/NOS_LIB_Driver/Src/NOS_Strip_UART.c ****                 tempEffect.effectId = EFFECT_BREATHE_ID;
 418              		.loc 1 120 17 is_stmt 1 view .LVU136
 419              		.loc 1 120 37 is_stmt 0 view .LVU137
 420 01a4 8DF835B0 		strb	fp, [sp, #53]
 121:Core/Src/NOS_LIB_Driver/Src/NOS_Strip_UART.c ****                 NOS_WS2812B_Strip_Effect_Breathe_Init(&tempEffect,speed,step,min,max);
 421              		.loc 1 121 17 is_stmt 1 view .LVU138
 422 01a8 F6B2     		uxtb	r6, r6
 423              	.LVL54:
 424              		.loc 1 121 17 is_stmt 0 view .LVU139
 425 01aa 0096     		str	r6, [sp]
 426 01ac 5FFA8AF3 		uxtb	r3, r10
 427 01b0 4A46     		mov	r2, r9
 428 01b2 4146     		mov	r1, r8
 429 01b4 2846     		mov	r0, r5
 430 01b6 FFF7FEFF 		bl	NOS_WS2812B_Strip_Effect_Breathe_Init
 431              	.LVL55:
 122:Core/Src/NOS_LIB_Driver/Src/NOS_Strip_UART.c ****                 NOS_WS2812B_Strip_Effects_UpdateEffect(strip,tempEffect,pos);
 432              		.loc 1 122 17 is_stmt 1 view .LVU140
 433 01ba 0597     		str	r7, [sp, #20]
 434 01bc 6E46     		mov	r6, sp
 435 01be 09AF     		add	r7, sp, #36
 436              	.LVL56:
 437              		.loc 1 122 17 is_stmt 0 view .LVU141
ARM GAS  C:\Users\igorn\AppData\Local\Temp\ccpc6f5d.s 			page 11


 438 01c0 0FCF     		ldmia	r7!, {r0, r1, r2, r3}
 439 01c2 0FC6     		stmia	r6!, {r0, r1, r2, r3}
 440 01c4 3B68     		ldr	r3, [r7]
 441 01c6 3360     		str	r3, [r6]
 442 01c8 95E80E00 		ldm	r5, {r1, r2, r3}
 443 01cc 2046     		mov	r0, r4
 444 01ce FFF7FEFF 		bl	NOS_WS2812B_Strip_Effects_UpdateEffect
 445              	.LVL57:
 123:Core/Src/NOS_LIB_Driver/Src/NOS_Strip_UART.c **** 
 124:Core/Src/NOS_LIB_Driver/Src/NOS_Strip_UART.c ****                 break;
 446              		.loc 1 124 17 is_stmt 1 view .LVU142
 447              	.LBE2:
 125:Core/Src/NOS_LIB_Driver/Src/NOS_Strip_UART.c **** 
 126:Core/Src/NOS_LIB_Driver/Src/NOS_Strip_UART.c ****                       
 127:Core/Src/NOS_LIB_Driver/Src/NOS_Strip_UART.c ****             default:
 128:Core/Src/NOS_LIB_Driver/Src/NOS_Strip_UART.c ****                 return false;
 129:Core/Src/NOS_LIB_Driver/Src/NOS_Strip_UART.c ****                 break;
 130:Core/Src/NOS_LIB_Driver/Src/NOS_Strip_UART.c ****             }
 131:Core/Src/NOS_LIB_Driver/Src/NOS_Strip_UART.c **** 
 132:Core/Src/NOS_LIB_Driver/Src/NOS_Strip_UART.c **** 
 133:Core/Src/NOS_LIB_Driver/Src/NOS_Strip_UART.c ****         }
 134:Core/Src/NOS_LIB_Driver/Src/NOS_Strip_UART.c **** }
 448              		.loc 1 134 1 is_stmt 0 view .LVU143
 449 01d2 1AE0     		b	.L1
 450              	.LVL58:
 451              	.L18:
 452              	.LBB6:
 453              	.LBB5:
  91:Core/Src/NOS_LIB_Driver/Src/NOS_Strip_UART.c ****                         g = command[currPos++];
 454              		.loc 1 91 25 is_stmt 1 discriminator 3 view .LVU144
  91:Core/Src/NOS_LIB_Driver/Src/NOS_Strip_UART.c ****                         g = command[currPos++];
 455              		.loc 1 91 44 is_stmt 0 discriminator 3 view .LVU145
 456 01d4 0BF10103 		add	r3, fp, #1
 457              	.LVL59:
  91:Core/Src/NOS_LIB_Driver/Src/NOS_Strip_UART.c ****                         g = command[currPos++];
 458              		.loc 1 91 27 discriminator 3 view .LVU146
 459 01d8 15F80B20 		ldrb	r2, [r5, fp]	@ zero_extendqisi2
 460              	.LVL60:
  92:Core/Src/NOS_LIB_Driver/Src/NOS_Strip_UART.c ****                         b = command[currPos++];
 461              		.loc 1 92 25 is_stmt 1 discriminator 3 view .LVU147
  92:Core/Src/NOS_LIB_Driver/Src/NOS_Strip_UART.c ****                         b = command[currPos++];
 462              		.loc 1 92 44 is_stmt 0 discriminator 3 view .LVU148
 463 01dc 0BF10201 		add	r1, fp, #2
 464              	.LVL61:
  93:Core/Src/NOS_LIB_Driver/Src/NOS_Strip_UART.c **** 
 465              		.loc 1 93 25 is_stmt 1 discriminator 3 view .LVU149
  93:Core/Src/NOS_LIB_Driver/Src/NOS_Strip_UART.c **** 
 466              		.loc 1 93 27 is_stmt 0 discriminator 3 view .LVU150
 467 01e0 695C     		ldrb	r1, [r5, r1]	@ zero_extendqisi2
 468              	.LVL62:
  95:Core/Src/NOS_LIB_Driver/Src/NOS_Strip_UART.c ****                     }
 469              		.loc 1 95 25 is_stmt 1 discriminator 3 view .LVU151
 470 01e2 0091     		str	r1, [sp]
 471              	.LVL63:
  95:Core/Src/NOS_LIB_Driver/Src/NOS_Strip_UART.c ****                     }
 472              		.loc 1 95 25 is_stmt 0 discriminator 3 view .LVU152
 473 01e4 EB5C     		ldrb	r3, [r5, r3]	@ zero_extendqisi2
ARM GAS  C:\Users\igorn\AppData\Local\Temp\ccpc6f5d.s 			page 12


 474 01e6 0BF1030B 		add	fp, fp, #3
 475              	.LVL64:
  95:Core/Src/NOS_LIB_Driver/Src/NOS_Strip_UART.c ****                     }
 476              		.loc 1 95 25 discriminator 3 view .LVU153
 477 01ea 3946     		mov	r1, r7
 478              	.LVL65:
  95:Core/Src/NOS_LIB_Driver/Src/NOS_Strip_UART.c ****                     }
 479              		.loc 1 95 25 discriminator 3 view .LVU154
 480 01ec 2046     		mov	r0, r4
 481 01ee FFF7FEFF 		bl	NOS_WS2812B_Strip_SetPixel
 482              	.LVL66:
  89:Core/Src/NOS_LIB_Driver/Src/NOS_Strip_UART.c ****                     {
 483              		.loc 1 89 51 is_stmt 1 discriminator 3 view .LVU155
 484 01f2 0137     		adds	r7, r7, #1
 485              	.LVL67:
 486              	.L17:
  89:Core/Src/NOS_LIB_Driver/Src/NOS_Strip_UART.c ****                     {
 487              		.loc 1 89 38 discriminator 1 view .LVU156
 488 01f4 4745     		cmp	r7, r8
 489 01f6 EDDB     		blt	.L18
 490 01f8 9AE7     		b	.L4
 491              	.LVL68:
 492              	.L21:
  89:Core/Src/NOS_LIB_Driver/Src/NOS_Strip_UART.c ****                     {
 493              		.loc 1 89 29 is_stmt 0 view .LVU157
 494 01fa 0027     		movs	r7, #0
 495              	.LBE5:
  84:Core/Src/NOS_LIB_Driver/Src/NOS_Strip_UART.c ****                 tempInt1 = tempShort.data;
 496              		.loc 1 84 53 view .LVU158
 497 01fc 4FF0060B 		mov	fp, #6
 498 0200 F8E7     		b	.L17
 499              	.LVL69:
 500              	.L20:
  84:Core/Src/NOS_LIB_Driver/Src/NOS_Strip_UART.c ****                 tempInt1 = tempShort.data;
 501              		.loc 1 84 53 view .LVU159
 502              	.LBE6:
  14:Core/Src/NOS_LIB_Driver/Src/NOS_Strip_UART.c ****             {
 503              		.loc 1 14 13 view .LVU160
 504 0202 4FF0040B 		mov	fp, #4
 505 0206 93E7     		b	.L4
 506              	.L19:
 507              	.LBB7:
 128:Core/Src/NOS_LIB_Driver/Src/NOS_Strip_UART.c ****                 break;
 508              		.loc 1 128 24 view .LVU161
 509 0208 0020     		movs	r0, #0
 510              	.LVL70:
 129:Core/Src/NOS_LIB_Driver/Src/NOS_Strip_UART.c ****             }
 511              		.loc 1 129 17 is_stmt 1 view .LVU162
 512              	.L1:
 129:Core/Src/NOS_LIB_Driver/Src/NOS_Strip_UART.c ****             }
 513              		.loc 1 129 17 is_stmt 0 view .LVU163
 514              	.LBE7:
 515              		.loc 1 134 1 view .LVU164
 516 020a 0FB0     		add	sp, sp, #60
 517              		.cfi_def_cfa_offset 36
 518              		@ sp needed
 519 020c BDE8F08F 		pop	{r4, r5, r6, r7, r8, r9, r10, fp, pc}
ARM GAS  C:\Users\igorn\AppData\Local\Temp\ccpc6f5d.s 			page 13


 520              	.LVL71:
 521              	.L23:
 522              		.cfi_def_cfa_offset 0
 523              		.cfi_restore 4
 524              		.cfi_restore 5
 525              		.cfi_restore 6
 526              		.cfi_restore 7
 527              		.cfi_restore 8
 528              		.cfi_restore 9
 529              		.cfi_restore 10
 530              		.cfi_restore 11
 531              		.cfi_restore 14
 532              	.LVL72:
 533              		.loc 1 134 1 view .LVU165
 534 0210 7047     		bx	lr
 535              	.L28:
 536 0212 00BF     		.align	2
 537              	.L27:
 538 0214 00000000 		.word	.LC0
 539              		.cfi_endproc
 540              	.LFE130:
 542              		.text
 543              	.Letext0:
 544              		.file 2 "c:\\users\\igorn\\appdata\\roaming\\code\\user\\globalstorage\\bmd.stm32-for-vscode\\@xpa
 545              		.file 3 "c:\\users\\igorn\\appdata\\roaming\\code\\user\\globalstorage\\bmd.stm32-for-vscode\\@xpa
 546              		.file 4 "Core/Src/NOS_LIB_Driver/Inc/NOS_Typedefs.h"
 547              		.file 5 "Core/Src/NOS_LIB_Driver/Inc/NOS_WS2812B_Strip.h"
 548              		.file 6 "<built-in>"
ARM GAS  C:\Users\igorn\AppData\Local\Temp\ccpc6f5d.s 			page 14

