ARM GAS  C:\Users\igorn\AppData\Local\Temp\ccokbHy1.s 			page 1


   1              		.cpu cortex-m4
   2              		.arch armv7e-m
   3              		.fpu fpv4-sp-d16
   4              		.eabi_attribute 27, 1
   5              		.eabi_attribute 28, 1
   6              		.eabi_attribute 20, 1
   7              		.eabi_attribute 21, 1
   8              		.eabi_attribute 23, 3
   9              		.eabi_attribute 24, 1
  10              		.eabi_attribute 25, 1
  11              		.eabi_attribute 26, 1
  12              		.eabi_attribute 30, 1
  13              		.eabi_attribute 34, 1
  14              		.eabi_attribute 18, 4
  15              		.file	"main.c"
  16              		.text
  17              	.Ltext0:
  18              		.cfi_sections	.debug_frame
  19              		.file 1 "Core/Src/main.c"
  20              		.section	.text.MX_GPIO_Init,"ax",%progbits
  21              		.align	1
  22              		.syntax unified
  23              		.thumb
  24              		.thumb_func
  26              	MX_GPIO_Init:
  27              	.LFB139:
   1:Core/Src/main.c **** /* USER CODE BEGIN Header */
   2:Core/Src/main.c **** /**
   3:Core/Src/main.c ****   ******************************************************************************
   4:Core/Src/main.c ****   * @file           : main.c
   5:Core/Src/main.c ****   * @brief          : Main program body
   6:Core/Src/main.c ****   ******************************************************************************
   7:Core/Src/main.c ****   * @attention
   8:Core/Src/main.c ****   *
   9:Core/Src/main.c ****   * Copyright (c) 2024 STMicroelectronics.
  10:Core/Src/main.c ****   * All rights reserved.
  11:Core/Src/main.c ****   *
  12:Core/Src/main.c ****   * This software is licensed under terms that can be found in the LICENSE file
  13:Core/Src/main.c ****   * in the root directory of this software component.
  14:Core/Src/main.c ****   * If no LICENSE file comes with this software, it is provided AS-IS.
  15:Core/Src/main.c ****   *
  16:Core/Src/main.c ****   ******************************************************************************
  17:Core/Src/main.c ****   */
  18:Core/Src/main.c **** /* USER CODE END Header */
  19:Core/Src/main.c **** /* Includes ------------------------------------------------------------------*/
  20:Core/Src/main.c **** #include "main.h"
  21:Core/Src/main.c **** 
  22:Core/Src/main.c **** /* Private includes ----------------------------------------------------------*/
  23:Core/Src/main.c **** /* USER CODE BEGIN Includes */
  24:Core/Src/main.c **** #include <../Src/NOS_LIB_Driver/Inc/NOS_Lib.h>
  25:Core/Src/main.c **** /* USER CODE END Includes */
  26:Core/Src/main.c **** 
  27:Core/Src/main.c **** /* Private typedef -----------------------------------------------------------*/
  28:Core/Src/main.c **** /* USER CODE BEGIN PTD */
  29:Core/Src/main.c **** 
  30:Core/Src/main.c **** /* USER CODE END PTD */
  31:Core/Src/main.c **** 
ARM GAS  C:\Users\igorn\AppData\Local\Temp\ccokbHy1.s 			page 2


  32:Core/Src/main.c **** /* Private define ------------------------------------------------------------*/
  33:Core/Src/main.c **** /* USER CODE BEGIN PD */
  34:Core/Src/main.c **** 
  35:Core/Src/main.c **** /* USER CODE END PD */
  36:Core/Src/main.c **** 
  37:Core/Src/main.c **** /* Private macro -------------------------------------------------------------*/
  38:Core/Src/main.c **** /* USER CODE BEGIN PM */
  39:Core/Src/main.c **** 
  40:Core/Src/main.c **** /* USER CODE END PM */
  41:Core/Src/main.c **** 
  42:Core/Src/main.c **** /* Private variables ---------------------------------------------------------*/
  43:Core/Src/main.c **** SPI_HandleTypeDef hspi1;
  44:Core/Src/main.c **** 
  45:Core/Src/main.c **** TIM_HandleTypeDef htim6;
  46:Core/Src/main.c **** 
  47:Core/Src/main.c **** UART_HandleTypeDef huart2;
  48:Core/Src/main.c **** 
  49:Core/Src/main.c **** PCD_HandleTypeDef hpcd_USB_OTG_FS;
  50:Core/Src/main.c **** 
  51:Core/Src/main.c **** /* USER CODE BEGIN PV */
  52:Core/Src/main.c **** extern uint8_t frameBuffer1[3 * 256];
  53:Core/Src/main.c **** extern uint8_t frameBuffer2[3 * 8 * 64];
  54:Core/Src/main.c **** extern uint8_t frameBuffer3[3 * 8 * 32];
  55:Core/Src/main.c **** 
  56:Core/Src/main.c **** NOS_TimeEvent tetrisUpdateEvent = {0};
  57:Core/Src/main.c **** NOS_TimeEvent screenUpdateEvent = {0};
  58:Core/Src/main.c **** NOS_TimeEvent uartTestEvent = {0};
  59:Core/Src/main.c **** 
  60:Core/Src/main.c **** WS2812B_Strip stripA = {0};
  61:Core/Src/main.c **** PixelColor pixelsA[128];
  62:Core/Src/main.c **** 
  63:Core/Src/main.c **** const PixelColor red = {255,0,0};
  64:Core/Src/main.c **** const PixelColor green = {0,255,0};
  65:Core/Src/main.c **** const PixelColor blue = {0,0,255};
  66:Core/Src/main.c **** const PixelColor white = {255,255,255};
  67:Core/Src/main.c **** const PixelColor yellow = {255,255,0};
  68:Core/Src/main.c **** const PixelColor purple = {255,0,255};
  69:Core/Src/main.c **** const PixelColor cyan = {0,255,255};
  70:Core/Src/main.c **** 
  71:Core/Src/main.c **** PixelColor colors[7] = {red,green,blue,white,yellow,purple,cyan};
  72:Core/Src/main.c **** 
  73:Core/Src/main.c **** 
  74:Core/Src/main.c **** uint8_t rx_buff[256];
  75:Core/Src/main.c **** uint8_t fuckBuff[1024];
  76:Core/Src/main.c **** uint16_t fuckIndex = 0;
  77:Core/Src/main.c **** bool rx_flag = false;
  78:Core/Src/main.c **** bool tx_flag = false;
  79:Core/Src/main.c **** int currMessageLenght = 0;
  80:Core/Src/main.c **** int expectedMessageLenght = 0;
  81:Core/Src/main.c **** bool startReceive = false;
  82:Core/Src/main.c **** bool endReceive = false;
  83:Core/Src/main.c **** int receiveTime = 0;
  84:Core/Src/main.c **** 
  85:Core/Src/main.c **** SinValue bright = {0};
  86:Core/Src/main.c **** 
  87:Core/Src/main.c **** NOS_Button button = {0};
  88:Core/Src/main.c **** 
ARM GAS  C:\Users\igorn\AppData\Local\Temp\ccokbHy1.s 			page 3


  89:Core/Src/main.c **** GPIO_PIN PA6 = {0};
  90:Core/Src/main.c **** GPIO_PIN PA7 = {0};
  91:Core/Src/main.c **** 
  92:Core/Src/main.c **** 
  93:Core/Src/main.c **** int uartPixelCount = 0;
  94:Core/Src/main.c **** bool bufferCommand = false;
  95:Core/Src/main.c **** 
  96:Core/Src/main.c **** int currColor = 0;
  97:Core/Src/main.c **** int buttonDelay = 0;
  98:Core/Src/main.c **** 
  99:Core/Src/main.c **** int receiveTimeAbort = 100;
 100:Core/Src/main.c **** bool receiveAbort = false;
 101:Core/Src/main.c **** bool receiveCheck = false;
 102:Core/Src/main.c **** 
 103:Core/Src/main.c **** NOS_Short value;
 104:Core/Src/main.c **** /* USER CODE END PV */
 105:Core/Src/main.c **** 
 106:Core/Src/main.c **** /* Private function prototypes -----------------------------------------------*/
 107:Core/Src/main.c **** void SystemClock_Config(void);
 108:Core/Src/main.c **** static void MX_GPIO_Init(void);
 109:Core/Src/main.c **** static void MX_USART2_UART_Init(void);
 110:Core/Src/main.c **** static void MX_TIM6_Init(void);
 111:Core/Src/main.c **** static void MX_SPI1_Init(void);
 112:Core/Src/main.c **** static void MX_USB_OTG_FS_PCD_Init(void);
 113:Core/Src/main.c **** /* USER CODE BEGIN PFP */
 114:Core/Src/main.c **** 
 115:Core/Src/main.c **** /* USER CODE END PFP */
 116:Core/Src/main.c **** 
 117:Core/Src/main.c **** /* Private user code ---------------------------------------------------------*/
 118:Core/Src/main.c **** /* USER CODE BEGIN 0 */
 119:Core/Src/main.c **** void ReceiveReset(uint8_t* rx_buff_ptr)
 120:Core/Src/main.c **** {
 121:Core/Src/main.c ****   rx_buff_ptr = rx_buff;
 122:Core/Src/main.c ****   currMessageLenght = 0;
 123:Core/Src/main.c ****   rx_flag = true;
 124:Core/Src/main.c **** }
 125:Core/Src/main.c **** 
 126:Core/Src/main.c **** void ContinueReceive(uint8_t* rx_buff_ptr)
 127:Core/Src/main.c **** {
 128:Core/Src/main.c ****   rx_buff[currMessageLenght] = *rx_buff_ptr;
 129:Core/Src/main.c ****   ++rx_buff_ptr;
 130:Core/Src/main.c **** }
 131:Core/Src/main.c **** 
 132:Core/Src/main.c **** void HAL_UART_RxCpltCallback(UART_HandleTypeDef* huart) {
 133:Core/Src/main.c **** 
 134:Core/Src/main.c **** static uint8_t* rx_buff_ptr = rx_buff;
 135:Core/Src/main.c **** 
 136:Core/Src/main.c **** fuckBuff[fuckIndex] = *rx_buff_ptr;
 137:Core/Src/main.c **** fuckIndex++;
 138:Core/Src/main.c **** 
 139:Core/Src/main.c **** if(*rx_buff_ptr == UART_ADDRESS && !startReceive)
 140:Core/Src/main.c **** {
 141:Core/Src/main.c ****   startReceive = true;
 142:Core/Src/main.c ****   currMessageLenght = 0;
 143:Core/Src/main.c **** 
 144:Core/Src/main.c ****   fuckIndex = 1;
 145:Core/Src/main.c ****   for(int i = 0; i < 1024; i++)
ARM GAS  C:\Users\igorn\AppData\Local\Temp\ccokbHy1.s 			page 4


 146:Core/Src/main.c ****   {
 147:Core/Src/main.c ****     fuckBuff[i] = 0;
 148:Core/Src/main.c ****   }
 149:Core/Src/main.c ****   fuckBuff[0] = *rx_buff_ptr; 
 150:Core/Src/main.c **** }
 151:Core/Src/main.c **** 
 152:Core/Src/main.c **** if(startReceive && currMessageLenght == 1 && !bufferCommand)
 153:Core/Src/main.c **** {
 154:Core/Src/main.c ****   value.bytes[1] = *rx_buff_ptr;
 155:Core/Src/main.c **** }
 156:Core/Src/main.c **** 
 157:Core/Src/main.c **** if(startReceive && currMessageLenght == 2 && !bufferCommand)
 158:Core/Src/main.c **** {
 159:Core/Src/main.c ****   value.bytes[0] = *rx_buff_ptr;
 160:Core/Src/main.c ****   expectedMessageLenght = value.data;
 161:Core/Src/main.c ****   bufferCommand = true;
 162:Core/Src/main.c **** }
 163:Core/Src/main.c **** 
 164:Core/Src/main.c **** if(fuckIndex > 1023)
 165:Core/Src/main.c **** {
 166:Core/Src/main.c ****   fuckIndex = 0;
 167:Core/Src/main.c **** }
 168:Core/Src/main.c **** 
 169:Core/Src/main.c **** currMessageLenght++;
 170:Core/Src/main.c **** 
 171:Core/Src/main.c **** if(startReceive && (currMessageLenght == expectedMessageLenght) && bufferCommand)
 172:Core/Src/main.c **** {
 173:Core/Src/main.c ****   ReceiveReset(rx_buff_ptr);
 174:Core/Src/main.c ****   bufferCommand = false;
 175:Core/Src/main.c ****   startReceive = false;
 176:Core/Src/main.c **** }
 177:Core/Src/main.c **** else
 178:Core/Src/main.c **** {
 179:Core/Src/main.c ****   ContinueReceive(rx_buff_ptr);
 180:Core/Src/main.c **** }
 181:Core/Src/main.c **** 
 182:Core/Src/main.c ****     HAL_UART_Receive_IT (&huart2, rx_buff_ptr, 1); 
 183:Core/Src/main.c **** }
 184:Core/Src/main.c **** /* USER CODE END 0 */
 185:Core/Src/main.c **** 
 186:Core/Src/main.c **** /**
 187:Core/Src/main.c ****   * @brief  The application entry point.
 188:Core/Src/main.c ****   * @retval int
 189:Core/Src/main.c ****   */
 190:Core/Src/main.c **** int main(void)
 191:Core/Src/main.c **** {
 192:Core/Src/main.c ****   /* USER CODE BEGIN 1 */
 193:Core/Src/main.c **** 
 194:Core/Src/main.c ****   /* USER CODE END 1 */
 195:Core/Src/main.c **** 
 196:Core/Src/main.c ****   /* MCU Configuration--------------------------------------------------------*/
 197:Core/Src/main.c **** 
 198:Core/Src/main.c ****   /* Reset of all peripherals, Initializes the Flash interface and the Systick. */
 199:Core/Src/main.c ****   HAL_Init();
 200:Core/Src/main.c **** 
 201:Core/Src/main.c ****   /* USER CODE BEGIN Init */
 202:Core/Src/main.c **** 
ARM GAS  C:\Users\igorn\AppData\Local\Temp\ccokbHy1.s 			page 5


 203:Core/Src/main.c ****   /* USER CODE END Init */
 204:Core/Src/main.c **** 
 205:Core/Src/main.c ****   /* Configure the system clock */
 206:Core/Src/main.c ****   SystemClock_Config();
 207:Core/Src/main.c **** 
 208:Core/Src/main.c ****   /* USER CODE BEGIN SysInit */
 209:Core/Src/main.c **** 
 210:Core/Src/main.c ****   /* USER CODE END SysInit */
 211:Core/Src/main.c **** 
 212:Core/Src/main.c ****   /* Initialize all configured peripherals */
 213:Core/Src/main.c ****   MX_GPIO_Init();
 214:Core/Src/main.c ****   MX_USART2_UART_Init();
 215:Core/Src/main.c ****   MX_TIM6_Init();
 216:Core/Src/main.c ****   //MX_SPI1_Init();
 217:Core/Src/main.c ****   //MX_USB_OTG_FS_PCD_Init();
 218:Core/Src/main.c ****   /* USER CODE BEGIN 2 */
 219:Core/Src/main.c ****   HAL_UART_Receive_IT(&huart2,rx_buff,1);
 220:Core/Src/main.c ****   HAL_UART_Transmit(&huart2,"HELLO",sizeof("HELLO"),1000);
 221:Core/Src/main.c ****   visInit();
 222:Core/Src/main.c **** 
 223:Core/Src/main.c ****   NOS_WS2812B_Strip_FullInit(&stripA,&frameBuffer1,&pixelsA,128);
 224:Core/Src/main.c **** 
 225:Core/Src/main.c ****   NOS_TimeEvent_Init(&tetrisUpdateEvent, 50);
 226:Core/Src/main.c ****   NOS_TimeEvent_Init(&screenUpdateEvent, 20);
 227:Core/Src/main.c ****   NOS_TimeEvent_Init(&uartTestEvent, 1000);
 228:Core/Src/main.c ****   //NOS_WS2812B_Strip_TestFill(&stripA);
 229:Core/Src/main.c **** 
 230:Core/Src/main.c ****   NOS_Math_SinValue_Init(&bright,65,75,1);
 231:Core/Src/main.c **** 
 232:Core/Src/main.c ****   NOS_Button_Init(&button);
 233:Core/Src/main.c **** 
 234:Core/Src/main.c ****   NOS_GPIO_PinInit(&PA6,GPIOA,GPIO_PIN_6,0);
 235:Core/Src/main.c ****   NOS_GPIO_PinInit(&PA7,GPIOA,GPIO_PIN_7,0);
 236:Core/Src/main.c **** 
 237:Core/Src/main.c **** 
 238:Core/Src/main.c **** 
 239:Core/Src/main.c ****   /* USER CODE END 2 */
 240:Core/Src/main.c **** 
 241:Core/Src/main.c ****   /* Infinite loop */
 242:Core/Src/main.c ****   /* USER CODE BEGIN WHILE */
 243:Core/Src/main.c ****   while (1)
 244:Core/Src/main.c ****   {
 245:Core/Src/main.c **** 
 246:Core/Src/main.c ****     if(rx_flag)
 247:Core/Src/main.c ****     {
 248:Core/Src/main.c ****       char mess[] = "Recieved!";
 249:Core/Src/main.c ****       uint32_t buff = 0; 
 250:Core/Src/main.c **** 
 251:Core/Src/main.c ****       if(NOS_Strip_Uart_ParseCommand(&stripA,fuckBuff) == "ready!")
 252:Core/Src/main.c ****       {
 253:Core/Src/main.c ****         HAL_UART_Transmit(&huart2,"ready!",7,1000);
 254:Core/Src/main.c ****       }
 255:Core/Src/main.c ****       
 256:Core/Src/main.c ****       rx_flag = false;
 257:Core/Src/main.c ****     }
 258:Core/Src/main.c **** 
 259:Core/Src/main.c ****     if (NOS_TimeEvent_Check(&tetrisUpdateEvent))
ARM GAS  C:\Users\igorn\AppData\Local\Temp\ccokbHy1.s 			page 6


 260:Core/Src/main.c ****     { 
 261:Core/Src/main.c ****       NOS_Math_SinValue_Handler(&bright);
 262:Core/Src/main.c ****       NOS_TimeEvent_FinishEvent(&tetrisUpdateEvent);
 263:Core/Src/main.c ****     }
 264:Core/Src/main.c ****     
 265:Core/Src/main.c ****     if (NOS_TimeEvent_Check(&screenUpdateEvent))
 266:Core/Src/main.c ****     {
 267:Core/Src/main.c ****       //stripA.bright = NOS_Math_GetSinValue(&bright);
 268:Core/Src/main.c ****       NOS_WS2812B_Strip_Update(&stripA);
 269:Core/Src/main.c ****       visHandle();
 270:Core/Src/main.c **** 
 271:Core/Src/main.c ****       NOS_TimeEvent_FinishEvent(&screenUpdateEvent);
 272:Core/Src/main.c ****     }
 273:Core/Src/main.c **** 
 274:Core/Src/main.c ****     if(NOS_Button_CheckPressDone(&button))
 275:Core/Src/main.c ****     {
 276:Core/Src/main.c ****       if(currColor < 6)
 277:Core/Src/main.c ****       {
 278:Core/Src/main.c ****         currColor++;
 279:Core/Src/main.c ****       }
 280:Core/Src/main.c ****       else
 281:Core/Src/main.c ****       {
 282:Core/Src/main.c ****         currColor = 0;
 283:Core/Src/main.c ****       }
 284:Core/Src/main.c **** 
 285:Core/Src/main.c ****       NOS_WS2812B_Strip_ColorFill(&stripA,colors[currColor]);
 286:Core/Src/main.c ****       NOS_Button_PressDoneHandler(&button);
 287:Core/Src/main.c ****       HAL_GPIO_TogglePin(PA6.Port,PA6.Pin);
 288:Core/Src/main.c ****     }
 289:Core/Src/main.c **** 
 290:Core/Src/main.c ****     if(NOS_Button_isPressed(&button))
 291:Core/Src/main.c ****     {
 292:Core/Src/main.c ****       HAL_GPIO_WritePin(PA7.Port,PA7.Pin,0);
 293:Core/Src/main.c ****     }
 294:Core/Src/main.c ****     else
 295:Core/Src/main.c ****     {
 296:Core/Src/main.c ****       HAL_GPIO_WritePin(PA7.Port,PA7.Pin,1);
 297:Core/Src/main.c ****     }
 298:Core/Src/main.c **** 
 299:Core/Src/main.c **** 
 300:Core/Src/main.c **** 
 301:Core/Src/main.c ****     /* USER CODE END WHILE */
 302:Core/Src/main.c **** 
 303:Core/Src/main.c ****     /* USER CODE BEGIN 3 */
 304:Core/Src/main.c ****   }
 305:Core/Src/main.c ****   /* USER CODE END 3 */
 306:Core/Src/main.c **** }
 307:Core/Src/main.c **** 
 308:Core/Src/main.c **** /**
 309:Core/Src/main.c ****   * @brief System Clock Configuration
 310:Core/Src/main.c ****   * @retval None
 311:Core/Src/main.c ****   */
 312:Core/Src/main.c **** void SystemClock_Config(void)
 313:Core/Src/main.c **** {
 314:Core/Src/main.c ****   RCC_OscInitTypeDef RCC_OscInitStruct = {0};
 315:Core/Src/main.c ****   RCC_ClkInitTypeDef RCC_ClkInitStruct = {0};
 316:Core/Src/main.c **** 
ARM GAS  C:\Users\igorn\AppData\Local\Temp\ccokbHy1.s 			page 7


 317:Core/Src/main.c ****   /** Configure the main internal regulator output voltage
 318:Core/Src/main.c ****    */
 319:Core/Src/main.c ****   __HAL_RCC_PWR_CLK_ENABLE();
 320:Core/Src/main.c ****   __HAL_PWR_VOLTAGESCALING_CONFIG(PWR_REGULATOR_VOLTAGE_SCALE1);
 321:Core/Src/main.c ****   /** Initializes the RCC Oscillators according to the specified parameters
 322:Core/Src/main.c ****    * in the RCC_OscInitTypeDef structure.
 323:Core/Src/main.c ****    */
 324:Core/Src/main.c ****   RCC_OscInitStruct.OscillatorType = RCC_OSCILLATORTYPE_HSI | RCC_OSCILLATORTYPE_LSI;
 325:Core/Src/main.c ****   RCC_OscInitStruct.HSIState = RCC_HSI_ON;
 326:Core/Src/main.c ****   RCC_OscInitStruct.HSICalibrationValue = RCC_HSICALIBRATION_DEFAULT;
 327:Core/Src/main.c ****   RCC_OscInitStruct.LSIState = RCC_LSI_ON;
 328:Core/Src/main.c ****   RCC_OscInitStruct.PLL.PLLState = RCC_PLL_ON;
 329:Core/Src/main.c ****   RCC_OscInitStruct.PLL.PLLSource = RCC_PLLSOURCE_HSI;
 330:Core/Src/main.c ****   RCC_OscInitStruct.PLL.PLLM = 8;
 331:Core/Src/main.c ****   RCC_OscInitStruct.PLL.PLLN = 168;
 332:Core/Src/main.c ****   RCC_OscInitStruct.PLL.PLLP = RCC_PLLP_DIV2;
 333:Core/Src/main.c ****   RCC_OscInitStruct.PLL.PLLQ = 4;
 334:Core/Src/main.c ****   if (HAL_RCC_OscConfig(&RCC_OscInitStruct) != HAL_OK)
 335:Core/Src/main.c ****   {
 336:Core/Src/main.c ****     Error_Handler();
 337:Core/Src/main.c ****   }
 338:Core/Src/main.c ****   /** Initializes the CPU, AHB and APB buses clocks
 339:Core/Src/main.c ****    */
 340:Core/Src/main.c ****   RCC_ClkInitStruct.ClockType = RCC_CLOCKTYPE_HCLK | RCC_CLOCKTYPE_SYSCLK | RCC_CLOCKTYPE_PCLK1 | R
 341:Core/Src/main.c ****   RCC_ClkInitStruct.SYSCLKSource = RCC_SYSCLKSOURCE_PLLCLK;
 342:Core/Src/main.c ****   RCC_ClkInitStruct.AHBCLKDivider = RCC_SYSCLK_DIV1;
 343:Core/Src/main.c ****   RCC_ClkInitStruct.APB1CLKDivider = RCC_HCLK_DIV4;
 344:Core/Src/main.c ****   RCC_ClkInitStruct.APB2CLKDivider = RCC_HCLK_DIV2;
 345:Core/Src/main.c **** 
 346:Core/Src/main.c ****   if (HAL_RCC_ClockConfig(&RCC_ClkInitStruct, FLASH_LATENCY_5) != HAL_OK)
 347:Core/Src/main.c ****   {
 348:Core/Src/main.c ****     Error_Handler();
 349:Core/Src/main.c ****   }
 350:Core/Src/main.c **** }
 351:Core/Src/main.c **** 
 352:Core/Src/main.c **** 
 353:Core/Src/main.c **** /**
 354:Core/Src/main.c ****   * @brief SPI1 Initialization Function
 355:Core/Src/main.c ****   * @param None
 356:Core/Src/main.c ****   * @retval None
 357:Core/Src/main.c ****   */
 358:Core/Src/main.c **** static void MX_SPI1_Init(void)
 359:Core/Src/main.c **** {
 360:Core/Src/main.c **** 
 361:Core/Src/main.c ****   /* USER CODE BEGIN SPI1_Init 0 */
 362:Core/Src/main.c **** 
 363:Core/Src/main.c ****   /* USER CODE END SPI1_Init 0 */
 364:Core/Src/main.c **** 
 365:Core/Src/main.c ****   /* USER CODE BEGIN SPI1_Init 1 */
 366:Core/Src/main.c **** 
 367:Core/Src/main.c ****   /* USER CODE END SPI1_Init 1 */
 368:Core/Src/main.c ****   /* SPI1 parameter configuration*/
 369:Core/Src/main.c ****   hspi1.Instance = SPI1;
 370:Core/Src/main.c ****   hspi1.Init.Mode = SPI_MODE_MASTER;
 371:Core/Src/main.c ****   hspi1.Init.Direction = SPI_DIRECTION_2LINES;
 372:Core/Src/main.c ****   hspi1.Init.DataSize = SPI_DATASIZE_8BIT;
 373:Core/Src/main.c ****   hspi1.Init.CLKPolarity = SPI_POLARITY_LOW;
ARM GAS  C:\Users\igorn\AppData\Local\Temp\ccokbHy1.s 			page 8


 374:Core/Src/main.c ****   hspi1.Init.CLKPhase = SPI_PHASE_1EDGE;
 375:Core/Src/main.c ****   hspi1.Init.NSS = SPI_NSS_SOFT;
 376:Core/Src/main.c ****   hspi1.Init.BaudRatePrescaler = SPI_BAUDRATEPRESCALER_2;
 377:Core/Src/main.c ****   hspi1.Init.FirstBit = SPI_FIRSTBIT_MSB;
 378:Core/Src/main.c ****   hspi1.Init.TIMode = SPI_TIMODE_DISABLE;
 379:Core/Src/main.c ****   hspi1.Init.CRCCalculation = SPI_CRCCALCULATION_DISABLE;
 380:Core/Src/main.c ****   hspi1.Init.CRCPolynomial = 10;
 381:Core/Src/main.c ****   if (HAL_SPI_Init(&hspi1) != HAL_OK)
 382:Core/Src/main.c ****   {
 383:Core/Src/main.c ****     Error_Handler();
 384:Core/Src/main.c ****   }
 385:Core/Src/main.c ****   /* USER CODE BEGIN SPI1_Init 2 */
 386:Core/Src/main.c **** 
 387:Core/Src/main.c ****   /* USER CODE END SPI1_Init 2 */
 388:Core/Src/main.c **** 
 389:Core/Src/main.c **** }
 390:Core/Src/main.c **** 
 391:Core/Src/main.c **** /**
 392:Core/Src/main.c ****   * @brief TIM6 Initialization Function
 393:Core/Src/main.c ****   * @param None
 394:Core/Src/main.c ****   * @retval None
 395:Core/Src/main.c ****   */
 396:Core/Src/main.c **** static void MX_TIM6_Init(void)
 397:Core/Src/main.c **** {
 398:Core/Src/main.c **** 
 399:Core/Src/main.c ****   /* USER CODE BEGIN TIM6_Init 0 */
 400:Core/Src/main.c **** 
 401:Core/Src/main.c ****   /* USER CODE END TIM6_Init 0 */
 402:Core/Src/main.c **** 
 403:Core/Src/main.c ****   TIM_MasterConfigTypeDef sMasterConfig = {0};
 404:Core/Src/main.c **** 
 405:Core/Src/main.c ****   /* USER CODE BEGIN TIM6_Init 1 */
 406:Core/Src/main.c **** 
 407:Core/Src/main.c ****   /* USER CODE END TIM6_Init 1 */
 408:Core/Src/main.c ****   htim6.Instance = TIM6;
 409:Core/Src/main.c ****   htim6.Init.Prescaler = 0;
 410:Core/Src/main.c ****   htim6.Init.CounterMode = TIM_COUNTERMODE_UP;
 411:Core/Src/main.c ****   htim6.Init.Period = 65535;
 412:Core/Src/main.c ****   htim6.Init.AutoReloadPreload = TIM_AUTORELOAD_PRELOAD_DISABLE;
 413:Core/Src/main.c ****   if (HAL_TIM_Base_Init(&htim6) != HAL_OK)
 414:Core/Src/main.c ****   {
 415:Core/Src/main.c ****     Error_Handler();
 416:Core/Src/main.c ****   }
 417:Core/Src/main.c ****   sMasterConfig.MasterOutputTrigger = TIM_TRGO_RESET;
 418:Core/Src/main.c ****   sMasterConfig.MasterSlaveMode = TIM_MASTERSLAVEMODE_DISABLE;
 419:Core/Src/main.c ****   if (HAL_TIMEx_MasterConfigSynchronization(&htim6, &sMasterConfig) != HAL_OK)
 420:Core/Src/main.c ****   {
 421:Core/Src/main.c ****     Error_Handler();
 422:Core/Src/main.c ****   }
 423:Core/Src/main.c ****   /* USER CODE BEGIN TIM6_Init 2 */
 424:Core/Src/main.c **** 
 425:Core/Src/main.c ****   /* USER CODE END TIM6_Init 2 */
 426:Core/Src/main.c **** 
 427:Core/Src/main.c **** }
 428:Core/Src/main.c **** 
 429:Core/Src/main.c **** /**
 430:Core/Src/main.c ****   * @brief USART2 Initialization Function
ARM GAS  C:\Users\igorn\AppData\Local\Temp\ccokbHy1.s 			page 9


 431:Core/Src/main.c ****   * @param None
 432:Core/Src/main.c ****   * @retval None
 433:Core/Src/main.c ****   */
 434:Core/Src/main.c **** static void MX_USART2_UART_Init(void)
 435:Core/Src/main.c **** {
 436:Core/Src/main.c **** 
 437:Core/Src/main.c ****   /* USER CODE BEGIN USART2_Init 0 */
 438:Core/Src/main.c **** 
 439:Core/Src/main.c ****   /* USER CODE END USART2_Init 0 */
 440:Core/Src/main.c **** 
 441:Core/Src/main.c ****   /* USER CODE BEGIN USART2_Init 1 */
 442:Core/Src/main.c **** 
 443:Core/Src/main.c ****   /* USER CODE END USART2_Init 1 */
 444:Core/Src/main.c ****   huart2.Instance = USART2;
 445:Core/Src/main.c ****   huart2.Init.BaudRate = 115200;
 446:Core/Src/main.c ****   huart2.Init.WordLength = UART_WORDLENGTH_8B;
 447:Core/Src/main.c ****   huart2.Init.StopBits = UART_STOPBITS_1;
 448:Core/Src/main.c ****   huart2.Init.Parity = UART_PARITY_NONE;
 449:Core/Src/main.c ****   huart2.Init.Mode = UART_MODE_TX_RX;
 450:Core/Src/main.c ****   huart2.Init.HwFlowCtl = UART_HWCONTROL_NONE;
 451:Core/Src/main.c ****   huart2.Init.OverSampling = UART_OVERSAMPLING_16;
 452:Core/Src/main.c ****   if (HAL_UART_Init(&huart2) != HAL_OK)
 453:Core/Src/main.c ****   {
 454:Core/Src/main.c ****     Error_Handler();
 455:Core/Src/main.c ****   }
 456:Core/Src/main.c ****   /* USER CODE BEGIN USART2_Init 2 */
 457:Core/Src/main.c **** 
 458:Core/Src/main.c ****   /* USER CODE END USART2_Init 2 */
 459:Core/Src/main.c **** 
 460:Core/Src/main.c **** }
 461:Core/Src/main.c **** 
 462:Core/Src/main.c **** /**
 463:Core/Src/main.c ****   * @brief USB_OTG_FS Initialization Function
 464:Core/Src/main.c ****   * @param None
 465:Core/Src/main.c ****   * @retval None
 466:Core/Src/main.c ****   */
 467:Core/Src/main.c **** static void MX_USB_OTG_FS_PCD_Init(void)
 468:Core/Src/main.c **** {
 469:Core/Src/main.c **** 
 470:Core/Src/main.c ****   /* USER CODE BEGIN USB_OTG_FS_Init 0 */
 471:Core/Src/main.c **** 
 472:Core/Src/main.c ****   /* USER CODE END USB_OTG_FS_Init 0 */
 473:Core/Src/main.c **** 
 474:Core/Src/main.c ****   /* USER CODE BEGIN USB_OTG_FS_Init 1 */
 475:Core/Src/main.c **** 
 476:Core/Src/main.c ****   /* USER CODE END USB_OTG_FS_Init 1 */
 477:Core/Src/main.c ****   hpcd_USB_OTG_FS.Instance = USB_OTG_FS;
 478:Core/Src/main.c ****   hpcd_USB_OTG_FS.Init.dev_endpoints = 4;
 479:Core/Src/main.c ****   hpcd_USB_OTG_FS.Init.speed = PCD_SPEED_FULL;
 480:Core/Src/main.c ****   hpcd_USB_OTG_FS.Init.dma_enable = DISABLE;
 481:Core/Src/main.c ****   hpcd_USB_OTG_FS.Init.phy_itface = PCD_PHY_EMBEDDED;
 482:Core/Src/main.c ****   hpcd_USB_OTG_FS.Init.Sof_enable = DISABLE;
 483:Core/Src/main.c ****   hpcd_USB_OTG_FS.Init.low_power_enable = DISABLE;
 484:Core/Src/main.c ****   hpcd_USB_OTG_FS.Init.lpm_enable = DISABLE;
 485:Core/Src/main.c ****   hpcd_USB_OTG_FS.Init.vbus_sensing_enable = DISABLE;
 486:Core/Src/main.c ****   hpcd_USB_OTG_FS.Init.use_dedicated_ep1 = DISABLE;
 487:Core/Src/main.c ****   if (HAL_PCD_Init(&hpcd_USB_OTG_FS) != HAL_OK)
ARM GAS  C:\Users\igorn\AppData\Local\Temp\ccokbHy1.s 			page 10


 488:Core/Src/main.c ****   {
 489:Core/Src/main.c ****     Error_Handler();
 490:Core/Src/main.c ****   }
 491:Core/Src/main.c ****   /* USER CODE BEGIN USB_OTG_FS_Init 2 */
 492:Core/Src/main.c **** 
 493:Core/Src/main.c ****   /* USER CODE END USB_OTG_FS_Init 2 */
 494:Core/Src/main.c **** 
 495:Core/Src/main.c **** }
 496:Core/Src/main.c **** 
 497:Core/Src/main.c **** /**
 498:Core/Src/main.c ****   * @brief GPIO Initialization Function
 499:Core/Src/main.c ****   * @param None
 500:Core/Src/main.c ****   * @retval None
 501:Core/Src/main.c ****   */
 502:Core/Src/main.c **** static void MX_GPIO_Init(void)
 503:Core/Src/main.c **** {
  28              		.loc 1 503 1 view -0
  29              		.cfi_startproc
  30              		@ args = 0, pretend = 0, frame = 40
  31              		@ frame_needed = 0, uses_anonymous_args = 0
  32 0000 00B5     		push	{lr}
  33              		.cfi_def_cfa_offset 4
  34              		.cfi_offset 14, -4
  35 0002 8BB0     		sub	sp, sp, #44
  36              		.cfi_def_cfa_offset 48
 504:Core/Src/main.c ****   GPIO_InitTypeDef GPIO_InitStruct = {0};
  37              		.loc 1 504 3 view .LVU1
  38              		.loc 1 504 20 is_stmt 0 view .LVU2
  39 0004 0022     		movs	r2, #0
  40 0006 0592     		str	r2, [sp, #20]
  41 0008 0692     		str	r2, [sp, #24]
  42 000a 0792     		str	r2, [sp, #28]
  43 000c 0892     		str	r2, [sp, #32]
  44 000e 0992     		str	r2, [sp, #36]
 505:Core/Src/main.c **** /* USER CODE BEGIN MX_GPIO_Init_1 */
 506:Core/Src/main.c **** /* USER CODE END MX_GPIO_Init_1 */
 507:Core/Src/main.c **** 
 508:Core/Src/main.c ****   /* GPIO Ports Clock Enable */
 509:Core/Src/main.c ****   __HAL_RCC_GPIOE_CLK_ENABLE();
  45              		.loc 1 509 3 is_stmt 1 view .LVU3
  46              	.LBB4:
  47              		.loc 1 509 3 view .LVU4
  48 0010 0092     		str	r2, [sp]
  49              		.loc 1 509 3 view .LVU5
  50 0012 1F4B     		ldr	r3, .L3
  51 0014 196B     		ldr	r1, [r3, #48]
  52 0016 41F01001 		orr	r1, r1, #16
  53 001a 1963     		str	r1, [r3, #48]
  54              		.loc 1 509 3 view .LVU6
  55 001c 196B     		ldr	r1, [r3, #48]
  56 001e 01F01001 		and	r1, r1, #16
  57 0022 0091     		str	r1, [sp]
  58              		.loc 1 509 3 view .LVU7
  59 0024 0099     		ldr	r1, [sp]
  60              	.LBE4:
  61              		.loc 1 509 3 view .LVU8
 510:Core/Src/main.c ****   __HAL_RCC_GPIOC_CLK_ENABLE();
ARM GAS  C:\Users\igorn\AppData\Local\Temp\ccokbHy1.s 			page 11


  62              		.loc 1 510 3 view .LVU9
  63              	.LBB5:
  64              		.loc 1 510 3 view .LVU10
  65 0026 0192     		str	r2, [sp, #4]
  66              		.loc 1 510 3 view .LVU11
  67 0028 196B     		ldr	r1, [r3, #48]
  68 002a 41F00401 		orr	r1, r1, #4
  69 002e 1963     		str	r1, [r3, #48]
  70              		.loc 1 510 3 view .LVU12
  71 0030 196B     		ldr	r1, [r3, #48]
  72 0032 01F00401 		and	r1, r1, #4
  73 0036 0191     		str	r1, [sp, #4]
  74              		.loc 1 510 3 view .LVU13
  75 0038 0199     		ldr	r1, [sp, #4]
  76              	.LBE5:
  77              		.loc 1 510 3 view .LVU14
 511:Core/Src/main.c ****   __HAL_RCC_GPIOH_CLK_ENABLE();
  78              		.loc 1 511 3 view .LVU15
  79              	.LBB6:
  80              		.loc 1 511 3 view .LVU16
  81 003a 0292     		str	r2, [sp, #8]
  82              		.loc 1 511 3 view .LVU17
  83 003c 196B     		ldr	r1, [r3, #48]
  84 003e 41F08001 		orr	r1, r1, #128
  85 0042 1963     		str	r1, [r3, #48]
  86              		.loc 1 511 3 view .LVU18
  87 0044 196B     		ldr	r1, [r3, #48]
  88 0046 01F08001 		and	r1, r1, #128
  89 004a 0291     		str	r1, [sp, #8]
  90              		.loc 1 511 3 view .LVU19
  91 004c 0299     		ldr	r1, [sp, #8]
  92              	.LBE6:
  93              		.loc 1 511 3 view .LVU20
 512:Core/Src/main.c ****   __HAL_RCC_GPIOA_CLK_ENABLE();
  94              		.loc 1 512 3 view .LVU21
  95              	.LBB7:
  96              		.loc 1 512 3 view .LVU22
  97 004e 0392     		str	r2, [sp, #12]
  98              		.loc 1 512 3 view .LVU23
  99 0050 196B     		ldr	r1, [r3, #48]
 100 0052 41F00101 		orr	r1, r1, #1
 101 0056 1963     		str	r1, [r3, #48]
 102              		.loc 1 512 3 view .LVU24
 103 0058 196B     		ldr	r1, [r3, #48]
 104 005a 01F00101 		and	r1, r1, #1
 105 005e 0391     		str	r1, [sp, #12]
 106              		.loc 1 512 3 view .LVU25
 107 0060 0399     		ldr	r1, [sp, #12]
 108              	.LBE7:
 109              		.loc 1 512 3 view .LVU26
 513:Core/Src/main.c ****   __HAL_RCC_GPIOB_CLK_ENABLE();
 110              		.loc 1 513 3 view .LVU27
 111              	.LBB8:
 112              		.loc 1 513 3 view .LVU28
 113 0062 0492     		str	r2, [sp, #16]
 114              		.loc 1 513 3 view .LVU29
 115 0064 1A6B     		ldr	r2, [r3, #48]
ARM GAS  C:\Users\igorn\AppData\Local\Temp\ccokbHy1.s 			page 12


 116 0066 42F00202 		orr	r2, r2, #2
 117 006a 1A63     		str	r2, [r3, #48]
 118              		.loc 1 513 3 view .LVU30
 119 006c 1B6B     		ldr	r3, [r3, #48]
 120 006e 03F00203 		and	r3, r3, #2
 121 0072 0493     		str	r3, [sp, #16]
 122              		.loc 1 513 3 view .LVU31
 123 0074 049B     		ldr	r3, [sp, #16]
 124              	.LBE8:
 125              		.loc 1 513 3 view .LVU32
 514:Core/Src/main.c **** 
 515:Core/Src/main.c ****   /*Configure GPIO pins : PE3 PE4 */
 516:Core/Src/main.c ****   GPIO_InitStruct.Pin = GPIO_PIN_3|GPIO_PIN_4;
 126              		.loc 1 516 3 view .LVU33
 127              		.loc 1 516 23 is_stmt 0 view .LVU34
 128 0076 1823     		movs	r3, #24
 129 0078 0593     		str	r3, [sp, #20]
 517:Core/Src/main.c ****   GPIO_InitStruct.Mode = GPIO_MODE_IT_RISING;
 130              		.loc 1 517 3 is_stmt 1 view .LVU35
 131              		.loc 1 517 24 is_stmt 0 view .LVU36
 132 007a 4FF48813 		mov	r3, #1114112
 133 007e 0693     		str	r3, [sp, #24]
 518:Core/Src/main.c ****   GPIO_InitStruct.Pull = GPIO_NOPULL;
 134              		.loc 1 518 3 is_stmt 1 view .LVU37
 519:Core/Src/main.c ****   HAL_GPIO_Init(GPIOE, &GPIO_InitStruct);
 135              		.loc 1 519 3 view .LVU38
 136 0080 05A9     		add	r1, sp, #20
 137 0082 0448     		ldr	r0, .L3+4
 138 0084 FFF7FEFF 		bl	HAL_GPIO_Init
 139              	.LVL0:
 520:Core/Src/main.c **** 
 521:Core/Src/main.c **** /* USER CODE BEGIN MX_GPIO_Init_2 */
 522:Core/Src/main.c **** /* USER CODE END MX_GPIO_Init_2 */
 523:Core/Src/main.c **** }
 140              		.loc 1 523 1 is_stmt 0 view .LVU39
 141 0088 0BB0     		add	sp, sp, #44
 142              		.cfi_def_cfa_offset 4
 143              		@ sp needed
 144 008a 5DF804FB 		ldr	pc, [sp], #4
 145              	.L4:
 146 008e 00BF     		.align	2
 147              	.L3:
 148 0090 00380240 		.word	1073887232
 149 0094 00100240 		.word	1073876992
 150              		.cfi_endproc
 151              	.LFE139:
 153              		.section	.text.ReceiveReset,"ax",%progbits
 154              		.align	1
 155              		.global	ReceiveReset
 156              		.syntax unified
 157              		.thumb
 158              		.thumb_func
 160              	ReceiveReset:
 161              	.LVL1:
 162              	.LFB130:
 120:Core/Src/main.c ****   rx_buff_ptr = rx_buff;
 163              		.loc 1 120 1 is_stmt 1 view -0
ARM GAS  C:\Users\igorn\AppData\Local\Temp\ccokbHy1.s 			page 13


 164              		.cfi_startproc
 165              		@ args = 0, pretend = 0, frame = 0
 166              		@ frame_needed = 0, uses_anonymous_args = 0
 167              		@ link register save eliminated.
 121:Core/Src/main.c ****   currMessageLenght = 0;
 168              		.loc 1 121 3 view .LVU41
 122:Core/Src/main.c ****   rx_flag = true;
 169              		.loc 1 122 3 view .LVU42
 122:Core/Src/main.c ****   rx_flag = true;
 170              		.loc 1 122 21 is_stmt 0 view .LVU43
 171 0000 034B     		ldr	r3, .L6
 172 0002 0022     		movs	r2, #0
 173 0004 1A60     		str	r2, [r3]
 123:Core/Src/main.c **** }
 174              		.loc 1 123 3 is_stmt 1 view .LVU44
 123:Core/Src/main.c **** }
 175              		.loc 1 123 11 is_stmt 0 view .LVU45
 176 0006 034B     		ldr	r3, .L6+4
 177 0008 0122     		movs	r2, #1
 178 000a 1A70     		strb	r2, [r3]
 124:Core/Src/main.c **** 
 179              		.loc 1 124 1 view .LVU46
 180 000c 7047     		bx	lr
 181              	.L7:
 182 000e 00BF     		.align	2
 183              	.L6:
 184 0010 00000000 		.word	currMessageLenght
 185 0014 00000000 		.word	rx_flag
 186              		.cfi_endproc
 187              	.LFE130:
 189              		.section	.text.ContinueReceive,"ax",%progbits
 190              		.align	1
 191              		.global	ContinueReceive
 192              		.syntax unified
 193              		.thumb
 194              		.thumb_func
 196              	ContinueReceive:
 197              	.LVL2:
 198              	.LFB131:
 127:Core/Src/main.c ****   rx_buff[currMessageLenght] = *rx_buff_ptr;
 199              		.loc 1 127 1 is_stmt 1 view -0
 200              		.cfi_startproc
 201              		@ args = 0, pretend = 0, frame = 0
 202              		@ frame_needed = 0, uses_anonymous_args = 0
 203              		@ link register save eliminated.
 128:Core/Src/main.c ****   ++rx_buff_ptr;
 204              		.loc 1 128 3 view .LVU48
 128:Core/Src/main.c ****   ++rx_buff_ptr;
 205              		.loc 1 128 10 is_stmt 0 view .LVU49
 206 0000 024B     		ldr	r3, .L9
 207 0002 1B68     		ldr	r3, [r3]
 128:Core/Src/main.c ****   ++rx_buff_ptr;
 208              		.loc 1 128 32 view .LVU50
 209 0004 0178     		ldrb	r1, [r0]	@ zero_extendqisi2
 128:Core/Src/main.c ****   ++rx_buff_ptr;
 210              		.loc 1 128 30 view .LVU51
 211 0006 024A     		ldr	r2, .L9+4
ARM GAS  C:\Users\igorn\AppData\Local\Temp\ccokbHy1.s 			page 14


 212 0008 D154     		strb	r1, [r2, r3]
 129:Core/Src/main.c **** }
 213              		.loc 1 129 3 is_stmt 1 view .LVU52
 214              	.LVL3:
 130:Core/Src/main.c **** 
 215              		.loc 1 130 1 is_stmt 0 view .LVU53
 216 000a 7047     		bx	lr
 217              	.L10:
 218              		.align	2
 219              	.L9:
 220 000c 00000000 		.word	currMessageLenght
 221 0010 00000000 		.word	rx_buff
 222              		.cfi_endproc
 223              	.LFE131:
 225              		.section	.text.HAL_UART_RxCpltCallback,"ax",%progbits
 226              		.align	1
 227              		.global	HAL_UART_RxCpltCallback
 228              		.syntax unified
 229              		.thumb
 230              		.thumb_func
 232              	HAL_UART_RxCpltCallback:
 233              	.LVL4:
 234              	.LFB132:
 132:Core/Src/main.c **** 
 235              		.loc 1 132 57 is_stmt 1 view -0
 236              		.cfi_startproc
 237              		@ args = 0, pretend = 0, frame = 0
 238              		@ frame_needed = 0, uses_anonymous_args = 0
 132:Core/Src/main.c **** 
 239              		.loc 1 132 57 is_stmt 0 view .LVU55
 240 0000 08B5     		push	{r3, lr}
 241              		.cfi_def_cfa_offset 8
 242              		.cfi_offset 3, -8
 243              		.cfi_offset 14, -4
 134:Core/Src/main.c **** 
 244              		.loc 1 134 1 is_stmt 1 view .LVU56
 136:Core/Src/main.c **** fuckIndex++;
 245              		.loc 1 136 1 view .LVU57
 136:Core/Src/main.c **** fuckIndex++;
 246              		.loc 1 136 9 is_stmt 0 view .LVU58
 247 0002 3749     		ldr	r1, .L25
 248 0004 0B88     		ldrh	r3, [r1]
 136:Core/Src/main.c **** fuckIndex++;
 249              		.loc 1 136 23 view .LVU59
 250 0006 374A     		ldr	r2, .L25+4
 251 0008 1278     		ldrb	r2, [r2]	@ zero_extendqisi2
 136:Core/Src/main.c **** fuckIndex++;
 252              		.loc 1 136 21 view .LVU60
 253 000a 3748     		ldr	r0, .L25+8
 254              	.LVL5:
 136:Core/Src/main.c **** fuckIndex++;
 255              		.loc 1 136 21 view .LVU61
 256 000c C254     		strb	r2, [r0, r3]
 137:Core/Src/main.c **** 
 257              		.loc 1 137 1 is_stmt 1 view .LVU62
 137:Core/Src/main.c **** 
 258              		.loc 1 137 10 is_stmt 0 view .LVU63
ARM GAS  C:\Users\igorn\AppData\Local\Temp\ccokbHy1.s 			page 15


 259 000e 0133     		adds	r3, r3, #1
 260 0010 0B80     		strh	r3, [r1]	@ movhi
 139:Core/Src/main.c **** {
 261              		.loc 1 139 1 is_stmt 1 view .LVU64
 139:Core/Src/main.c **** {
 262              		.loc 1 139 3 is_stmt 0 view .LVU65
 263 0012 652A     		cmp	r2, #101
 264 0014 25D0     		beq	.L21
 265              	.L12:
 152:Core/Src/main.c **** {
 266              		.loc 1 152 1 is_stmt 1 view .LVU66
 152:Core/Src/main.c **** {
 267              		.loc 1 152 4 is_stmt 0 view .LVU67
 268 0016 354B     		ldr	r3, .L25+12
 269 0018 1A78     		ldrb	r2, [r3]	@ zero_extendqisi2
 152:Core/Src/main.c **** {
 270              		.loc 1 152 3 view .LVU68
 271 001a 1AB1     		cbz	r2, .L15
 152:Core/Src/main.c **** {
 272              		.loc 1 152 38 discriminator 1 view .LVU69
 273 001c 344B     		ldr	r3, .L25+16
 274 001e 1B68     		ldr	r3, [r3]
 152:Core/Src/main.c **** {
 275              		.loc 1 152 17 discriminator 1 view .LVU70
 276 0020 012B     		cmp	r3, #1
 277 0022 37D0     		beq	.L22
 278              	.L15:
 157:Core/Src/main.c **** {
 279              		.loc 1 157 1 is_stmt 1 view .LVU71
 157:Core/Src/main.c **** {
 280              		.loc 1 157 3 is_stmt 0 view .LVU72
 281 0024 1AB1     		cbz	r2, .L16
 157:Core/Src/main.c **** {
 282              		.loc 1 157 38 discriminator 1 view .LVU73
 283 0026 324B     		ldr	r3, .L25+16
 284 0028 1B68     		ldr	r3, [r3]
 157:Core/Src/main.c **** {
 285              		.loc 1 157 17 discriminator 1 view .LVU74
 286 002a 022B     		cmp	r3, #2
 287 002c 3BD0     		beq	.L23
 288              	.L16:
 164:Core/Src/main.c **** {
 289              		.loc 1 164 1 is_stmt 1 view .LVU75
 164:Core/Src/main.c **** {
 290              		.loc 1 164 14 is_stmt 0 view .LVU76
 291 002e 2C4B     		ldr	r3, .L25
 292 0030 1B88     		ldrh	r3, [r3]
 164:Core/Src/main.c **** {
 293              		.loc 1 164 3 view .LVU77
 294 0032 B3F5806F 		cmp	r3, #1024
 295 0036 02D3     		bcc	.L17
 166:Core/Src/main.c **** }
 296              		.loc 1 166 3 is_stmt 1 view .LVU78
 166:Core/Src/main.c **** }
 297              		.loc 1 166 13 is_stmt 0 view .LVU79
 298 0038 294B     		ldr	r3, .L25
 299 003a 0021     		movs	r1, #0
ARM GAS  C:\Users\igorn\AppData\Local\Temp\ccokbHy1.s 			page 16


 300 003c 1980     		strh	r1, [r3]	@ movhi
 301              	.L17:
 169:Core/Src/main.c **** 
 302              		.loc 1 169 1 is_stmt 1 view .LVU80
 169:Core/Src/main.c **** 
 303              		.loc 1 169 18 is_stmt 0 view .LVU81
 304 003e 2C49     		ldr	r1, .L25+16
 305 0040 0B68     		ldr	r3, [r1]
 306 0042 0133     		adds	r3, r3, #1
 307 0044 0B60     		str	r3, [r1]
 171:Core/Src/main.c **** {
 308              		.loc 1 171 1 is_stmt 1 view .LVU82
 171:Core/Src/main.c **** {
 309              		.loc 1 171 3 is_stmt 0 view .LVU83
 310 0046 1AB1     		cbz	r2, .L18
 171:Core/Src/main.c **** {
 311              		.loc 1 171 39 discriminator 1 view .LVU84
 312 0048 2A4A     		ldr	r2, .L25+20
 313 004a 1268     		ldr	r2, [r2]
 171:Core/Src/main.c **** {
 314              		.loc 1 171 17 discriminator 1 view .LVU85
 315 004c 9342     		cmp	r3, r2
 316 004e 39D0     		beq	.L24
 317              	.L18:
 179:Core/Src/main.c **** }
 318              		.loc 1 179 3 is_stmt 1 view .LVU86
 319 0050 2448     		ldr	r0, .L25+4
 320 0052 FFF7FEFF 		bl	ContinueReceive
 321              	.LVL6:
 322              	.L19:
 182:Core/Src/main.c **** }
 323              		.loc 1 182 5 view .LVU87
 324 0056 0122     		movs	r2, #1
 325 0058 2249     		ldr	r1, .L25+4
 326 005a 2748     		ldr	r0, .L25+24
 327 005c FFF7FEFF 		bl	HAL_UART_Receive_IT
 328              	.LVL7:
 183:Core/Src/main.c **** /* USER CODE END 0 */
 329              		.loc 1 183 1 is_stmt 0 view .LVU88
 330 0060 08BD     		pop	{r3, pc}
 331              	.L21:
 139:Core/Src/main.c **** {
 332              		.loc 1 139 36 discriminator 1 view .LVU89
 333 0062 224B     		ldr	r3, .L25+12
 334 0064 1B78     		ldrb	r3, [r3]	@ zero_extendqisi2
 139:Core/Src/main.c **** {
 335              		.loc 1 139 33 discriminator 1 view .LVU90
 336 0066 002B     		cmp	r3, #0
 337 0068 D5D1     		bne	.L12
 141:Core/Src/main.c ****   currMessageLenght = 0;
 338              		.loc 1 141 3 is_stmt 1 view .LVU91
 141:Core/Src/main.c ****   currMessageLenght = 0;
 339              		.loc 1 141 16 is_stmt 0 view .LVU92
 340 006a 0122     		movs	r2, #1
 341 006c 1F4B     		ldr	r3, .L25+12
 342 006e 1A70     		strb	r2, [r3]
 142:Core/Src/main.c **** 
ARM GAS  C:\Users\igorn\AppData\Local\Temp\ccokbHy1.s 			page 17


 343              		.loc 1 142 3 is_stmt 1 view .LVU93
 142:Core/Src/main.c **** 
 344              		.loc 1 142 21 is_stmt 0 view .LVU94
 345 0070 0023     		movs	r3, #0
 346 0072 1F49     		ldr	r1, .L25+16
 347 0074 0B60     		str	r3, [r1]
 144:Core/Src/main.c ****   for(int i = 0; i < 1024; i++)
 348              		.loc 1 144 3 is_stmt 1 view .LVU95
 144:Core/Src/main.c ****   for(int i = 0; i < 1024; i++)
 349              		.loc 1 144 13 is_stmt 0 view .LVU96
 350 0076 1A49     		ldr	r1, .L25
 351 0078 0A80     		strh	r2, [r1]	@ movhi
 145:Core/Src/main.c ****   {
 352              		.loc 1 145 3 is_stmt 1 view .LVU97
 353              	.LBB9:
 145:Core/Src/main.c ****   {
 354              		.loc 1 145 7 view .LVU98
 355              	.LVL8:
 145:Core/Src/main.c ****   {
 356              		.loc 1 145 3 is_stmt 0 view .LVU99
 357 007a 03E0     		b	.L13
 358              	.LVL9:
 359              	.L14:
 147:Core/Src/main.c ****   }
 360              		.loc 1 147 5 is_stmt 1 discriminator 3 view .LVU100
 147:Core/Src/main.c ****   }
 361              		.loc 1 147 17 is_stmt 0 discriminator 3 view .LVU101
 362 007c 1A4A     		ldr	r2, .L25+8
 363 007e 0021     		movs	r1, #0
 364 0080 D154     		strb	r1, [r2, r3]
 145:Core/Src/main.c ****   {
 365              		.loc 1 145 29 is_stmt 1 discriminator 3 view .LVU102
 366 0082 0133     		adds	r3, r3, #1
 367              	.LVL10:
 368              	.L13:
 145:Core/Src/main.c ****   {
 369              		.loc 1 145 20 discriminator 1 view .LVU103
 370 0084 B3F5806F 		cmp	r3, #1024
 371 0088 F8DB     		blt	.L14
 372              	.LBE9:
 149:Core/Src/main.c **** }
 373              		.loc 1 149 3 view .LVU104
 149:Core/Src/main.c **** }
 374              		.loc 1 149 17 is_stmt 0 view .LVU105
 375 008a 164B     		ldr	r3, .L25+4
 376              	.LVL11:
 149:Core/Src/main.c **** }
 377              		.loc 1 149 17 view .LVU106
 378 008c 1A78     		ldrb	r2, [r3]	@ zero_extendqisi2
 149:Core/Src/main.c **** }
 379              		.loc 1 149 15 view .LVU107
 380 008e 164B     		ldr	r3, .L25+8
 381 0090 1A70     		strb	r2, [r3]
 382 0092 C0E7     		b	.L12
 383              	.LVL12:
 384              	.L22:
 152:Core/Src/main.c **** {
ARM GAS  C:\Users\igorn\AppData\Local\Temp\ccokbHy1.s 			page 18


 385              		.loc 1 152 46 discriminator 2 view .LVU108
 386 0094 194B     		ldr	r3, .L25+28
 387 0096 1B78     		ldrb	r3, [r3]	@ zero_extendqisi2
 152:Core/Src/main.c **** {
 388              		.loc 1 152 43 discriminator 2 view .LVU109
 389 0098 002B     		cmp	r3, #0
 390 009a C3D1     		bne	.L15
 154:Core/Src/main.c **** }
 391              		.loc 1 154 3 is_stmt 1 view .LVU110
 154:Core/Src/main.c **** }
 392              		.loc 1 154 20 is_stmt 0 view .LVU111
 393 009c 114B     		ldr	r3, .L25+4
 394 009e 1978     		ldrb	r1, [r3]	@ zero_extendqisi2
 154:Core/Src/main.c **** }
 395              		.loc 1 154 18 view .LVU112
 396 00a0 174B     		ldr	r3, .L25+32
 397 00a2 5970     		strb	r1, [r3, #1]
 398 00a4 BEE7     		b	.L15
 399              	.L23:
 157:Core/Src/main.c **** {
 400              		.loc 1 157 46 discriminator 2 view .LVU113
 401 00a6 154B     		ldr	r3, .L25+28
 402 00a8 1B78     		ldrb	r3, [r3]	@ zero_extendqisi2
 157:Core/Src/main.c **** {
 403              		.loc 1 157 43 discriminator 2 view .LVU114
 404 00aa 002B     		cmp	r3, #0
 405 00ac BFD1     		bne	.L16
 159:Core/Src/main.c ****   expectedMessageLenght = value.data;
 406              		.loc 1 159 3 is_stmt 1 view .LVU115
 159:Core/Src/main.c ****   expectedMessageLenght = value.data;
 407              		.loc 1 159 20 is_stmt 0 view .LVU116
 408 00ae 0D4B     		ldr	r3, .L25+4
 409 00b0 1978     		ldrb	r1, [r3]	@ zero_extendqisi2
 159:Core/Src/main.c ****   expectedMessageLenght = value.data;
 410              		.loc 1 159 18 view .LVU117
 411 00b2 134B     		ldr	r3, .L25+32
 412 00b4 1970     		strb	r1, [r3]
 160:Core/Src/main.c ****   bufferCommand = true;
 413              		.loc 1 160 3 is_stmt 1 view .LVU118
 160:Core/Src/main.c ****   bufferCommand = true;
 414              		.loc 1 160 32 is_stmt 0 view .LVU119
 415 00b6 1988     		ldrh	r1, [r3]
 160:Core/Src/main.c ****   bufferCommand = true;
 416              		.loc 1 160 25 view .LVU120
 417 00b8 0E4B     		ldr	r3, .L25+20
 418 00ba 1960     		str	r1, [r3]
 161:Core/Src/main.c **** }
 419              		.loc 1 161 3 is_stmt 1 view .LVU121
 161:Core/Src/main.c **** }
 420              		.loc 1 161 17 is_stmt 0 view .LVU122
 421 00bc 0F4B     		ldr	r3, .L25+28
 422 00be 0121     		movs	r1, #1
 423 00c0 1970     		strb	r1, [r3]
 424 00c2 B4E7     		b	.L16
 425              	.L24:
 171:Core/Src/main.c **** {
 426              		.loc 1 171 65 discriminator 2 view .LVU123
ARM GAS  C:\Users\igorn\AppData\Local\Temp\ccokbHy1.s 			page 19


 427 00c4 0D4B     		ldr	r3, .L25+28
 428 00c6 1B78     		ldrb	r3, [r3]	@ zero_extendqisi2
 429 00c8 002B     		cmp	r3, #0
 430 00ca C1D0     		beq	.L18
 173:Core/Src/main.c ****   bufferCommand = false;
 431              		.loc 1 173 3 is_stmt 1 view .LVU124
 432 00cc 0548     		ldr	r0, .L25+4
 433 00ce FFF7FEFF 		bl	ReceiveReset
 434              	.LVL13:
 174:Core/Src/main.c ****   startReceive = false;
 435              		.loc 1 174 3 view .LVU125
 174:Core/Src/main.c ****   startReceive = false;
 436              		.loc 1 174 17 is_stmt 0 view .LVU126
 437 00d2 0023     		movs	r3, #0
 438 00d4 094A     		ldr	r2, .L25+28
 439 00d6 1370     		strb	r3, [r2]
 175:Core/Src/main.c **** }
 440              		.loc 1 175 3 is_stmt 1 view .LVU127
 175:Core/Src/main.c **** }
 441              		.loc 1 175 16 is_stmt 0 view .LVU128
 442 00d8 044A     		ldr	r2, .L25+12
 443 00da 1370     		strb	r3, [r2]
 444 00dc BBE7     		b	.L19
 445              	.L26:
 446 00de 00BF     		.align	2
 447              	.L25:
 448 00e0 00000000 		.word	fuckIndex
 449 00e4 00000000 		.word	rx_buff
 450 00e8 00000000 		.word	fuckBuff
 451 00ec 00000000 		.word	startReceive
 452 00f0 00000000 		.word	currMessageLenght
 453 00f4 00000000 		.word	expectedMessageLenght
 454 00f8 00000000 		.word	huart2
 455 00fc 00000000 		.word	bufferCommand
 456 0100 00000000 		.word	value
 457              		.cfi_endproc
 458              	.LFE132:
 460              		.section	.text.SysTick_Handler,"ax",%progbits
 461              		.align	1
 462              		.global	SysTick_Handler
 463              		.syntax unified
 464              		.thumb
 465              		.thumb_func
 467              	SysTick_Handler:
 468              	.LFB140:
 524:Core/Src/main.c **** 
 525:Core/Src/main.c **** /* USER CODE BEGIN 4 */
 526:Core/Src/main.c **** void SysTick_Handler(void)
 527:Core/Src/main.c **** {
 469              		.loc 1 527 1 is_stmt 1 view -0
 470              		.cfi_startproc
 471              		@ args = 0, pretend = 0, frame = 0
 472              		@ frame_needed = 0, uses_anonymous_args = 0
 473 0000 08B5     		push	{r3, lr}
 474              		.cfi_def_cfa_offset 8
 475              		.cfi_offset 3, -8
 476              		.cfi_offset 14, -4
ARM GAS  C:\Users\igorn\AppData\Local\Temp\ccokbHy1.s 			page 20


 528:Core/Src/main.c ****   /* USER CODE BEGIN SysTick_IRQn 0 */
 529:Core/Src/main.c **** 
 530:Core/Src/main.c ****   /* USER CODE END SysTick_IRQn 0 */
 531:Core/Src/main.c ****   HAL_IncTick();
 477              		.loc 1 531 3 view .LVU130
 478 0002 FFF7FEFF 		bl	HAL_IncTick
 479              	.LVL14:
 532:Core/Src/main.c ****   /* USER CODE BEGIN SysTick_IRQn 1 */
 533:Core/Src/main.c **** 
 534:Core/Src/main.c ****   NOS_TimeEvent_TickHandler(&tetrisUpdateEvent);
 480              		.loc 1 534 3 view .LVU131
 481 0006 0D48     		ldr	r0, .L31
 482 0008 FFF7FEFF 		bl	NOS_TimeEvent_TickHandler
 483              	.LVL15:
 535:Core/Src/main.c ****   NOS_TimeEvent_TickHandler(&screenUpdateEvent);
 484              		.loc 1 535 3 view .LVU132
 485 000c 0C48     		ldr	r0, .L31+4
 486 000e FFF7FEFF 		bl	NOS_TimeEvent_TickHandler
 487              	.LVL16:
 536:Core/Src/main.c ****   NOS_TimeEvent_TickHandler(&uartTestEvent);
 488              		.loc 1 536 3 view .LVU133
 489 0012 0C48     		ldr	r0, .L31+8
 490 0014 FFF7FEFF 		bl	NOS_TimeEvent_TickHandler
 491              	.LVL17:
 537:Core/Src/main.c ****   buttonDelay++;
 492              		.loc 1 537 3 view .LVU134
 493              		.loc 1 537 14 is_stmt 0 view .LVU135
 494 0018 0B4A     		ldr	r2, .L31+12
 495 001a 1368     		ldr	r3, [r2]
 496 001c 0133     		adds	r3, r3, #1
 497 001e 1360     		str	r3, [r2]
 538:Core/Src/main.c ****   if(buttonDelay > 200)
 498              		.loc 1 538 3 is_stmt 1 view .LVU136
 499              		.loc 1 538 5 is_stmt 0 view .LVU137
 500 0020 C82B     		cmp	r3, #200
 501 0022 04DC     		bgt	.L30
 502              	.L28:
 539:Core/Src/main.c ****   {
 540:Core/Src/main.c ****       NOS_Button_TimerHandler(&button);
 541:Core/Src/main.c ****       buttonDelay = 0;
 542:Core/Src/main.c ****   }
 543:Core/Src/main.c **** 
 544:Core/Src/main.c ****   receiveTime++;
 503              		.loc 1 544 3 is_stmt 1 view .LVU138
 504              		.loc 1 544 14 is_stmt 0 view .LVU139
 505 0024 094A     		ldr	r2, .L31+16
 506 0026 1368     		ldr	r3, [r2]
 507 0028 0133     		adds	r3, r3, #1
 508 002a 1360     		str	r3, [r2]
 545:Core/Src/main.c ****   /* USER CODE END SysTick_IRQn 1 */
 546:Core/Src/main.c **** }
 509              		.loc 1 546 1 view .LVU140
 510 002c 08BD     		pop	{r3, pc}
 511              	.L30:
 540:Core/Src/main.c ****       buttonDelay = 0;
 512              		.loc 1 540 7 is_stmt 1 view .LVU141
 513 002e 0848     		ldr	r0, .L31+20
ARM GAS  C:\Users\igorn\AppData\Local\Temp\ccokbHy1.s 			page 21


 514 0030 FFF7FEFF 		bl	NOS_Button_TimerHandler
 515              	.LVL18:
 541:Core/Src/main.c ****   }
 516              		.loc 1 541 7 view .LVU142
 541:Core/Src/main.c ****   }
 517              		.loc 1 541 19 is_stmt 0 view .LVU143
 518 0034 044B     		ldr	r3, .L31+12
 519 0036 0022     		movs	r2, #0
 520 0038 1A60     		str	r2, [r3]
 521 003a F3E7     		b	.L28
 522              	.L32:
 523              		.align	2
 524              	.L31:
 525 003c 00000000 		.word	tetrisUpdateEvent
 526 0040 00000000 		.word	screenUpdateEvent
 527 0044 00000000 		.word	uartTestEvent
 528 0048 00000000 		.word	buttonDelay
 529 004c 00000000 		.word	receiveTime
 530 0050 00000000 		.word	button
 531              		.cfi_endproc
 532              	.LFE140:
 534              		.section	.text.EXTI3_IRQHandler,"ax",%progbits
 535              		.align	1
 536              		.global	EXTI3_IRQHandler
 537              		.syntax unified
 538              		.thumb
 539              		.thumb_func
 541              	EXTI3_IRQHandler:
 542              	.LFB141:
 547:Core/Src/main.c **** 
 548:Core/Src/main.c **** void EXTI3_IRQHandler(void)
 549:Core/Src/main.c **** {
 543              		.loc 1 549 1 is_stmt 1 view -0
 544              		.cfi_startproc
 545              		@ args = 0, pretend = 0, frame = 0
 546              		@ frame_needed = 0, uses_anonymous_args = 0
 547 0000 08B5     		push	{r3, lr}
 548              		.cfi_def_cfa_offset 8
 549              		.cfi_offset 3, -8
 550              		.cfi_offset 14, -4
 550:Core/Src/main.c ****   /* USER CODE BEGIN EXTI3_IRQn 0 */
 551:Core/Src/main.c **** 
 552:Core/Src/main.c ****   /* USER CODE END EXTI3_IRQn 0 */
 553:Core/Src/main.c ****   HAL_GPIO_EXTI_IRQHandler(GPIO_PIN_3);
 551              		.loc 1 553 3 view .LVU145
 552 0002 0820     		movs	r0, #8
 553 0004 FFF7FEFF 		bl	HAL_GPIO_EXTI_IRQHandler
 554              	.LVL19:
 554:Core/Src/main.c ****   /* USER CODE BEGIN EXTI3_IRQn 1 */
 555:Core/Src/main.c **** 
 556:Core/Src/main.c **** 
 557:Core/Src/main.c ****   /* USER CODE END EXTI3_IRQn 1 */
 558:Core/Src/main.c **** }
 555              		.loc 1 558 1 is_stmt 0 view .LVU146
 556 0008 08BD     		pop	{r3, pc}
 557              		.cfi_endproc
 558              	.LFE141:
ARM GAS  C:\Users\igorn\AppData\Local\Temp\ccokbHy1.s 			page 22


 560              		.section	.text.Error_Handler,"ax",%progbits
 561              		.align	1
 562              		.global	Error_Handler
 563              		.syntax unified
 564              		.thumb
 565              		.thumb_func
 567              	Error_Handler:
 568              	.LFB142:
 559:Core/Src/main.c **** 
 560:Core/Src/main.c **** /* USER CODE END 4 */
 561:Core/Src/main.c **** 
 562:Core/Src/main.c **** /**
 563:Core/Src/main.c ****   * @brief  This function is executed in case of error occurrence.
 564:Core/Src/main.c ****   * @retval None
 565:Core/Src/main.c ****   */
 566:Core/Src/main.c **** void Error_Handler(void)
 567:Core/Src/main.c **** {
 569              		.loc 1 567 1 is_stmt 1 view -0
 570              		.cfi_startproc
 571              		@ Volatile: function does not return.
 572              		@ args = 0, pretend = 0, frame = 0
 573              		@ frame_needed = 0, uses_anonymous_args = 0
 574              		@ link register save eliminated.
 568:Core/Src/main.c ****   /* USER CODE BEGIN Error_Handler_Debug */
 569:Core/Src/main.c ****   /* User can add his own implementation to report the HAL error return state */
 570:Core/Src/main.c ****   __disable_irq();
 575              		.loc 1 570 3 view .LVU148
 576              	.LBB10:
 577              	.LBI10:
 578              		.file 2 "Drivers/CMSIS/Include/cmsis_gcc.h"
   1:Drivers/CMSIS/Include/cmsis_gcc.h **** /**************************************************************************//**
   2:Drivers/CMSIS/Include/cmsis_gcc.h ****  * @file     cmsis_gcc.h
   3:Drivers/CMSIS/Include/cmsis_gcc.h ****  * @brief    CMSIS compiler GCC header file
   4:Drivers/CMSIS/Include/cmsis_gcc.h ****  * @version  V5.0.4
   5:Drivers/CMSIS/Include/cmsis_gcc.h ****  * @date     09. April 2018
   6:Drivers/CMSIS/Include/cmsis_gcc.h ****  ******************************************************************************/
   7:Drivers/CMSIS/Include/cmsis_gcc.h **** /*
   8:Drivers/CMSIS/Include/cmsis_gcc.h ****  * Copyright (c) 2009-2018 Arm Limited. All rights reserved.
   9:Drivers/CMSIS/Include/cmsis_gcc.h ****  *
  10:Drivers/CMSIS/Include/cmsis_gcc.h ****  * SPDX-License-Identifier: Apache-2.0
  11:Drivers/CMSIS/Include/cmsis_gcc.h ****  *
  12:Drivers/CMSIS/Include/cmsis_gcc.h ****  * Licensed under the Apache License, Version 2.0 (the License); you may
  13:Drivers/CMSIS/Include/cmsis_gcc.h ****  * not use this file except in compliance with the License.
  14:Drivers/CMSIS/Include/cmsis_gcc.h ****  * You may obtain a copy of the License at
  15:Drivers/CMSIS/Include/cmsis_gcc.h ****  *
  16:Drivers/CMSIS/Include/cmsis_gcc.h ****  * www.apache.org/licenses/LICENSE-2.0
  17:Drivers/CMSIS/Include/cmsis_gcc.h ****  *
  18:Drivers/CMSIS/Include/cmsis_gcc.h ****  * Unless required by applicable law or agreed to in writing, software
  19:Drivers/CMSIS/Include/cmsis_gcc.h ****  * distributed under the License is distributed on an AS IS BASIS, WITHOUT
  20:Drivers/CMSIS/Include/cmsis_gcc.h ****  * WARRANTIES OR CONDITIONS OF ANY KIND, either express or implied.
  21:Drivers/CMSIS/Include/cmsis_gcc.h ****  * See the License for the specific language governing permissions and
  22:Drivers/CMSIS/Include/cmsis_gcc.h ****  * limitations under the License.
  23:Drivers/CMSIS/Include/cmsis_gcc.h ****  */
  24:Drivers/CMSIS/Include/cmsis_gcc.h **** 
  25:Drivers/CMSIS/Include/cmsis_gcc.h **** #ifndef __CMSIS_GCC_H
  26:Drivers/CMSIS/Include/cmsis_gcc.h **** #define __CMSIS_GCC_H
  27:Drivers/CMSIS/Include/cmsis_gcc.h **** 
ARM GAS  C:\Users\igorn\AppData\Local\Temp\ccokbHy1.s 			page 23


  28:Drivers/CMSIS/Include/cmsis_gcc.h **** /* ignore some GCC warnings */
  29:Drivers/CMSIS/Include/cmsis_gcc.h **** #pragma GCC diagnostic push
  30:Drivers/CMSIS/Include/cmsis_gcc.h **** #pragma GCC diagnostic ignored "-Wsign-conversion"
  31:Drivers/CMSIS/Include/cmsis_gcc.h **** #pragma GCC diagnostic ignored "-Wconversion"
  32:Drivers/CMSIS/Include/cmsis_gcc.h **** #pragma GCC diagnostic ignored "-Wunused-parameter"
  33:Drivers/CMSIS/Include/cmsis_gcc.h **** 
  34:Drivers/CMSIS/Include/cmsis_gcc.h **** /* Fallback for __has_builtin */
  35:Drivers/CMSIS/Include/cmsis_gcc.h **** #ifndef __has_builtin
  36:Drivers/CMSIS/Include/cmsis_gcc.h ****   #define __has_builtin(x) (0)
  37:Drivers/CMSIS/Include/cmsis_gcc.h **** #endif
  38:Drivers/CMSIS/Include/cmsis_gcc.h **** 
  39:Drivers/CMSIS/Include/cmsis_gcc.h **** /* CMSIS compiler specific defines */
  40:Drivers/CMSIS/Include/cmsis_gcc.h **** #ifndef   __ASM
  41:Drivers/CMSIS/Include/cmsis_gcc.h ****   #define __ASM                                  __asm
  42:Drivers/CMSIS/Include/cmsis_gcc.h **** #endif
  43:Drivers/CMSIS/Include/cmsis_gcc.h **** #ifndef   __INLINE
  44:Drivers/CMSIS/Include/cmsis_gcc.h ****   #define __INLINE                               inline
  45:Drivers/CMSIS/Include/cmsis_gcc.h **** #endif
  46:Drivers/CMSIS/Include/cmsis_gcc.h **** #ifndef   __STATIC_INLINE
  47:Drivers/CMSIS/Include/cmsis_gcc.h ****   #define __STATIC_INLINE                        static inline
  48:Drivers/CMSIS/Include/cmsis_gcc.h **** #endif
  49:Drivers/CMSIS/Include/cmsis_gcc.h **** #ifndef   __STATIC_FORCEINLINE                 
  50:Drivers/CMSIS/Include/cmsis_gcc.h ****   #define __STATIC_FORCEINLINE                   __attribute__((always_inline)) static inline
  51:Drivers/CMSIS/Include/cmsis_gcc.h **** #endif                                           
  52:Drivers/CMSIS/Include/cmsis_gcc.h **** #ifndef   __NO_RETURN
  53:Drivers/CMSIS/Include/cmsis_gcc.h ****   #define __NO_RETURN                            __attribute__((__noreturn__))
  54:Drivers/CMSIS/Include/cmsis_gcc.h **** #endif
  55:Drivers/CMSIS/Include/cmsis_gcc.h **** #ifndef   __USED
  56:Drivers/CMSIS/Include/cmsis_gcc.h ****   #define __USED                                 __attribute__((used))
  57:Drivers/CMSIS/Include/cmsis_gcc.h **** #endif
  58:Drivers/CMSIS/Include/cmsis_gcc.h **** #ifndef   __WEAK
  59:Drivers/CMSIS/Include/cmsis_gcc.h ****   #define __WEAK                                 __attribute__((weak))
  60:Drivers/CMSIS/Include/cmsis_gcc.h **** #endif
  61:Drivers/CMSIS/Include/cmsis_gcc.h **** #ifndef   __PACKED
  62:Drivers/CMSIS/Include/cmsis_gcc.h ****   #define __PACKED                               __attribute__((packed, aligned(1)))
  63:Drivers/CMSIS/Include/cmsis_gcc.h **** #endif
  64:Drivers/CMSIS/Include/cmsis_gcc.h **** #ifndef   __PACKED_STRUCT
  65:Drivers/CMSIS/Include/cmsis_gcc.h ****   #define __PACKED_STRUCT                        struct __attribute__((packed, aligned(1)))
  66:Drivers/CMSIS/Include/cmsis_gcc.h **** #endif
  67:Drivers/CMSIS/Include/cmsis_gcc.h **** #ifndef   __PACKED_UNION
  68:Drivers/CMSIS/Include/cmsis_gcc.h ****   #define __PACKED_UNION                         union __attribute__((packed, aligned(1)))
  69:Drivers/CMSIS/Include/cmsis_gcc.h **** #endif
  70:Drivers/CMSIS/Include/cmsis_gcc.h **** #ifndef   __UNALIGNED_UINT32        /* deprecated */
  71:Drivers/CMSIS/Include/cmsis_gcc.h ****   #pragma GCC diagnostic push
  72:Drivers/CMSIS/Include/cmsis_gcc.h ****   #pragma GCC diagnostic ignored "-Wpacked"
  73:Drivers/CMSIS/Include/cmsis_gcc.h ****   #pragma GCC diagnostic ignored "-Wattributes"
  74:Drivers/CMSIS/Include/cmsis_gcc.h ****   struct __attribute__((packed)) T_UINT32 { uint32_t v; };
  75:Drivers/CMSIS/Include/cmsis_gcc.h ****   #pragma GCC diagnostic pop
  76:Drivers/CMSIS/Include/cmsis_gcc.h ****   #define __UNALIGNED_UINT32(x)                  (((struct T_UINT32 *)(x))->v)
  77:Drivers/CMSIS/Include/cmsis_gcc.h **** #endif
  78:Drivers/CMSIS/Include/cmsis_gcc.h **** #ifndef   __UNALIGNED_UINT16_WRITE
  79:Drivers/CMSIS/Include/cmsis_gcc.h ****   #pragma GCC diagnostic push
  80:Drivers/CMSIS/Include/cmsis_gcc.h ****   #pragma GCC diagnostic ignored "-Wpacked"
  81:Drivers/CMSIS/Include/cmsis_gcc.h ****   #pragma GCC diagnostic ignored "-Wattributes"
  82:Drivers/CMSIS/Include/cmsis_gcc.h ****   __PACKED_STRUCT T_UINT16_WRITE { uint16_t v; };
  83:Drivers/CMSIS/Include/cmsis_gcc.h ****   #pragma GCC diagnostic pop
  84:Drivers/CMSIS/Include/cmsis_gcc.h ****   #define __UNALIGNED_UINT16_WRITE(addr, val)    (void)((((struct T_UINT16_WRITE *)(void *)(addr))-
ARM GAS  C:\Users\igorn\AppData\Local\Temp\ccokbHy1.s 			page 24


  85:Drivers/CMSIS/Include/cmsis_gcc.h **** #endif
  86:Drivers/CMSIS/Include/cmsis_gcc.h **** #ifndef   __UNALIGNED_UINT16_READ
  87:Drivers/CMSIS/Include/cmsis_gcc.h ****   #pragma GCC diagnostic push
  88:Drivers/CMSIS/Include/cmsis_gcc.h ****   #pragma GCC diagnostic ignored "-Wpacked"
  89:Drivers/CMSIS/Include/cmsis_gcc.h ****   #pragma GCC diagnostic ignored "-Wattributes"
  90:Drivers/CMSIS/Include/cmsis_gcc.h ****   __PACKED_STRUCT T_UINT16_READ { uint16_t v; };
  91:Drivers/CMSIS/Include/cmsis_gcc.h ****   #pragma GCC diagnostic pop
  92:Drivers/CMSIS/Include/cmsis_gcc.h ****   #define __UNALIGNED_UINT16_READ(addr)          (((const struct T_UINT16_READ *)(const void *)(add
  93:Drivers/CMSIS/Include/cmsis_gcc.h **** #endif
  94:Drivers/CMSIS/Include/cmsis_gcc.h **** #ifndef   __UNALIGNED_UINT32_WRITE
  95:Drivers/CMSIS/Include/cmsis_gcc.h ****   #pragma GCC diagnostic push
  96:Drivers/CMSIS/Include/cmsis_gcc.h ****   #pragma GCC diagnostic ignored "-Wpacked"
  97:Drivers/CMSIS/Include/cmsis_gcc.h ****   #pragma GCC diagnostic ignored "-Wattributes"
  98:Drivers/CMSIS/Include/cmsis_gcc.h ****   __PACKED_STRUCT T_UINT32_WRITE { uint32_t v; };
  99:Drivers/CMSIS/Include/cmsis_gcc.h ****   #pragma GCC diagnostic pop
 100:Drivers/CMSIS/Include/cmsis_gcc.h ****   #define __UNALIGNED_UINT32_WRITE(addr, val)    (void)((((struct T_UINT32_WRITE *)(void *)(addr))-
 101:Drivers/CMSIS/Include/cmsis_gcc.h **** #endif
 102:Drivers/CMSIS/Include/cmsis_gcc.h **** #ifndef   __UNALIGNED_UINT32_READ
 103:Drivers/CMSIS/Include/cmsis_gcc.h ****   #pragma GCC diagnostic push
 104:Drivers/CMSIS/Include/cmsis_gcc.h ****   #pragma GCC diagnostic ignored "-Wpacked"
 105:Drivers/CMSIS/Include/cmsis_gcc.h ****   #pragma GCC diagnostic ignored "-Wattributes"
 106:Drivers/CMSIS/Include/cmsis_gcc.h ****   __PACKED_STRUCT T_UINT32_READ { uint32_t v; };
 107:Drivers/CMSIS/Include/cmsis_gcc.h ****   #pragma GCC diagnostic pop
 108:Drivers/CMSIS/Include/cmsis_gcc.h ****   #define __UNALIGNED_UINT32_READ(addr)          (((const struct T_UINT32_READ *)(const void *)(add
 109:Drivers/CMSIS/Include/cmsis_gcc.h **** #endif
 110:Drivers/CMSIS/Include/cmsis_gcc.h **** #ifndef   __ALIGNED
 111:Drivers/CMSIS/Include/cmsis_gcc.h ****   #define __ALIGNED(x)                           __attribute__((aligned(x)))
 112:Drivers/CMSIS/Include/cmsis_gcc.h **** #endif
 113:Drivers/CMSIS/Include/cmsis_gcc.h **** #ifndef   __RESTRICT
 114:Drivers/CMSIS/Include/cmsis_gcc.h ****   #define __RESTRICT                             __restrict
 115:Drivers/CMSIS/Include/cmsis_gcc.h **** #endif
 116:Drivers/CMSIS/Include/cmsis_gcc.h **** 
 117:Drivers/CMSIS/Include/cmsis_gcc.h **** 
 118:Drivers/CMSIS/Include/cmsis_gcc.h **** /* ###########################  Core Function Access  ########################### */
 119:Drivers/CMSIS/Include/cmsis_gcc.h **** /** \ingroup  CMSIS_Core_FunctionInterface
 120:Drivers/CMSIS/Include/cmsis_gcc.h ****     \defgroup CMSIS_Core_RegAccFunctions CMSIS Core Register Access Functions
 121:Drivers/CMSIS/Include/cmsis_gcc.h ****   @{
 122:Drivers/CMSIS/Include/cmsis_gcc.h ****  */
 123:Drivers/CMSIS/Include/cmsis_gcc.h **** 
 124:Drivers/CMSIS/Include/cmsis_gcc.h **** /**
 125:Drivers/CMSIS/Include/cmsis_gcc.h ****   \brief   Enable IRQ Interrupts
 126:Drivers/CMSIS/Include/cmsis_gcc.h ****   \details Enables IRQ interrupts by clearing the I-bit in the CPSR.
 127:Drivers/CMSIS/Include/cmsis_gcc.h ****            Can only be executed in Privileged modes.
 128:Drivers/CMSIS/Include/cmsis_gcc.h ****  */
 129:Drivers/CMSIS/Include/cmsis_gcc.h **** __STATIC_FORCEINLINE void __enable_irq(void)
 130:Drivers/CMSIS/Include/cmsis_gcc.h **** {
 131:Drivers/CMSIS/Include/cmsis_gcc.h ****   __ASM volatile ("cpsie i" : : : "memory");
 132:Drivers/CMSIS/Include/cmsis_gcc.h **** }
 133:Drivers/CMSIS/Include/cmsis_gcc.h **** 
 134:Drivers/CMSIS/Include/cmsis_gcc.h **** 
 135:Drivers/CMSIS/Include/cmsis_gcc.h **** /**
 136:Drivers/CMSIS/Include/cmsis_gcc.h ****   \brief   Disable IRQ Interrupts
 137:Drivers/CMSIS/Include/cmsis_gcc.h ****   \details Disables IRQ interrupts by setting the I-bit in the CPSR.
 138:Drivers/CMSIS/Include/cmsis_gcc.h ****            Can only be executed in Privileged modes.
 139:Drivers/CMSIS/Include/cmsis_gcc.h ****  */
 140:Drivers/CMSIS/Include/cmsis_gcc.h **** __STATIC_FORCEINLINE void __disable_irq(void)
 579              		.loc 2 140 27 view .LVU149
ARM GAS  C:\Users\igorn\AppData\Local\Temp\ccokbHy1.s 			page 25


 580              	.LBB11:
 141:Drivers/CMSIS/Include/cmsis_gcc.h **** {
 142:Drivers/CMSIS/Include/cmsis_gcc.h ****   __ASM volatile ("cpsid i" : : : "memory");
 581              		.loc 2 142 3 view .LVU150
 582              		.syntax unified
 583              	@ 142 "Drivers/CMSIS/Include/cmsis_gcc.h" 1
 584 0000 72B6     		cpsid i
 585              	@ 0 "" 2
 586              		.thumb
 587              		.syntax unified
 588              	.L36:
 589              	.LBE11:
 590              	.LBE10:
 571:Core/Src/main.c ****   while (1)
 591              		.loc 1 571 3 discriminator 1 view .LVU151
 572:Core/Src/main.c ****   {
 573:Core/Src/main.c ****   }
 592              		.loc 1 573 3 discriminator 1 view .LVU152
 571:Core/Src/main.c ****   while (1)
 593              		.loc 1 571 9 discriminator 1 view .LVU153
 594 0002 FEE7     		b	.L36
 595              		.cfi_endproc
 596              	.LFE142:
 598              		.section	.text.MX_USART2_UART_Init,"ax",%progbits
 599              		.align	1
 600              		.syntax unified
 601              		.thumb
 602              		.thumb_func
 604              	MX_USART2_UART_Init:
 605              	.LFB137:
 435:Core/Src/main.c **** 
 606              		.loc 1 435 1 view -0
 607              		.cfi_startproc
 608              		@ args = 0, pretend = 0, frame = 0
 609              		@ frame_needed = 0, uses_anonymous_args = 0
 610 0000 08B5     		push	{r3, lr}
 611              		.cfi_def_cfa_offset 8
 612              		.cfi_offset 3, -8
 613              		.cfi_offset 14, -4
 444:Core/Src/main.c ****   huart2.Init.BaudRate = 115200;
 614              		.loc 1 444 3 view .LVU155
 444:Core/Src/main.c ****   huart2.Init.BaudRate = 115200;
 615              		.loc 1 444 19 is_stmt 0 view .LVU156
 616 0002 0A48     		ldr	r0, .L41
 617 0004 0A4B     		ldr	r3, .L41+4
 618 0006 0360     		str	r3, [r0]
 445:Core/Src/main.c ****   huart2.Init.WordLength = UART_WORDLENGTH_8B;
 619              		.loc 1 445 3 is_stmt 1 view .LVU157
 445:Core/Src/main.c ****   huart2.Init.WordLength = UART_WORDLENGTH_8B;
 620              		.loc 1 445 24 is_stmt 0 view .LVU158
 621 0008 4FF4E133 		mov	r3, #115200
 622 000c 4360     		str	r3, [r0, #4]
 446:Core/Src/main.c ****   huart2.Init.StopBits = UART_STOPBITS_1;
 623              		.loc 1 446 3 is_stmt 1 view .LVU159
 446:Core/Src/main.c ****   huart2.Init.StopBits = UART_STOPBITS_1;
 624              		.loc 1 446 26 is_stmt 0 view .LVU160
 625 000e 0023     		movs	r3, #0
ARM GAS  C:\Users\igorn\AppData\Local\Temp\ccokbHy1.s 			page 26


 626 0010 8360     		str	r3, [r0, #8]
 447:Core/Src/main.c ****   huart2.Init.Parity = UART_PARITY_NONE;
 627              		.loc 1 447 3 is_stmt 1 view .LVU161
 447:Core/Src/main.c ****   huart2.Init.Parity = UART_PARITY_NONE;
 628              		.loc 1 447 24 is_stmt 0 view .LVU162
 629 0012 C360     		str	r3, [r0, #12]
 448:Core/Src/main.c ****   huart2.Init.Mode = UART_MODE_TX_RX;
 630              		.loc 1 448 3 is_stmt 1 view .LVU163
 448:Core/Src/main.c ****   huart2.Init.Mode = UART_MODE_TX_RX;
 631              		.loc 1 448 22 is_stmt 0 view .LVU164
 632 0014 0361     		str	r3, [r0, #16]
 449:Core/Src/main.c ****   huart2.Init.HwFlowCtl = UART_HWCONTROL_NONE;
 633              		.loc 1 449 3 is_stmt 1 view .LVU165
 449:Core/Src/main.c ****   huart2.Init.HwFlowCtl = UART_HWCONTROL_NONE;
 634              		.loc 1 449 20 is_stmt 0 view .LVU166
 635 0016 0C22     		movs	r2, #12
 636 0018 4261     		str	r2, [r0, #20]
 450:Core/Src/main.c ****   huart2.Init.OverSampling = UART_OVERSAMPLING_16;
 637              		.loc 1 450 3 is_stmt 1 view .LVU167
 450:Core/Src/main.c ****   huart2.Init.OverSampling = UART_OVERSAMPLING_16;
 638              		.loc 1 450 25 is_stmt 0 view .LVU168
 639 001a 8361     		str	r3, [r0, #24]
 451:Core/Src/main.c ****   if (HAL_UART_Init(&huart2) != HAL_OK)
 640              		.loc 1 451 3 is_stmt 1 view .LVU169
 451:Core/Src/main.c ****   if (HAL_UART_Init(&huart2) != HAL_OK)
 641              		.loc 1 451 28 is_stmt 0 view .LVU170
 642 001c C361     		str	r3, [r0, #28]
 452:Core/Src/main.c ****   {
 643              		.loc 1 452 3 is_stmt 1 view .LVU171
 452:Core/Src/main.c ****   {
 644              		.loc 1 452 7 is_stmt 0 view .LVU172
 645 001e FFF7FEFF 		bl	HAL_UART_Init
 646              	.LVL20:
 452:Core/Src/main.c ****   {
 647              		.loc 1 452 6 view .LVU173
 648 0022 00B9     		cbnz	r0, .L40
 460:Core/Src/main.c **** 
 649              		.loc 1 460 1 view .LVU174
 650 0024 08BD     		pop	{r3, pc}
 651              	.L40:
 454:Core/Src/main.c ****   }
 652              		.loc 1 454 5 is_stmt 1 view .LVU175
 653 0026 FFF7FEFF 		bl	Error_Handler
 654              	.LVL21:
 655              	.L42:
 656 002a 00BF     		.align	2
 657              	.L41:
 658 002c 00000000 		.word	huart2
 659 0030 00440040 		.word	1073759232
 660              		.cfi_endproc
 661              	.LFE137:
 663              		.section	.text.MX_TIM6_Init,"ax",%progbits
 664              		.align	1
 665              		.syntax unified
 666              		.thumb
 667              		.thumb_func
 669              	MX_TIM6_Init:
ARM GAS  C:\Users\igorn\AppData\Local\Temp\ccokbHy1.s 			page 27


 670              	.LFB136:
 397:Core/Src/main.c **** 
 671              		.loc 1 397 1 view -0
 672              		.cfi_startproc
 673              		@ args = 0, pretend = 0, frame = 8
 674              		@ frame_needed = 0, uses_anonymous_args = 0
 675 0000 00B5     		push	{lr}
 676              		.cfi_def_cfa_offset 4
 677              		.cfi_offset 14, -4
 678 0002 83B0     		sub	sp, sp, #12
 679              		.cfi_def_cfa_offset 16
 403:Core/Src/main.c **** 
 680              		.loc 1 403 3 view .LVU177
 403:Core/Src/main.c **** 
 681              		.loc 1 403 27 is_stmt 0 view .LVU178
 682 0004 0023     		movs	r3, #0
 683 0006 0093     		str	r3, [sp]
 684 0008 0193     		str	r3, [sp, #4]
 408:Core/Src/main.c ****   htim6.Init.Prescaler = 0;
 685              		.loc 1 408 3 is_stmt 1 view .LVU179
 408:Core/Src/main.c ****   htim6.Init.Prescaler = 0;
 686              		.loc 1 408 18 is_stmt 0 view .LVU180
 687 000a 0D48     		ldr	r0, .L49
 688 000c 0D4A     		ldr	r2, .L49+4
 689 000e 0260     		str	r2, [r0]
 409:Core/Src/main.c ****   htim6.Init.CounterMode = TIM_COUNTERMODE_UP;
 690              		.loc 1 409 3 is_stmt 1 view .LVU181
 409:Core/Src/main.c ****   htim6.Init.CounterMode = TIM_COUNTERMODE_UP;
 691              		.loc 1 409 24 is_stmt 0 view .LVU182
 692 0010 4360     		str	r3, [r0, #4]
 410:Core/Src/main.c ****   htim6.Init.Period = 65535;
 693              		.loc 1 410 3 is_stmt 1 view .LVU183
 410:Core/Src/main.c ****   htim6.Init.Period = 65535;
 694              		.loc 1 410 26 is_stmt 0 view .LVU184
 695 0012 8360     		str	r3, [r0, #8]
 411:Core/Src/main.c ****   htim6.Init.AutoReloadPreload = TIM_AUTORELOAD_PRELOAD_DISABLE;
 696              		.loc 1 411 3 is_stmt 1 view .LVU185
 411:Core/Src/main.c ****   htim6.Init.AutoReloadPreload = TIM_AUTORELOAD_PRELOAD_DISABLE;
 697              		.loc 1 411 21 is_stmt 0 view .LVU186
 698 0014 4FF6FF72 		movw	r2, #65535
 699 0018 C260     		str	r2, [r0, #12]
 412:Core/Src/main.c ****   if (HAL_TIM_Base_Init(&htim6) != HAL_OK)
 700              		.loc 1 412 3 is_stmt 1 view .LVU187
 412:Core/Src/main.c ****   if (HAL_TIM_Base_Init(&htim6) != HAL_OK)
 701              		.loc 1 412 32 is_stmt 0 view .LVU188
 702 001a 8361     		str	r3, [r0, #24]
 413:Core/Src/main.c ****   {
 703              		.loc 1 413 3 is_stmt 1 view .LVU189
 413:Core/Src/main.c ****   {
 704              		.loc 1 413 7 is_stmt 0 view .LVU190
 705 001c FFF7FEFF 		bl	HAL_TIM_Base_Init
 706              	.LVL22:
 413:Core/Src/main.c ****   {
 707              		.loc 1 413 6 view .LVU191
 708 0020 50B9     		cbnz	r0, .L47
 417:Core/Src/main.c ****   sMasterConfig.MasterSlaveMode = TIM_MASTERSLAVEMODE_DISABLE;
 709              		.loc 1 417 3 is_stmt 1 view .LVU192
ARM GAS  C:\Users\igorn\AppData\Local\Temp\ccokbHy1.s 			page 28


 417:Core/Src/main.c ****   sMasterConfig.MasterSlaveMode = TIM_MASTERSLAVEMODE_DISABLE;
 710              		.loc 1 417 37 is_stmt 0 view .LVU193
 711 0022 0023     		movs	r3, #0
 712 0024 0093     		str	r3, [sp]
 418:Core/Src/main.c ****   if (HAL_TIMEx_MasterConfigSynchronization(&htim6, &sMasterConfig) != HAL_OK)
 713              		.loc 1 418 3 is_stmt 1 view .LVU194
 418:Core/Src/main.c ****   if (HAL_TIMEx_MasterConfigSynchronization(&htim6, &sMasterConfig) != HAL_OK)
 714              		.loc 1 418 33 is_stmt 0 view .LVU195
 715 0026 0193     		str	r3, [sp, #4]
 419:Core/Src/main.c ****   {
 716              		.loc 1 419 3 is_stmt 1 view .LVU196
 419:Core/Src/main.c ****   {
 717              		.loc 1 419 7 is_stmt 0 view .LVU197
 718 0028 6946     		mov	r1, sp
 719 002a 0548     		ldr	r0, .L49
 720 002c FFF7FEFF 		bl	HAL_TIMEx_MasterConfigSynchronization
 721              	.LVL23:
 419:Core/Src/main.c ****   {
 722              		.loc 1 419 6 view .LVU198
 723 0030 20B9     		cbnz	r0, .L48
 427:Core/Src/main.c **** 
 724              		.loc 1 427 1 view .LVU199
 725 0032 03B0     		add	sp, sp, #12
 726              		.cfi_remember_state
 727              		.cfi_def_cfa_offset 4
 728              		@ sp needed
 729 0034 5DF804FB 		ldr	pc, [sp], #4
 730              	.L47:
 731              		.cfi_restore_state
 415:Core/Src/main.c ****   }
 732              		.loc 1 415 5 is_stmt 1 view .LVU200
 733 0038 FFF7FEFF 		bl	Error_Handler
 734              	.LVL24:
 735              	.L48:
 421:Core/Src/main.c ****   }
 736              		.loc 1 421 5 view .LVU201
 737 003c FFF7FEFF 		bl	Error_Handler
 738              	.LVL25:
 739              	.L50:
 740              		.align	2
 741              	.L49:
 742 0040 00000000 		.word	htim6
 743 0044 00100040 		.word	1073745920
 744              		.cfi_endproc
 745              	.LFE136:
 747              		.section	.text.SystemClock_Config,"ax",%progbits
 748              		.align	1
 749              		.global	SystemClock_Config
 750              		.syntax unified
 751              		.thumb
 752              		.thumb_func
 754              	SystemClock_Config:
 755              	.LFB134:
 313:Core/Src/main.c ****   RCC_OscInitTypeDef RCC_OscInitStruct = {0};
 756              		.loc 1 313 1 view -0
 757              		.cfi_startproc
 758              		@ args = 0, pretend = 0, frame = 80
ARM GAS  C:\Users\igorn\AppData\Local\Temp\ccokbHy1.s 			page 29


 759              		@ frame_needed = 0, uses_anonymous_args = 0
 760 0000 00B5     		push	{lr}
 761              		.cfi_def_cfa_offset 4
 762              		.cfi_offset 14, -4
 763 0002 95B0     		sub	sp, sp, #84
 764              		.cfi_def_cfa_offset 88
 314:Core/Src/main.c ****   RCC_ClkInitTypeDef RCC_ClkInitStruct = {0};
 765              		.loc 1 314 3 view .LVU203
 314:Core/Src/main.c ****   RCC_ClkInitTypeDef RCC_ClkInitStruct = {0};
 766              		.loc 1 314 22 is_stmt 0 view .LVU204
 767 0004 3022     		movs	r2, #48
 768 0006 0021     		movs	r1, #0
 769 0008 08A8     		add	r0, sp, #32
 770 000a FFF7FEFF 		bl	memset
 771              	.LVL26:
 315:Core/Src/main.c **** 
 772              		.loc 1 315 3 is_stmt 1 view .LVU205
 315:Core/Src/main.c **** 
 773              		.loc 1 315 22 is_stmt 0 view .LVU206
 774 000e 0023     		movs	r3, #0
 775 0010 0393     		str	r3, [sp, #12]
 776 0012 0493     		str	r3, [sp, #16]
 777 0014 0593     		str	r3, [sp, #20]
 778 0016 0693     		str	r3, [sp, #24]
 779 0018 0793     		str	r3, [sp, #28]
 319:Core/Src/main.c ****   __HAL_PWR_VOLTAGESCALING_CONFIG(PWR_REGULATOR_VOLTAGE_SCALE1);
 780              		.loc 1 319 3 is_stmt 1 view .LVU207
 781              	.LBB12:
 319:Core/Src/main.c ****   __HAL_PWR_VOLTAGESCALING_CONFIG(PWR_REGULATOR_VOLTAGE_SCALE1);
 782              		.loc 1 319 3 view .LVU208
 783 001a 0193     		str	r3, [sp, #4]
 319:Core/Src/main.c ****   __HAL_PWR_VOLTAGESCALING_CONFIG(PWR_REGULATOR_VOLTAGE_SCALE1);
 784              		.loc 1 319 3 view .LVU209
 785 001c 204A     		ldr	r2, .L57
 786 001e 116C     		ldr	r1, [r2, #64]
 787 0020 41F08051 		orr	r1, r1, #268435456
 788 0024 1164     		str	r1, [r2, #64]
 319:Core/Src/main.c ****   __HAL_PWR_VOLTAGESCALING_CONFIG(PWR_REGULATOR_VOLTAGE_SCALE1);
 789              		.loc 1 319 3 view .LVU210
 790 0026 126C     		ldr	r2, [r2, #64]
 791 0028 02F08052 		and	r2, r2, #268435456
 792 002c 0192     		str	r2, [sp, #4]
 319:Core/Src/main.c ****   __HAL_PWR_VOLTAGESCALING_CONFIG(PWR_REGULATOR_VOLTAGE_SCALE1);
 793              		.loc 1 319 3 view .LVU211
 794 002e 019A     		ldr	r2, [sp, #4]
 795              	.LBE12:
 319:Core/Src/main.c ****   __HAL_PWR_VOLTAGESCALING_CONFIG(PWR_REGULATOR_VOLTAGE_SCALE1);
 796              		.loc 1 319 3 view .LVU212
 320:Core/Src/main.c ****   /** Initializes the RCC Oscillators according to the specified parameters
 797              		.loc 1 320 3 view .LVU213
 798              	.LBB13:
 320:Core/Src/main.c ****   /** Initializes the RCC Oscillators according to the specified parameters
 799              		.loc 1 320 3 view .LVU214
 800 0030 0293     		str	r3, [sp, #8]
 320:Core/Src/main.c ****   /** Initializes the RCC Oscillators according to the specified parameters
 801              		.loc 1 320 3 view .LVU215
 802 0032 1C4A     		ldr	r2, .L57+4
ARM GAS  C:\Users\igorn\AppData\Local\Temp\ccokbHy1.s 			page 30


 803 0034 1168     		ldr	r1, [r2]
 804 0036 41F48041 		orr	r1, r1, #16384
 805 003a 1160     		str	r1, [r2]
 320:Core/Src/main.c ****   /** Initializes the RCC Oscillators according to the specified parameters
 806              		.loc 1 320 3 view .LVU216
 807 003c 1268     		ldr	r2, [r2]
 808 003e 02F48042 		and	r2, r2, #16384
 809 0042 0292     		str	r2, [sp, #8]
 320:Core/Src/main.c ****   /** Initializes the RCC Oscillators according to the specified parameters
 810              		.loc 1 320 3 view .LVU217
 811 0044 029A     		ldr	r2, [sp, #8]
 812              	.LBE13:
 320:Core/Src/main.c ****   /** Initializes the RCC Oscillators according to the specified parameters
 813              		.loc 1 320 3 view .LVU218
 324:Core/Src/main.c ****   RCC_OscInitStruct.HSIState = RCC_HSI_ON;
 814              		.loc 1 324 3 view .LVU219
 324:Core/Src/main.c ****   RCC_OscInitStruct.HSIState = RCC_HSI_ON;
 815              		.loc 1 324 36 is_stmt 0 view .LVU220
 816 0046 0A22     		movs	r2, #10
 817 0048 0892     		str	r2, [sp, #32]
 325:Core/Src/main.c ****   RCC_OscInitStruct.HSICalibrationValue = RCC_HSICALIBRATION_DEFAULT;
 818              		.loc 1 325 3 is_stmt 1 view .LVU221
 325:Core/Src/main.c ****   RCC_OscInitStruct.HSICalibrationValue = RCC_HSICALIBRATION_DEFAULT;
 819              		.loc 1 325 30 is_stmt 0 view .LVU222
 820 004a 0122     		movs	r2, #1
 821 004c 0B92     		str	r2, [sp, #44]
 326:Core/Src/main.c ****   RCC_OscInitStruct.LSIState = RCC_LSI_ON;
 822              		.loc 1 326 3 is_stmt 1 view .LVU223
 326:Core/Src/main.c ****   RCC_OscInitStruct.LSIState = RCC_LSI_ON;
 823              		.loc 1 326 41 is_stmt 0 view .LVU224
 824 004e 1021     		movs	r1, #16
 825 0050 0C91     		str	r1, [sp, #48]
 327:Core/Src/main.c ****   RCC_OscInitStruct.PLL.PLLState = RCC_PLL_ON;
 826              		.loc 1 327 3 is_stmt 1 view .LVU225
 327:Core/Src/main.c ****   RCC_OscInitStruct.PLL.PLLState = RCC_PLL_ON;
 827              		.loc 1 327 30 is_stmt 0 view .LVU226
 828 0052 0D92     		str	r2, [sp, #52]
 328:Core/Src/main.c ****   RCC_OscInitStruct.PLL.PLLSource = RCC_PLLSOURCE_HSI;
 829              		.loc 1 328 3 is_stmt 1 view .LVU227
 328:Core/Src/main.c ****   RCC_OscInitStruct.PLL.PLLSource = RCC_PLLSOURCE_HSI;
 830              		.loc 1 328 34 is_stmt 0 view .LVU228
 831 0054 0222     		movs	r2, #2
 832 0056 0E92     		str	r2, [sp, #56]
 329:Core/Src/main.c ****   RCC_OscInitStruct.PLL.PLLM = 8;
 833              		.loc 1 329 3 is_stmt 1 view .LVU229
 329:Core/Src/main.c ****   RCC_OscInitStruct.PLL.PLLM = 8;
 834              		.loc 1 329 35 is_stmt 0 view .LVU230
 835 0058 0F93     		str	r3, [sp, #60]
 330:Core/Src/main.c ****   RCC_OscInitStruct.PLL.PLLN = 168;
 836              		.loc 1 330 3 is_stmt 1 view .LVU231
 330:Core/Src/main.c ****   RCC_OscInitStruct.PLL.PLLN = 168;
 837              		.loc 1 330 30 is_stmt 0 view .LVU232
 838 005a 0823     		movs	r3, #8
 839 005c 1093     		str	r3, [sp, #64]
 331:Core/Src/main.c ****   RCC_OscInitStruct.PLL.PLLP = RCC_PLLP_DIV2;
 840              		.loc 1 331 3 is_stmt 1 view .LVU233
 331:Core/Src/main.c ****   RCC_OscInitStruct.PLL.PLLP = RCC_PLLP_DIV2;
ARM GAS  C:\Users\igorn\AppData\Local\Temp\ccokbHy1.s 			page 31


 841              		.loc 1 331 30 is_stmt 0 view .LVU234
 842 005e A823     		movs	r3, #168
 843 0060 1193     		str	r3, [sp, #68]
 332:Core/Src/main.c ****   RCC_OscInitStruct.PLL.PLLQ = 4;
 844              		.loc 1 332 3 is_stmt 1 view .LVU235
 332:Core/Src/main.c ****   RCC_OscInitStruct.PLL.PLLQ = 4;
 845              		.loc 1 332 30 is_stmt 0 view .LVU236
 846 0062 1292     		str	r2, [sp, #72]
 333:Core/Src/main.c ****   if (HAL_RCC_OscConfig(&RCC_OscInitStruct) != HAL_OK)
 847              		.loc 1 333 3 is_stmt 1 view .LVU237
 333:Core/Src/main.c ****   if (HAL_RCC_OscConfig(&RCC_OscInitStruct) != HAL_OK)
 848              		.loc 1 333 30 is_stmt 0 view .LVU238
 849 0064 0423     		movs	r3, #4
 850 0066 1393     		str	r3, [sp, #76]
 334:Core/Src/main.c ****   {
 851              		.loc 1 334 3 is_stmt 1 view .LVU239
 334:Core/Src/main.c ****   {
 852              		.loc 1 334 7 is_stmt 0 view .LVU240
 853 0068 08A8     		add	r0, sp, #32
 854 006a FFF7FEFF 		bl	HAL_RCC_OscConfig
 855              	.LVL27:
 334:Core/Src/main.c ****   {
 856              		.loc 1 334 6 view .LVU241
 857 006e 98B9     		cbnz	r0, .L55
 340:Core/Src/main.c ****   RCC_ClkInitStruct.SYSCLKSource = RCC_SYSCLKSOURCE_PLLCLK;
 858              		.loc 1 340 3 is_stmt 1 view .LVU242
 340:Core/Src/main.c ****   RCC_ClkInitStruct.SYSCLKSource = RCC_SYSCLKSOURCE_PLLCLK;
 859              		.loc 1 340 31 is_stmt 0 view .LVU243
 860 0070 0F23     		movs	r3, #15
 861 0072 0393     		str	r3, [sp, #12]
 341:Core/Src/main.c ****   RCC_ClkInitStruct.AHBCLKDivider = RCC_SYSCLK_DIV1;
 862              		.loc 1 341 3 is_stmt 1 view .LVU244
 341:Core/Src/main.c ****   RCC_ClkInitStruct.AHBCLKDivider = RCC_SYSCLK_DIV1;
 863              		.loc 1 341 34 is_stmt 0 view .LVU245
 864 0074 0223     		movs	r3, #2
 865 0076 0493     		str	r3, [sp, #16]
 342:Core/Src/main.c ****   RCC_ClkInitStruct.APB1CLKDivider = RCC_HCLK_DIV4;
 866              		.loc 1 342 3 is_stmt 1 view .LVU246
 342:Core/Src/main.c ****   RCC_ClkInitStruct.APB1CLKDivider = RCC_HCLK_DIV4;
 867              		.loc 1 342 35 is_stmt 0 view .LVU247
 868 0078 0023     		movs	r3, #0
 869 007a 0593     		str	r3, [sp, #20]
 343:Core/Src/main.c ****   RCC_ClkInitStruct.APB2CLKDivider = RCC_HCLK_DIV2;
 870              		.loc 1 343 3 is_stmt 1 view .LVU248
 343:Core/Src/main.c ****   RCC_ClkInitStruct.APB2CLKDivider = RCC_HCLK_DIV2;
 871              		.loc 1 343 36 is_stmt 0 view .LVU249
 872 007c 4FF4A053 		mov	r3, #5120
 873 0080 0693     		str	r3, [sp, #24]
 344:Core/Src/main.c **** 
 874              		.loc 1 344 3 is_stmt 1 view .LVU250
 344:Core/Src/main.c **** 
 875              		.loc 1 344 36 is_stmt 0 view .LVU251
 876 0082 4FF48053 		mov	r3, #4096
 877 0086 0793     		str	r3, [sp, #28]
 346:Core/Src/main.c ****   {
 878              		.loc 1 346 3 is_stmt 1 view .LVU252
 346:Core/Src/main.c ****   {
ARM GAS  C:\Users\igorn\AppData\Local\Temp\ccokbHy1.s 			page 32


 879              		.loc 1 346 7 is_stmt 0 view .LVU253
 880 0088 0521     		movs	r1, #5
 881 008a 03A8     		add	r0, sp, #12
 882 008c FFF7FEFF 		bl	HAL_RCC_ClockConfig
 883              	.LVL28:
 346:Core/Src/main.c ****   {
 884              		.loc 1 346 6 view .LVU254
 885 0090 20B9     		cbnz	r0, .L56
 350:Core/Src/main.c **** 
 886              		.loc 1 350 1 view .LVU255
 887 0092 15B0     		add	sp, sp, #84
 888              		.cfi_remember_state
 889              		.cfi_def_cfa_offset 4
 890              		@ sp needed
 891 0094 5DF804FB 		ldr	pc, [sp], #4
 892              	.L55:
 893              		.cfi_restore_state
 336:Core/Src/main.c ****   }
 894              		.loc 1 336 5 is_stmt 1 view .LVU256
 895 0098 FFF7FEFF 		bl	Error_Handler
 896              	.LVL29:
 897              	.L56:
 348:Core/Src/main.c ****   }
 898              		.loc 1 348 5 view .LVU257
 899 009c FFF7FEFF 		bl	Error_Handler
 900              	.LVL30:
 901              	.L58:
 902              		.align	2
 903              	.L57:
 904 00a0 00380240 		.word	1073887232
 905 00a4 00700040 		.word	1073770496
 906              		.cfi_endproc
 907              	.LFE134:
 909              		.section	.rodata.main.str1.4,"aMS",%progbits,1
 910              		.align	2
 911              	.LC0:
 912 0000 48454C4C 		.ascii	"HELLO\000"
 912      4F00
 913 0006 0000     		.align	2
 914              	.LC2:
 915 0008 72656164 		.ascii	"ready!\000"
 915      792100
 916 000f 00       		.align	2
 917              	.LC1:
 918 0010 52656369 		.ascii	"Recieved!\000"
 918      65766564 
 918      2100
 919              		.section	.text.main,"ax",%progbits
 920              		.align	1
 921              		.global	main
 922              		.syntax unified
 923              		.thumb
 924              		.thumb_func
 926              	main:
 927              	.LFB133:
 191:Core/Src/main.c ****   /* USER CODE BEGIN 1 */
 928              		.loc 1 191 1 view -0
ARM GAS  C:\Users\igorn\AppData\Local\Temp\ccokbHy1.s 			page 33


 929              		.cfi_startproc
 930              		@ args = 0, pretend = 0, frame = 16
 931              		@ frame_needed = 0, uses_anonymous_args = 0
 932 0000 10B5     		push	{r4, lr}
 933              		.cfi_def_cfa_offset 8
 934              		.cfi_offset 4, -8
 935              		.cfi_offset 14, -4
 936 0002 84B0     		sub	sp, sp, #16
 937              		.cfi_def_cfa_offset 24
 199:Core/Src/main.c **** 
 938              		.loc 1 199 3 view .LVU259
 939 0004 FFF7FEFF 		bl	HAL_Init
 940              	.LVL31:
 206:Core/Src/main.c **** 
 941              		.loc 1 206 3 view .LVU260
 942 0008 FFF7FEFF 		bl	SystemClock_Config
 943              	.LVL32:
 213:Core/Src/main.c ****   MX_USART2_UART_Init();
 944              		.loc 1 213 3 view .LVU261
 945 000c FFF7FEFF 		bl	MX_GPIO_Init
 946              	.LVL33:
 214:Core/Src/main.c ****   MX_TIM6_Init();
 947              		.loc 1 214 3 view .LVU262
 948 0010 FFF7FEFF 		bl	MX_USART2_UART_Init
 949              	.LVL34:
 215:Core/Src/main.c ****   //MX_SPI1_Init();
 950              		.loc 1 215 3 view .LVU263
 951 0014 FFF7FEFF 		bl	MX_TIM6_Init
 952              	.LVL35:
 219:Core/Src/main.c ****   HAL_UART_Transmit(&huart2,"HELLO",sizeof("HELLO"),1000);
 953              		.loc 1 219 3 view .LVU264
 954 0018 534C     		ldr	r4, .L75
 955 001a 0122     		movs	r2, #1
 956 001c 5349     		ldr	r1, .L75+4
 957 001e 2046     		mov	r0, r4
 958 0020 FFF7FEFF 		bl	HAL_UART_Receive_IT
 959              	.LVL36:
 220:Core/Src/main.c ****   visInit();
 960              		.loc 1 220 3 view .LVU265
 961 0024 4FF47A73 		mov	r3, #1000
 962 0028 0622     		movs	r2, #6
 963 002a 5149     		ldr	r1, .L75+8
 964 002c 2046     		mov	r0, r4
 965 002e FFF7FEFF 		bl	HAL_UART_Transmit
 966              	.LVL37:
 221:Core/Src/main.c **** 
 967              		.loc 1 221 3 view .LVU266
 968 0032 FFF7FEFF 		bl	visInit
 969              	.LVL38:
 223:Core/Src/main.c **** 
 970              		.loc 1 223 3 view .LVU267
 971 0036 8023     		movs	r3, #128
 972 0038 4E4A     		ldr	r2, .L75+12
 973 003a 4F49     		ldr	r1, .L75+16
 974 003c 4F48     		ldr	r0, .L75+20
 975 003e FFF7FEFF 		bl	NOS_WS2812B_Strip_FullInit
 976              	.LVL39:
ARM GAS  C:\Users\igorn\AppData\Local\Temp\ccokbHy1.s 			page 34


 225:Core/Src/main.c ****   NOS_TimeEvent_Init(&screenUpdateEvent, 20);
 977              		.loc 1 225 3 view .LVU268
 978 0042 3221     		movs	r1, #50
 979 0044 4E48     		ldr	r0, .L75+24
 980 0046 FFF7FEFF 		bl	NOS_TimeEvent_Init
 981              	.LVL40:
 226:Core/Src/main.c ****   NOS_TimeEvent_Init(&uartTestEvent, 1000);
 982              		.loc 1 226 3 view .LVU269
 983 004a 1421     		movs	r1, #20
 984 004c 4D48     		ldr	r0, .L75+28
 985 004e FFF7FEFF 		bl	NOS_TimeEvent_Init
 986              	.LVL41:
 227:Core/Src/main.c ****   //NOS_WS2812B_Strip_TestFill(&stripA);
 987              		.loc 1 227 3 view .LVU270
 988 0052 4FF47A71 		mov	r1, #1000
 989 0056 4C48     		ldr	r0, .L75+32
 990 0058 FFF7FEFF 		bl	NOS_TimeEvent_Init
 991              	.LVL42:
 230:Core/Src/main.c **** 
 992              		.loc 1 230 3 view .LVU271
 993 005c 0123     		movs	r3, #1
 994 005e 4B22     		movs	r2, #75
 995 0060 4121     		movs	r1, #65
 996 0062 4A48     		ldr	r0, .L75+36
 997 0064 FFF7FEFF 		bl	NOS_Math_SinValue_Init
 998              	.LVL43:
 232:Core/Src/main.c **** 
 999              		.loc 1 232 3 view .LVU272
 1000 0068 4948     		ldr	r0, .L75+40
 1001 006a FFF7FEFF 		bl	NOS_Button_Init
 1002              	.LVL44:
 234:Core/Src/main.c ****   NOS_GPIO_PinInit(&PA7,GPIOA,GPIO_PIN_7,0);
 1003              		.loc 1 234 3 view .LVU273
 1004 006e 494C     		ldr	r4, .L75+44
 1005 0070 0023     		movs	r3, #0
 1006 0072 4022     		movs	r2, #64
 1007 0074 2146     		mov	r1, r4
 1008 0076 4848     		ldr	r0, .L75+48
 1009 0078 FFF7FEFF 		bl	NOS_GPIO_PinInit
 1010              	.LVL45:
 235:Core/Src/main.c **** 
 1011              		.loc 1 235 3 view .LVU274
 1012 007c 0023     		movs	r3, #0
 1013 007e 8022     		movs	r2, #128
 1014 0080 2146     		mov	r1, r4
 1015 0082 4648     		ldr	r0, .L75+52
 1016 0084 FFF7FEFF 		bl	NOS_GPIO_PinInit
 1017              	.LVL46:
 1018 0088 4CE0     		b	.L60
 1019              	.L72:
 1020              	.LBB14:
 248:Core/Src/main.c ****       uint32_t buff = 0; 
 1021              		.loc 1 248 7 view .LVU275
 248:Core/Src/main.c ****       uint32_t buff = 0; 
 1022              		.loc 1 248 12 is_stmt 0 view .LVU276
 1023 008a 454A     		ldr	r2, .L75+56
 1024 008c 01AB     		add	r3, sp, #4
ARM GAS  C:\Users\igorn\AppData\Local\Temp\ccokbHy1.s 			page 35


 1025 008e 07CA     		ldm	r2, {r0, r1, r2}
 1026 0090 03C3     		stmia	r3!, {r0, r1}
 1027 0092 1A80     		strh	r2, [r3]	@ movhi
 249:Core/Src/main.c **** 
 1028              		.loc 1 249 7 is_stmt 1 view .LVU277
 1029              	.LVL47:
 251:Core/Src/main.c ****       {
 1030              		.loc 1 251 7 view .LVU278
 251:Core/Src/main.c ****       {
 1031              		.loc 1 251 10 is_stmt 0 view .LVU279
 1032 0094 4349     		ldr	r1, .L75+60
 1033 0096 3948     		ldr	r0, .L75+20
 1034 0098 FFF7FEFF 		bl	NOS_Strip_Uart_ParseCommand
 1035              	.LVL48:
 251:Core/Src/main.c ****       {
 1036              		.loc 1 251 9 view .LVU280
 1037 009c 424B     		ldr	r3, .L75+64
 1038 009e 8342     		cmp	r3, r0
 1039 00a0 03D0     		beq	.L71
 1040              	.L62:
 256:Core/Src/main.c ****     }
 1041              		.loc 1 256 7 is_stmt 1 view .LVU281
 256:Core/Src/main.c ****     }
 1042              		.loc 1 256 15 is_stmt 0 view .LVU282
 1043 00a2 424B     		ldr	r3, .L75+68
 1044 00a4 0022     		movs	r2, #0
 1045 00a6 1A70     		strb	r2, [r3]
 1046 00a8 40E0     		b	.L61
 1047              	.L71:
 253:Core/Src/main.c ****       }
 1048              		.loc 1 253 9 is_stmt 1 view .LVU283
 1049 00aa 4FF47A73 		mov	r3, #1000
 1050 00ae 0722     		movs	r2, #7
 1051 00b0 3D49     		ldr	r1, .L75+64
 1052 00b2 2D48     		ldr	r0, .L75
 1053 00b4 FFF7FEFF 		bl	HAL_UART_Transmit
 1054              	.LVL49:
 1055 00b8 F3E7     		b	.L62
 1056              	.LVL50:
 1057              	.L73:
 253:Core/Src/main.c ****       }
 1058              		.loc 1 253 9 is_stmt 0 view .LVU284
 1059              	.LBE14:
 261:Core/Src/main.c ****       NOS_TimeEvent_FinishEvent(&tetrisUpdateEvent);
 1060              		.loc 1 261 7 is_stmt 1 view .LVU285
 1061 00ba 3448     		ldr	r0, .L75+36
 1062 00bc FFF7FEFF 		bl	NOS_Math_SinValue_Handler
 1063              	.LVL51:
 262:Core/Src/main.c ****     }
 1064              		.loc 1 262 7 view .LVU286
 1065 00c0 2F48     		ldr	r0, .L75+24
 1066 00c2 FFF7FEFF 		bl	NOS_TimeEvent_FinishEvent
 1067              	.LVL52:
 1068 00c6 36E0     		b	.L63
 1069              	.L74:
 268:Core/Src/main.c ****       visHandle();
 1070              		.loc 1 268 7 view .LVU287
ARM GAS  C:\Users\igorn\AppData\Local\Temp\ccokbHy1.s 			page 36


 1071 00c8 2C48     		ldr	r0, .L75+20
 1072 00ca FFF7FEFF 		bl	NOS_WS2812B_Strip_Update
 1073              	.LVL53:
 269:Core/Src/main.c **** 
 1074              		.loc 1 269 7 view .LVU288
 1075 00ce FFF7FEFF 		bl	visHandle
 1076              	.LVL54:
 271:Core/Src/main.c ****     }
 1077              		.loc 1 271 7 view .LVU289
 1078 00d2 2C48     		ldr	r0, .L75+28
 1079 00d4 FFF7FEFF 		bl	NOS_TimeEvent_FinishEvent
 1080              	.LVL55:
 1081 00d8 32E0     		b	.L64
 1082              	.L66:
 282:Core/Src/main.c ****       }
 1083              		.loc 1 282 9 view .LVU290
 282:Core/Src/main.c ****       }
 1084              		.loc 1 282 19 is_stmt 0 view .LVU291
 1085 00da 354B     		ldr	r3, .L75+72
 1086 00dc 0022     		movs	r2, #0
 1087 00de 1A60     		str	r2, [r3]
 1088              	.L67:
 285:Core/Src/main.c ****       NOS_Button_PressDoneHandler(&button);
 1089              		.loc 1 285 7 is_stmt 1 view .LVU292
 1090 00e0 3449     		ldr	r1, .L75+76
 1091 00e2 334B     		ldr	r3, .L75+72
 1092 00e4 1B68     		ldr	r3, [r3]
 1093 00e6 03EB4303 		add	r3, r3, r3, lsl #1
 1094 00ea CA18     		adds	r2, r1, r3
 1095 00ec CB5C     		ldrb	r3, [r1, r3]	@ zero_extendqisi2
 1096 00ee 5178     		ldrb	r1, [r2, #1]	@ zero_extendqisi2
 1097 00f0 43EA0123 		orr	r3, r3, r1, lsl #8
 1098 00f4 9178     		ldrb	r1, [r2, #2]	@ zero_extendqisi2
 1099 00f6 43EA0141 		orr	r1, r3, r1, lsl #16
 1100 00fa 2048     		ldr	r0, .L75+20
 1101 00fc FFF7FEFF 		bl	NOS_WS2812B_Strip_ColorFill
 1102              	.LVL56:
 286:Core/Src/main.c ****       HAL_GPIO_TogglePin(PA6.Port,PA6.Pin);
 1103              		.loc 1 286 7 view .LVU293
 1104 0100 2348     		ldr	r0, .L75+40
 1105 0102 FFF7FEFF 		bl	NOS_Button_PressDoneHandler
 1106              	.LVL57:
 287:Core/Src/main.c ****     }
 1107              		.loc 1 287 7 view .LVU294
 1108 0106 244B     		ldr	r3, .L75+48
 1109 0108 9988     		ldrh	r1, [r3, #4]
 1110 010a 1868     		ldr	r0, [r3]
 1111 010c FFF7FEFF 		bl	HAL_GPIO_TogglePin
 1112              	.LVL58:
 1113              	.L65:
 290:Core/Src/main.c ****     {
 1114              		.loc 1 290 5 view .LVU295
 290:Core/Src/main.c ****     {
 1115              		.loc 1 290 8 is_stmt 0 view .LVU296
 1116 0110 1F48     		ldr	r0, .L75+40
 1117 0112 FFF7FEFF 		bl	NOS_Button_isPressed
 1118              	.LVL59:
ARM GAS  C:\Users\igorn\AppData\Local\Temp\ccokbHy1.s 			page 37


 290:Core/Src/main.c ****     {
 1119              		.loc 1 290 7 view .LVU297
 1120 0116 00B3     		cbz	r0, .L68
 292:Core/Src/main.c ****     }
 1121              		.loc 1 292 7 is_stmt 1 view .LVU298
 1122 0118 204B     		ldr	r3, .L75+52
 1123 011a 0022     		movs	r2, #0
 1124 011c 9988     		ldrh	r1, [r3, #4]
 1125 011e 1868     		ldr	r0, [r3]
 1126 0120 FFF7FEFF 		bl	HAL_GPIO_WritePin
 1127              	.LVL60:
 1128              	.L60:
 243:Core/Src/main.c ****   {
 1129              		.loc 1 243 3 view .LVU299
 246:Core/Src/main.c ****     {
 1130              		.loc 1 246 5 view .LVU300
 246:Core/Src/main.c ****     {
 1131              		.loc 1 246 8 is_stmt 0 view .LVU301
 1132 0124 214B     		ldr	r3, .L75+68
 1133 0126 1B78     		ldrb	r3, [r3]	@ zero_extendqisi2
 246:Core/Src/main.c ****     {
 1134              		.loc 1 246 7 view .LVU302
 1135 0128 002B     		cmp	r3, #0
 1136 012a AED1     		bne	.L72
 1137              	.L61:
 259:Core/Src/main.c ****     { 
 1138              		.loc 1 259 5 is_stmt 1 view .LVU303
 259:Core/Src/main.c ****     { 
 1139              		.loc 1 259 9 is_stmt 0 view .LVU304
 1140 012c 1448     		ldr	r0, .L75+24
 1141 012e FFF7FEFF 		bl	NOS_TimeEvent_Check
 1142              	.LVL61:
 259:Core/Src/main.c ****     { 
 1143              		.loc 1 259 8 view .LVU305
 1144 0132 0028     		cmp	r0, #0
 1145 0134 C1D1     		bne	.L73
 1146              	.L63:
 265:Core/Src/main.c ****     {
 1147              		.loc 1 265 5 is_stmt 1 view .LVU306
 265:Core/Src/main.c ****     {
 1148              		.loc 1 265 9 is_stmt 0 view .LVU307
 1149 0136 1348     		ldr	r0, .L75+28
 1150 0138 FFF7FEFF 		bl	NOS_TimeEvent_Check
 1151              	.LVL62:
 265:Core/Src/main.c ****     {
 1152              		.loc 1 265 8 view .LVU308
 1153 013c 0028     		cmp	r0, #0
 1154 013e C3D1     		bne	.L74
 1155              	.L64:
 274:Core/Src/main.c ****     {
 1156              		.loc 1 274 5 is_stmt 1 view .LVU309
 274:Core/Src/main.c ****     {
 1157              		.loc 1 274 8 is_stmt 0 view .LVU310
 1158 0140 1348     		ldr	r0, .L75+40
 1159 0142 FFF7FEFF 		bl	NOS_Button_CheckPressDone
 1160              	.LVL63:
 274:Core/Src/main.c ****     {
ARM GAS  C:\Users\igorn\AppData\Local\Temp\ccokbHy1.s 			page 38


 1161              		.loc 1 274 7 view .LVU311
 1162 0146 0028     		cmp	r0, #0
 1163 0148 E2D0     		beq	.L65
 276:Core/Src/main.c ****       {
 1164              		.loc 1 276 7 is_stmt 1 view .LVU312
 276:Core/Src/main.c ****       {
 1165              		.loc 1 276 20 is_stmt 0 view .LVU313
 1166 014a 194B     		ldr	r3, .L75+72
 1167 014c 1B68     		ldr	r3, [r3]
 276:Core/Src/main.c ****       {
 1168              		.loc 1 276 9 view .LVU314
 1169 014e 052B     		cmp	r3, #5
 1170 0150 C3DC     		bgt	.L66
 278:Core/Src/main.c ****       }
 1171              		.loc 1 278 9 is_stmt 1 view .LVU315
 278:Core/Src/main.c ****       }
 1172              		.loc 1 278 18 is_stmt 0 view .LVU316
 1173 0152 0133     		adds	r3, r3, #1
 1174 0154 164A     		ldr	r2, .L75+72
 1175 0156 1360     		str	r3, [r2]
 1176 0158 C2E7     		b	.L67
 1177              	.L68:
 296:Core/Src/main.c ****     }
 1178              		.loc 1 296 7 is_stmt 1 view .LVU317
 1179 015a 104B     		ldr	r3, .L75+52
 1180 015c 0122     		movs	r2, #1
 1181 015e 9988     		ldrh	r1, [r3, #4]
 1182 0160 1868     		ldr	r0, [r3]
 1183 0162 FFF7FEFF 		bl	HAL_GPIO_WritePin
 1184              	.LVL64:
 1185 0166 DDE7     		b	.L60
 1186              	.L76:
 1187              		.align	2
 1188              	.L75:
 1189 0168 00000000 		.word	huart2
 1190 016c 00000000 		.word	rx_buff
 1191 0170 00000000 		.word	.LC0
 1192 0174 00000000 		.word	pixelsA
 1193 0178 00000000 		.word	frameBuffer1
 1194 017c 00000000 		.word	stripA
 1195 0180 00000000 		.word	tetrisUpdateEvent
 1196 0184 00000000 		.word	screenUpdateEvent
 1197 0188 00000000 		.word	uartTestEvent
 1198 018c 00000000 		.word	bright
 1199 0190 00000000 		.word	button
 1200 0194 00000240 		.word	1073872896
 1201 0198 00000000 		.word	PA6
 1202 019c 00000000 		.word	PA7
 1203 01a0 10000000 		.word	.LC1
 1204 01a4 00000000 		.word	fuckBuff
 1205 01a8 08000000 		.word	.LC2
 1206 01ac 00000000 		.word	rx_flag
 1207 01b0 00000000 		.word	currColor
 1208 01b4 00000000 		.word	colors
 1209              		.cfi_endproc
 1210              	.LFE133:
 1212              		.global	value
ARM GAS  C:\Users\igorn\AppData\Local\Temp\ccokbHy1.s 			page 39


 1213              		.section	.bss.value,"aw",%nobits
 1214              		.align	2
 1217              	value:
 1218 0000 0000     		.space	2
 1219              		.global	receiveCheck
 1220              		.section	.bss.receiveCheck,"aw",%nobits
 1223              	receiveCheck:
 1224 0000 00       		.space	1
 1225              		.global	receiveAbort
 1226              		.section	.bss.receiveAbort,"aw",%nobits
 1229              	receiveAbort:
 1230 0000 00       		.space	1
 1231              		.global	receiveTimeAbort
 1232              		.section	.data.receiveTimeAbort,"aw"
 1233              		.align	2
 1236              	receiveTimeAbort:
 1237 0000 64000000 		.word	100
 1238              		.global	buttonDelay
 1239              		.section	.bss.buttonDelay,"aw",%nobits
 1240              		.align	2
 1243              	buttonDelay:
 1244 0000 00000000 		.space	4
 1245              		.global	currColor
 1246              		.section	.bss.currColor,"aw",%nobits
 1247              		.align	2
 1250              	currColor:
 1251 0000 00000000 		.space	4
 1252              		.global	bufferCommand
 1253              		.section	.bss.bufferCommand,"aw",%nobits
 1256              	bufferCommand:
 1257 0000 00       		.space	1
 1258              		.global	uartPixelCount
 1259              		.section	.bss.uartPixelCount,"aw",%nobits
 1260              		.align	2
 1263              	uartPixelCount:
 1264 0000 00000000 		.space	4
 1265              		.global	PA7
 1266              		.section	.bss.PA7,"aw",%nobits
 1267              		.align	2
 1270              	PA7:
 1271 0000 00000000 		.space	8
 1271      00000000 
 1272              		.global	PA6
 1273              		.section	.bss.PA6,"aw",%nobits
 1274              		.align	2
 1277              	PA6:
 1278 0000 00000000 		.space	8
 1278      00000000 
 1279              		.global	button
 1280              		.section	.bss.button,"aw",%nobits
 1281              		.align	2
 1284              	button:
 1285 0000 00000000 		.space	20
 1285      00000000 
 1285      00000000 
 1285      00000000 
 1285      00000000 
ARM GAS  C:\Users\igorn\AppData\Local\Temp\ccokbHy1.s 			page 40


 1286              		.global	bright
 1287              		.section	.bss.bright,"aw",%nobits
 1288              		.align	2
 1291              	bright:
 1292 0000 00000000 		.space	20
 1292      00000000 
 1292      00000000 
 1292      00000000 
 1292      00000000 
 1293              		.global	receiveTime
 1294              		.section	.bss.receiveTime,"aw",%nobits
 1295              		.align	2
 1298              	receiveTime:
 1299 0000 00000000 		.space	4
 1300              		.global	endReceive
 1301              		.section	.bss.endReceive,"aw",%nobits
 1304              	endReceive:
 1305 0000 00       		.space	1
 1306              		.global	startReceive
 1307              		.section	.bss.startReceive,"aw",%nobits
 1310              	startReceive:
 1311 0000 00       		.space	1
 1312              		.global	expectedMessageLenght
 1313              		.section	.bss.expectedMessageLenght,"aw",%nobits
 1314              		.align	2
 1317              	expectedMessageLenght:
 1318 0000 00000000 		.space	4
 1319              		.global	currMessageLenght
 1320              		.section	.bss.currMessageLenght,"aw",%nobits
 1321              		.align	2
 1324              	currMessageLenght:
 1325 0000 00000000 		.space	4
 1326              		.global	tx_flag
 1327              		.section	.bss.tx_flag,"aw",%nobits
 1330              	tx_flag:
 1331 0000 00       		.space	1
 1332              		.global	rx_flag
 1333              		.section	.bss.rx_flag,"aw",%nobits
 1336              	rx_flag:
 1337 0000 00       		.space	1
 1338              		.global	fuckIndex
 1339              		.section	.bss.fuckIndex,"aw",%nobits
 1340              		.align	1
 1343              	fuckIndex:
 1344 0000 0000     		.space	2
 1345              		.global	fuckBuff
 1346              		.section	.bss.fuckBuff,"aw",%nobits
 1347              		.align	2
 1350              	fuckBuff:
 1351 0000 00000000 		.space	1024
 1351      00000000 
 1351      00000000 
 1351      00000000 
 1351      00000000 
 1352              		.global	rx_buff
 1353              		.section	.bss.rx_buff,"aw",%nobits
 1354              		.align	2
ARM GAS  C:\Users\igorn\AppData\Local\Temp\ccokbHy1.s 			page 41


 1357              	rx_buff:
 1358 0000 00000000 		.space	256
 1358      00000000 
 1358      00000000 
 1358      00000000 
 1358      00000000 
 1359              		.global	colors
 1360              		.section	.data.colors,"aw"
 1361              		.align	2
 1364              	colors:
 1365 0000 FF       		.byte	-1
 1366 0001 00       		.byte	0
 1367 0002 00       		.byte	0
 1368 0003 00       		.byte	0
 1369 0004 FF       		.byte	-1
 1370 0005 00       		.byte	0
 1371 0006 00       		.byte	0
 1372 0007 00       		.byte	0
 1373 0008 FF       		.byte	-1
 1374 0009 FF       		.byte	-1
 1375 000a FF       		.byte	-1
 1376 000b FF       		.byte	-1
 1377 000c FF       		.byte	-1
 1378 000d FF       		.byte	-1
 1379 000e 00       		.byte	0
 1380 000f FF       		.byte	-1
 1381 0010 00       		.byte	0
 1382 0011 FF       		.byte	-1
 1383 0012 00       		.byte	0
 1384 0013 FF       		.byte	-1
 1385 0014 FF       		.byte	-1
 1386              		.global	cyan
 1387              		.section	.rodata.cyan,"a"
 1388              		.align	2
 1391              	cyan:
 1392 0000 00       		.byte	0
 1393 0001 FF       		.byte	-1
 1394 0002 FF       		.byte	-1
 1395              		.global	purple
 1396              		.section	.rodata.purple,"a"
 1397              		.align	2
 1400              	purple:
 1401 0000 FF       		.byte	-1
 1402 0001 00       		.byte	0
 1403 0002 FF       		.byte	-1
 1404              		.global	yellow
 1405              		.section	.rodata.yellow,"a"
 1406              		.align	2
 1409              	yellow:
 1410 0000 FF       		.byte	-1
 1411 0001 FF       		.byte	-1
 1412 0002 00       		.byte	0
 1413              		.global	white
 1414              		.section	.rodata.white,"a"
 1415              		.align	2
 1418              	white:
 1419 0000 FF       		.byte	-1
ARM GAS  C:\Users\igorn\AppData\Local\Temp\ccokbHy1.s 			page 42


 1420 0001 FF       		.byte	-1
 1421 0002 FF       		.byte	-1
 1422              		.global	blue
 1423              		.section	.rodata.blue,"a"
 1424              		.align	2
 1427              	blue:
 1428 0000 00       		.byte	0
 1429 0001 00       		.byte	0
 1430 0002 FF       		.byte	-1
 1431              		.global	green
 1432              		.section	.rodata.green,"a"
 1433              		.align	2
 1436              	green:
 1437 0000 00       		.byte	0
 1438 0001 FF       		.byte	-1
 1439 0002 00       		.byte	0
 1440              		.global	red
 1441              		.section	.rodata.red,"a"
 1442              		.align	2
 1445              	red:
 1446 0000 FF       		.byte	-1
 1447 0001 00       		.byte	0
 1448 0002 00       		.byte	0
 1449              		.global	pixelsA
 1450              		.section	.bss.pixelsA,"aw",%nobits
 1451              		.align	2
 1454              	pixelsA:
 1455 0000 00000000 		.space	384
 1455      00000000 
 1455      00000000 
 1455      00000000 
 1455      00000000 
 1456              		.global	stripA
 1457              		.section	.bss.stripA,"aw",%nobits
 1458              		.align	2
 1461              	stripA:
 1462 0000 00000000 		.space	16
 1462      00000000 
 1462      00000000 
 1462      00000000 
 1463              		.global	uartTestEvent
 1464              		.section	.bss.uartTestEvent,"aw",%nobits
 1465              		.align	2
 1468              	uartTestEvent:
 1469 0000 00000000 		.space	12
 1469      00000000 
 1469      00000000 
 1470              		.global	screenUpdateEvent
 1471              		.section	.bss.screenUpdateEvent,"aw",%nobits
 1472              		.align	2
 1475              	screenUpdateEvent:
 1476 0000 00000000 		.space	12
 1476      00000000 
 1476      00000000 
 1477              		.global	tetrisUpdateEvent
 1478              		.section	.bss.tetrisUpdateEvent,"aw",%nobits
 1479              		.align	2
ARM GAS  C:\Users\igorn\AppData\Local\Temp\ccokbHy1.s 			page 43


 1482              	tetrisUpdateEvent:
 1483 0000 00000000 		.space	12
 1483      00000000 
 1483      00000000 
 1484              		.global	hpcd_USB_OTG_FS
 1485              		.section	.bss.hpcd_USB_OTG_FS,"aw",%nobits
 1486              		.align	2
 1489              	hpcd_USB_OTG_FS:
 1490 0000 00000000 		.space	1292
 1490      00000000 
 1490      00000000 
 1490      00000000 
 1490      00000000 
 1491              		.global	huart2
 1492              		.section	.bss.huart2,"aw",%nobits
 1493              		.align	2
 1496              	huart2:
 1497 0000 00000000 		.space	68
 1497      00000000 
 1497      00000000 
 1497      00000000 
 1497      00000000 
 1498              		.global	htim6
 1499              		.section	.bss.htim6,"aw",%nobits
 1500              		.align	2
 1503              	htim6:
 1504 0000 00000000 		.space	72
 1504      00000000 
 1504      00000000 
 1504      00000000 
 1504      00000000 
 1505              		.global	hspi1
 1506              		.section	.bss.hspi1,"aw",%nobits
 1507              		.align	2
 1510              	hspi1:
 1511 0000 00000000 		.space	88
 1511      00000000 
 1511      00000000 
 1511      00000000 
 1511      00000000 
 1512              		.text
 1513              	.Letext0:
 1514              		.file 3 "c:\\users\\igorn\\appdata\\roaming\\code\\user\\globalstorage\\bmd.stm32-for-vscode\\@xpa
 1515              		.file 4 "c:\\users\\igorn\\appdata\\roaming\\code\\user\\globalstorage\\bmd.stm32-for-vscode\\@xpa
 1516              		.file 5 "Drivers/CMSIS/Device/ST/STM32F4xx/Include/stm32f407xx.h"
 1517              		.file 6 "Drivers/STM32F4xx_HAL_Driver/Inc/stm32f4xx_hal_def.h"
 1518              		.file 7 "Drivers/STM32F4xx_HAL_Driver/Inc/stm32f4xx_hal_rcc_ex.h"
 1519              		.file 8 "Drivers/STM32F4xx_HAL_Driver/Inc/stm32f4xx_hal_rcc.h"
 1520              		.file 9 "Drivers/STM32F4xx_HAL_Driver/Inc/stm32f4xx_hal_gpio.h"
 1521              		.file 10 "Drivers/STM32F4xx_HAL_Driver/Inc/stm32f4xx_hal_dma.h"
 1522              		.file 11 "Drivers/STM32F4xx_HAL_Driver/Inc/stm32f4xx_hal_spi.h"
 1523              		.file 12 "Drivers/STM32F4xx_HAL_Driver/Inc/stm32f4xx_hal_tim.h"
 1524              		.file 13 "Drivers/STM32F4xx_HAL_Driver/Inc/stm32f4xx_hal_uart.h"
 1525              		.file 14 "Drivers/STM32F4xx_HAL_Driver/Inc/stm32f4xx_ll_usb.h"
 1526              		.file 15 "Drivers/STM32F4xx_HAL_Driver/Inc/stm32f4xx_hal_pcd.h"
 1527              		.file 16 "Core/Inc/../Src/NOS_LIB_Driver/Inc/NOS_Typedefs.h"
 1528              		.file 17 "Core/Inc/../Src/NOS_LIB_Driver/Inc/NOS_GPIO.h"
ARM GAS  C:\Users\igorn\AppData\Local\Temp\ccokbHy1.s 			page 44


 1529              		.file 18 "Core/Inc/../Src/NOS_LIB_Driver/Inc/NOS_Button.h"
 1530              		.file 19 "Core/Inc/../Src/NOS_LIB_Driver/Inc/NOS_Time.h"
 1531              		.file 20 "Drivers/STM32F4xx_HAL_Driver/Inc/stm32f4xx_hal_tim_ex.h"
 1532              		.file 21 "Core/Inc/../Src/NOS_LIB_Driver/Inc/NOS_WS2812B_Strip.h"
 1533              		.file 22 "Core/Inc/../Src/NOS_LIB_Driver/Inc/NOS_Math.h"
 1534              		.file 23 "Core/Inc/../Src/NOS_LIB_Driver/Inc/NOS_Strip_UART.h"
 1535              		.file 24 "Core/Inc/../Src/NOS_LIB_Driver/Inc/WS2812B_Effects.h"
 1536              		.file 25 "Drivers/STM32F4xx_HAL_Driver/Inc/stm32f4xx_hal.h"
 1537              		.file 26 "<built-in>"
ARM GAS  C:\Users\igorn\AppData\Local\Temp\ccokbHy1.s 			page 45


DEFINED SYMBOLS
                            *ABS*:00000000 main.c
C:\Users\igorn\AppData\Local\Temp\ccokbHy1.s:21     .text.MX_GPIO_Init:00000000 $t
C:\Users\igorn\AppData\Local\Temp\ccokbHy1.s:26     .text.MX_GPIO_Init:00000000 MX_GPIO_Init
C:\Users\igorn\AppData\Local\Temp\ccokbHy1.s:148    .text.MX_GPIO_Init:00000090 $d
C:\Users\igorn\AppData\Local\Temp\ccokbHy1.s:154    .text.ReceiveReset:00000000 $t
C:\Users\igorn\AppData\Local\Temp\ccokbHy1.s:160    .text.ReceiveReset:00000000 ReceiveReset
C:\Users\igorn\AppData\Local\Temp\ccokbHy1.s:184    .text.ReceiveReset:00000010 $d
C:\Users\igorn\AppData\Local\Temp\ccokbHy1.s:1324   .bss.currMessageLenght:00000000 currMessageLenght
C:\Users\igorn\AppData\Local\Temp\ccokbHy1.s:1336   .bss.rx_flag:00000000 rx_flag
C:\Users\igorn\AppData\Local\Temp\ccokbHy1.s:190    .text.ContinueReceive:00000000 $t
C:\Users\igorn\AppData\Local\Temp\ccokbHy1.s:196    .text.ContinueReceive:00000000 ContinueReceive
C:\Users\igorn\AppData\Local\Temp\ccokbHy1.s:220    .text.ContinueReceive:0000000c $d
C:\Users\igorn\AppData\Local\Temp\ccokbHy1.s:1357   .bss.rx_buff:00000000 rx_buff
C:\Users\igorn\AppData\Local\Temp\ccokbHy1.s:226    .text.HAL_UART_RxCpltCallback:00000000 $t
C:\Users\igorn\AppData\Local\Temp\ccokbHy1.s:232    .text.HAL_UART_RxCpltCallback:00000000 HAL_UART_RxCpltCallback
C:\Users\igorn\AppData\Local\Temp\ccokbHy1.s:448    .text.HAL_UART_RxCpltCallback:000000e0 $d
C:\Users\igorn\AppData\Local\Temp\ccokbHy1.s:1343   .bss.fuckIndex:00000000 fuckIndex
C:\Users\igorn\AppData\Local\Temp\ccokbHy1.s:1350   .bss.fuckBuff:00000000 fuckBuff
C:\Users\igorn\AppData\Local\Temp\ccokbHy1.s:1310   .bss.startReceive:00000000 startReceive
C:\Users\igorn\AppData\Local\Temp\ccokbHy1.s:1317   .bss.expectedMessageLenght:00000000 expectedMessageLenght
C:\Users\igorn\AppData\Local\Temp\ccokbHy1.s:1496   .bss.huart2:00000000 huart2
C:\Users\igorn\AppData\Local\Temp\ccokbHy1.s:1256   .bss.bufferCommand:00000000 bufferCommand
C:\Users\igorn\AppData\Local\Temp\ccokbHy1.s:1217   .bss.value:00000000 value
C:\Users\igorn\AppData\Local\Temp\ccokbHy1.s:461    .text.SysTick_Handler:00000000 $t
C:\Users\igorn\AppData\Local\Temp\ccokbHy1.s:467    .text.SysTick_Handler:00000000 SysTick_Handler
C:\Users\igorn\AppData\Local\Temp\ccokbHy1.s:525    .text.SysTick_Handler:0000003c $d
C:\Users\igorn\AppData\Local\Temp\ccokbHy1.s:1482   .bss.tetrisUpdateEvent:00000000 tetrisUpdateEvent
C:\Users\igorn\AppData\Local\Temp\ccokbHy1.s:1475   .bss.screenUpdateEvent:00000000 screenUpdateEvent
C:\Users\igorn\AppData\Local\Temp\ccokbHy1.s:1468   .bss.uartTestEvent:00000000 uartTestEvent
C:\Users\igorn\AppData\Local\Temp\ccokbHy1.s:1243   .bss.buttonDelay:00000000 buttonDelay
C:\Users\igorn\AppData\Local\Temp\ccokbHy1.s:1298   .bss.receiveTime:00000000 receiveTime
C:\Users\igorn\AppData\Local\Temp\ccokbHy1.s:1284   .bss.button:00000000 button
C:\Users\igorn\AppData\Local\Temp\ccokbHy1.s:535    .text.EXTI3_IRQHandler:00000000 $t
C:\Users\igorn\AppData\Local\Temp\ccokbHy1.s:541    .text.EXTI3_IRQHandler:00000000 EXTI3_IRQHandler
C:\Users\igorn\AppData\Local\Temp\ccokbHy1.s:561    .text.Error_Handler:00000000 $t
C:\Users\igorn\AppData\Local\Temp\ccokbHy1.s:567    .text.Error_Handler:00000000 Error_Handler
C:\Users\igorn\AppData\Local\Temp\ccokbHy1.s:599    .text.MX_USART2_UART_Init:00000000 $t
C:\Users\igorn\AppData\Local\Temp\ccokbHy1.s:604    .text.MX_USART2_UART_Init:00000000 MX_USART2_UART_Init
C:\Users\igorn\AppData\Local\Temp\ccokbHy1.s:658    .text.MX_USART2_UART_Init:0000002c $d
C:\Users\igorn\AppData\Local\Temp\ccokbHy1.s:664    .text.MX_TIM6_Init:00000000 $t
C:\Users\igorn\AppData\Local\Temp\ccokbHy1.s:669    .text.MX_TIM6_Init:00000000 MX_TIM6_Init
C:\Users\igorn\AppData\Local\Temp\ccokbHy1.s:742    .text.MX_TIM6_Init:00000040 $d
C:\Users\igorn\AppData\Local\Temp\ccokbHy1.s:1503   .bss.htim6:00000000 htim6
C:\Users\igorn\AppData\Local\Temp\ccokbHy1.s:748    .text.SystemClock_Config:00000000 $t
C:\Users\igorn\AppData\Local\Temp\ccokbHy1.s:754    .text.SystemClock_Config:00000000 SystemClock_Config
C:\Users\igorn\AppData\Local\Temp\ccokbHy1.s:904    .text.SystemClock_Config:000000a0 $d
C:\Users\igorn\AppData\Local\Temp\ccokbHy1.s:910    .rodata.main.str1.4:00000000 $d
C:\Users\igorn\AppData\Local\Temp\ccokbHy1.s:920    .text.main:00000000 $t
C:\Users\igorn\AppData\Local\Temp\ccokbHy1.s:926    .text.main:00000000 main
C:\Users\igorn\AppData\Local\Temp\ccokbHy1.s:1189   .text.main:00000168 $d
C:\Users\igorn\AppData\Local\Temp\ccokbHy1.s:1454   .bss.pixelsA:00000000 pixelsA
C:\Users\igorn\AppData\Local\Temp\ccokbHy1.s:1461   .bss.stripA:00000000 stripA
C:\Users\igorn\AppData\Local\Temp\ccokbHy1.s:1291   .bss.bright:00000000 bright
C:\Users\igorn\AppData\Local\Temp\ccokbHy1.s:1277   .bss.PA6:00000000 PA6
C:\Users\igorn\AppData\Local\Temp\ccokbHy1.s:1270   .bss.PA7:00000000 PA7
C:\Users\igorn\AppData\Local\Temp\ccokbHy1.s:1250   .bss.currColor:00000000 currColor
ARM GAS  C:\Users\igorn\AppData\Local\Temp\ccokbHy1.s 			page 46


C:\Users\igorn\AppData\Local\Temp\ccokbHy1.s:1364   .data.colors:00000000 colors
C:\Users\igorn\AppData\Local\Temp\ccokbHy1.s:1214   .bss.value:00000000 $d
C:\Users\igorn\AppData\Local\Temp\ccokbHy1.s:1223   .bss.receiveCheck:00000000 receiveCheck
C:\Users\igorn\AppData\Local\Temp\ccokbHy1.s:1224   .bss.receiveCheck:00000000 $d
C:\Users\igorn\AppData\Local\Temp\ccokbHy1.s:1229   .bss.receiveAbort:00000000 receiveAbort
C:\Users\igorn\AppData\Local\Temp\ccokbHy1.s:1230   .bss.receiveAbort:00000000 $d
C:\Users\igorn\AppData\Local\Temp\ccokbHy1.s:1236   .data.receiveTimeAbort:00000000 receiveTimeAbort
C:\Users\igorn\AppData\Local\Temp\ccokbHy1.s:1233   .data.receiveTimeAbort:00000000 $d
C:\Users\igorn\AppData\Local\Temp\ccokbHy1.s:1240   .bss.buttonDelay:00000000 $d
C:\Users\igorn\AppData\Local\Temp\ccokbHy1.s:1247   .bss.currColor:00000000 $d
C:\Users\igorn\AppData\Local\Temp\ccokbHy1.s:1257   .bss.bufferCommand:00000000 $d
C:\Users\igorn\AppData\Local\Temp\ccokbHy1.s:1263   .bss.uartPixelCount:00000000 uartPixelCount
C:\Users\igorn\AppData\Local\Temp\ccokbHy1.s:1260   .bss.uartPixelCount:00000000 $d
C:\Users\igorn\AppData\Local\Temp\ccokbHy1.s:1267   .bss.PA7:00000000 $d
C:\Users\igorn\AppData\Local\Temp\ccokbHy1.s:1274   .bss.PA6:00000000 $d
C:\Users\igorn\AppData\Local\Temp\ccokbHy1.s:1281   .bss.button:00000000 $d
C:\Users\igorn\AppData\Local\Temp\ccokbHy1.s:1288   .bss.bright:00000000 $d
C:\Users\igorn\AppData\Local\Temp\ccokbHy1.s:1295   .bss.receiveTime:00000000 $d
C:\Users\igorn\AppData\Local\Temp\ccokbHy1.s:1304   .bss.endReceive:00000000 endReceive
C:\Users\igorn\AppData\Local\Temp\ccokbHy1.s:1305   .bss.endReceive:00000000 $d
C:\Users\igorn\AppData\Local\Temp\ccokbHy1.s:1311   .bss.startReceive:00000000 $d
C:\Users\igorn\AppData\Local\Temp\ccokbHy1.s:1314   .bss.expectedMessageLenght:00000000 $d
C:\Users\igorn\AppData\Local\Temp\ccokbHy1.s:1321   .bss.currMessageLenght:00000000 $d
C:\Users\igorn\AppData\Local\Temp\ccokbHy1.s:1330   .bss.tx_flag:00000000 tx_flag
C:\Users\igorn\AppData\Local\Temp\ccokbHy1.s:1331   .bss.tx_flag:00000000 $d
C:\Users\igorn\AppData\Local\Temp\ccokbHy1.s:1337   .bss.rx_flag:00000000 $d
C:\Users\igorn\AppData\Local\Temp\ccokbHy1.s:1340   .bss.fuckIndex:00000000 $d
C:\Users\igorn\AppData\Local\Temp\ccokbHy1.s:1347   .bss.fuckBuff:00000000 $d
C:\Users\igorn\AppData\Local\Temp\ccokbHy1.s:1354   .bss.rx_buff:00000000 $d
C:\Users\igorn\AppData\Local\Temp\ccokbHy1.s:1361   .data.colors:00000000 $d
C:\Users\igorn\AppData\Local\Temp\ccokbHy1.s:1391   .rodata.cyan:00000000 cyan
C:\Users\igorn\AppData\Local\Temp\ccokbHy1.s:1388   .rodata.cyan:00000000 $d
C:\Users\igorn\AppData\Local\Temp\ccokbHy1.s:1400   .rodata.purple:00000000 purple
C:\Users\igorn\AppData\Local\Temp\ccokbHy1.s:1397   .rodata.purple:00000000 $d
C:\Users\igorn\AppData\Local\Temp\ccokbHy1.s:1409   .rodata.yellow:00000000 yellow
C:\Users\igorn\AppData\Local\Temp\ccokbHy1.s:1406   .rodata.yellow:00000000 $d
C:\Users\igorn\AppData\Local\Temp\ccokbHy1.s:1418   .rodata.white:00000000 white
C:\Users\igorn\AppData\Local\Temp\ccokbHy1.s:1415   .rodata.white:00000000 $d
C:\Users\igorn\AppData\Local\Temp\ccokbHy1.s:1427   .rodata.blue:00000000 blue
C:\Users\igorn\AppData\Local\Temp\ccokbHy1.s:1424   .rodata.blue:00000000 $d
C:\Users\igorn\AppData\Local\Temp\ccokbHy1.s:1436   .rodata.green:00000000 green
C:\Users\igorn\AppData\Local\Temp\ccokbHy1.s:1433   .rodata.green:00000000 $d
C:\Users\igorn\AppData\Local\Temp\ccokbHy1.s:1445   .rodata.red:00000000 red
C:\Users\igorn\AppData\Local\Temp\ccokbHy1.s:1442   .rodata.red:00000000 $d
C:\Users\igorn\AppData\Local\Temp\ccokbHy1.s:1451   .bss.pixelsA:00000000 $d
C:\Users\igorn\AppData\Local\Temp\ccokbHy1.s:1458   .bss.stripA:00000000 $d
C:\Users\igorn\AppData\Local\Temp\ccokbHy1.s:1465   .bss.uartTestEvent:00000000 $d
C:\Users\igorn\AppData\Local\Temp\ccokbHy1.s:1472   .bss.screenUpdateEvent:00000000 $d
C:\Users\igorn\AppData\Local\Temp\ccokbHy1.s:1479   .bss.tetrisUpdateEvent:00000000 $d
C:\Users\igorn\AppData\Local\Temp\ccokbHy1.s:1489   .bss.hpcd_USB_OTG_FS:00000000 hpcd_USB_OTG_FS
C:\Users\igorn\AppData\Local\Temp\ccokbHy1.s:1486   .bss.hpcd_USB_OTG_FS:00000000 $d
C:\Users\igorn\AppData\Local\Temp\ccokbHy1.s:1493   .bss.huart2:00000000 $d
C:\Users\igorn\AppData\Local\Temp\ccokbHy1.s:1500   .bss.htim6:00000000 $d
C:\Users\igorn\AppData\Local\Temp\ccokbHy1.s:1510   .bss.hspi1:00000000 hspi1
C:\Users\igorn\AppData\Local\Temp\ccokbHy1.s:1507   .bss.hspi1:00000000 $d

UNDEFINED SYMBOLS
ARM GAS  C:\Users\igorn\AppData\Local\Temp\ccokbHy1.s 			page 47


HAL_GPIO_Init
HAL_UART_Receive_IT
HAL_IncTick
NOS_TimeEvent_TickHandler
NOS_Button_TimerHandler
HAL_GPIO_EXTI_IRQHandler
HAL_UART_Init
HAL_TIM_Base_Init
HAL_TIMEx_MasterConfigSynchronization
memset
HAL_RCC_OscConfig
HAL_RCC_ClockConfig
HAL_Init
HAL_UART_Transmit
visInit
NOS_WS2812B_Strip_FullInit
NOS_TimeEvent_Init
NOS_Math_SinValue_Init
NOS_Button_Init
NOS_GPIO_PinInit
NOS_Strip_Uart_ParseCommand
NOS_Math_SinValue_Handler
NOS_TimeEvent_FinishEvent
NOS_WS2812B_Strip_Update
visHandle
NOS_WS2812B_Strip_ColorFill
NOS_Button_PressDoneHandler
HAL_GPIO_TogglePin
NOS_Button_isPressed
HAL_GPIO_WritePin
NOS_TimeEvent_Check
NOS_Button_CheckPressDone
frameBuffer1
