ARM GAS  C:\Users\igorn\AppData\Local\Temp\ccZCi53b.s 			page 1


   1              		.cpu cortex-m4
   2              		.arch armv7e-m
   3              		.fpu fpv4-sp-d16
   4              		.eabi_attribute 27, 1
   5              		.eabi_attribute 28, 1
   6              		.eabi_attribute 20, 1
   7              		.eabi_attribute 21, 1
   8              		.eabi_attribute 23, 3
   9              		.eabi_attribute 24, 1
  10              		.eabi_attribute 25, 1
  11              		.eabi_attribute 26, 1
  12              		.eabi_attribute 30, 1
  13              		.eabi_attribute 34, 1
  14              		.eabi_attribute 18, 4
  15              		.file	"main.c"
  16              		.text
  17              	.Ltext0:
  18              		.cfi_sections	.debug_frame
  19              		.file 1 "Core/Src/main.c"
  20              		.section	.text.MX_GPIO_Init,"ax",%progbits
  21              		.align	1
  22              		.syntax unified
  23              		.thumb
  24              		.thumb_func
  26              	MX_GPIO_Init:
  27              	.LFB137:
   1:Core/Src/main.c **** /* USER CODE BEGIN Header */
   2:Core/Src/main.c **** /**
   3:Core/Src/main.c ****   ******************************************************************************
   4:Core/Src/main.c ****   * @file           : main.c
   5:Core/Src/main.c ****   * @brief          : Main program body
   6:Core/Src/main.c ****   ******************************************************************************
   7:Core/Src/main.c ****   * @attention
   8:Core/Src/main.c ****   *
   9:Core/Src/main.c ****   * Copyright (c) 2024 STMicroelectronics.
  10:Core/Src/main.c ****   * All rights reserved.
  11:Core/Src/main.c ****   *
  12:Core/Src/main.c ****   * This software is licensed under terms that can be found in the LICENSE file
  13:Core/Src/main.c ****   * in the root directory of this software component.
  14:Core/Src/main.c ****   * If no LICENSE file comes with this software, it is provided AS-IS.
  15:Core/Src/main.c ****   *
  16:Core/Src/main.c ****   ******************************************************************************
  17:Core/Src/main.c ****   */
  18:Core/Src/main.c **** /* USER CODE END Header */
  19:Core/Src/main.c **** /* Includes ------------------------------------------------------------------*/
  20:Core/Src/main.c **** #include "main.h"
  21:Core/Src/main.c **** 
  22:Core/Src/main.c **** /* Private includes ----------------------------------------------------------*/
  23:Core/Src/main.c **** /* USER CODE BEGIN Includes */
  24:Core/Src/main.c **** #include <../Src/NOS_LIB_Driver/Inc/NOS_Lib.h>
  25:Core/Src/main.c **** /* USER CODE END Includes */
  26:Core/Src/main.c **** 
  27:Core/Src/main.c **** /* Private typedef -----------------------------------------------------------*/
  28:Core/Src/main.c **** /* USER CODE BEGIN PTD */
  29:Core/Src/main.c **** 
  30:Core/Src/main.c **** /* USER CODE END PTD */
  31:Core/Src/main.c **** 
ARM GAS  C:\Users\igorn\AppData\Local\Temp\ccZCi53b.s 			page 2


  32:Core/Src/main.c **** /* Private define ------------------------------------------------------------*/
  33:Core/Src/main.c **** /* USER CODE BEGIN PD */
  34:Core/Src/main.c **** 
  35:Core/Src/main.c **** /* USER CODE END PD */
  36:Core/Src/main.c **** 
  37:Core/Src/main.c **** /* Private macro -------------------------------------------------------------*/
  38:Core/Src/main.c **** /* USER CODE BEGIN PM */
  39:Core/Src/main.c **** 
  40:Core/Src/main.c **** /* USER CODE END PM */
  41:Core/Src/main.c **** 
  42:Core/Src/main.c **** /* Private variables ---------------------------------------------------------*/
  43:Core/Src/main.c **** SPI_HandleTypeDef hspi1;
  44:Core/Src/main.c **** 
  45:Core/Src/main.c **** TIM_HandleTypeDef htim6;
  46:Core/Src/main.c **** 
  47:Core/Src/main.c **** UART_HandleTypeDef huart2;
  48:Core/Src/main.c **** 
  49:Core/Src/main.c **** PCD_HandleTypeDef hpcd_USB_OTG_FS;
  50:Core/Src/main.c **** 
  51:Core/Src/main.c **** /* USER CODE BEGIN PV */
  52:Core/Src/main.c **** extern uint8_t frameBuffer1[3 * 256];
  53:Core/Src/main.c **** 
  54:Core/Src/main.c **** NOS_TimeEvent tetrisUpdateEvent = {0};
  55:Core/Src/main.c **** NOS_TimeEvent screenUpdateEvent = {0};
  56:Core/Src/main.c **** NOS_TimeEvent uartTestEvent = {0};
  57:Core/Src/main.c **** 
  58:Core/Src/main.c **** WS2812B_Strip stripA = {0};
  59:Core/Src/main.c **** PixelColor pixelsA[128];
  60:Core/Src/main.c **** 
  61:Core/Src/main.c **** NOS_UART_Struct UART2;
  62:Core/Src/main.c **** 
  63:Core/Src/main.c **** int receiveTime = 0;
  64:Core/Src/main.c **** 
  65:Core/Src/main.c **** SinValue bright = {0};
  66:Core/Src/main.c **** 
  67:Core/Src/main.c **** NOS_Button button = {0};
  68:Core/Src/main.c **** 
  69:Core/Src/main.c **** GPIO_PIN PA6 = {0};
  70:Core/Src/main.c **** GPIO_PIN PA7 = {0};
  71:Core/Src/main.c **** GPIO_PIN PE3 = {0};
  72:Core/Src/main.c **** GPIO_PIN PE4 = {0};
  73:Core/Src/main.c **** 
  74:Core/Src/main.c **** int uartPixelCount = 0;
  75:Core/Src/main.c **** 
  76:Core/Src/main.c **** int currColor = 0;
  77:Core/Src/main.c **** int buttonDelay = 0;
  78:Core/Src/main.c **** 
  79:Core/Src/main.c **** 
  80:Core/Src/main.c **** 
  81:Core/Src/main.c **** NOS_Short value;
  82:Core/Src/main.c **** /* USER CODE END PV */
  83:Core/Src/main.c **** 
  84:Core/Src/main.c **** /* Private function prototypes -----------------------------------------------*/
  85:Core/Src/main.c **** void SystemClock_Config(void);
  86:Core/Src/main.c **** static void MX_GPIO_Init(void);
  87:Core/Src/main.c **** static void MX_USART2_UART_Init(void);
  88:Core/Src/main.c **** static void MX_TIM6_Init(void);
ARM GAS  C:\Users\igorn\AppData\Local\Temp\ccZCi53b.s 			page 3


  89:Core/Src/main.c **** static void MX_SPI1_Init(void);
  90:Core/Src/main.c **** static void MX_USB_OTG_FS_PCD_Init(void);
  91:Core/Src/main.c **** /* USER CODE BEGIN PFP */
  92:Core/Src/main.c **** 
  93:Core/Src/main.c **** /* USER CODE END PFP */
  94:Core/Src/main.c **** 
  95:Core/Src/main.c **** /* Private user code ---------------------------------------------------------*/
  96:Core/Src/main.c **** /* USER CODE BEGIN 0 */
  97:Core/Src/main.c **** void HAL_UART_RxCpltCallback(UART_HandleTypeDef* huart) {
  98:Core/Src/main.c ****     NOS_UART_ReceiveHandler(&UART2,huart);
  99:Core/Src/main.c **** }
 100:Core/Src/main.c **** 
 101:Core/Src/main.c ****   bool tick = false;
 102:Core/Src/main.c **** /* USER CODE END 0 */
 103:Core/Src/main.c ****       PixelColor red = {0xFF,0x00,0x00};
 104:Core/Src/main.c **** /**
 105:Core/Src/main.c ****   * @brief  The application entry point.
 106:Core/Src/main.c ****   * @retval int
 107:Core/Src/main.c ****   */
 108:Core/Src/main.c **** int main(void)
 109:Core/Src/main.c **** {
 110:Core/Src/main.c ****   /* USER CODE BEGIN 1 */
 111:Core/Src/main.c **** 
 112:Core/Src/main.c ****   /* USER CODE END 1 */
 113:Core/Src/main.c **** 
 114:Core/Src/main.c ****   /* MCU Configuration--------------------------------------------------------*/
 115:Core/Src/main.c **** 
 116:Core/Src/main.c ****   /* Reset of all peripherals, Initializes the Flash interface and the Systick. */
 117:Core/Src/main.c ****   HAL_Init();
 118:Core/Src/main.c **** 
 119:Core/Src/main.c ****   /* USER CODE BEGIN Init */
 120:Core/Src/main.c **** 
 121:Core/Src/main.c ****   /* USER CODE END Init */
 122:Core/Src/main.c **** 
 123:Core/Src/main.c ****   /* Configure the system clock */
 124:Core/Src/main.c ****   SystemClock_Config();
 125:Core/Src/main.c **** 
 126:Core/Src/main.c ****   /* USER CODE BEGIN SysInit */
 127:Core/Src/main.c **** 
 128:Core/Src/main.c ****   /* USER CODE END SysInit */
 129:Core/Src/main.c **** 
 130:Core/Src/main.c ****   /* Initialize all configured peripherals */
 131:Core/Src/main.c ****   MX_GPIO_Init();
 132:Core/Src/main.c ****   MX_USART2_UART_Init();
 133:Core/Src/main.c ****   //MX_TIM6_Init();
 134:Core/Src/main.c ****   //MX_SPI1_Init();
 135:Core/Src/main.c ****   //MX_USB_OTG_FS_PCD_Init();
 136:Core/Src/main.c ****   /* USER CODE BEGIN 2 */
 137:Core/Src/main.c ****   HAL_UART_Receive_IT(&huart2,UART2.rx_buff,1);
 138:Core/Src/main.c ****   HAL_UART_Transmit(&huart2,"HELLO",sizeof("HELLO"),1000);
 139:Core/Src/main.c ****   visInit();
 140:Core/Src/main.c **** 
 141:Core/Src/main.c ****   NOS_WS2812B_Strip_FullInit(&stripA,&frameBuffer1,&pixelsA,128);
 142:Core/Src/main.c **** 
 143:Core/Src/main.c ****   NOS_TimeEvent_Init(&tetrisUpdateEvent, 50);
 144:Core/Src/main.c ****   NOS_TimeEvent_Init(&screenUpdateEvent, 20);
 145:Core/Src/main.c ****   NOS_TimeEvent_Init(&uartTestEvent, 1000);
ARM GAS  C:\Users\igorn\AppData\Local\Temp\ccZCi53b.s 			page 4


 146:Core/Src/main.c ****   //NOS_WS2812B_Strip_TestFill(&stripA);
 147:Core/Src/main.c **** 
 148:Core/Src/main.c ****   NOS_Math_SinValue_Init(&bright,65,75,1);
 149:Core/Src/main.c **** 
 150:Core/Src/main.c ****   NOS_GPIO_PinInit(&PE3,GPIOE,GPIO_PIN_3,Input);
 151:Core/Src/main.c ****   NOS_GPIO_PinInit(&PE4,GPIOE,GPIO_PIN_4,Input);
 152:Core/Src/main.c **** 
 153:Core/Src/main.c ****   NOS_Button_Init(&button,&PE3);
 154:Core/Src/main.c **** 
 155:Core/Src/main.c ****   NOS_GPIO_PinInit(&PA6,GPIOA,GPIO_PIN_6,Output);
 156:Core/Src/main.c ****   NOS_GPIO_PinInit(&PA7,GPIOA,GPIO_PIN_7,Output);
 157:Core/Src/main.c **** 
 158:Core/Src/main.c ****   NOS_UART_ReceiveAbort(&UART2);
 159:Core/Src/main.c **** 
 160:Core/Src/main.c ****   /* USER CODE END 2 */
 161:Core/Src/main.c **** 
 162:Core/Src/main.c ****   /* Infinite loop */
 163:Core/Src/main.c ****   /* USER CODE BEGIN WHILE */
 164:Core/Src/main.c ****   while (1)
 165:Core/Src/main.c ****   {
 166:Core/Src/main.c ****     if(tick)
 167:Core/Src/main.c ****     {
 168:Core/Src/main.c ****           NOS_UART_Timer_Handler(&UART2);
 169:Core/Src/main.c ****           NOS_TimeEvent_TickHandler(&tetrisUpdateEvent);
 170:Core/Src/main.c ****           NOS_TimeEvent_TickHandler(&screenUpdateEvent);
 171:Core/Src/main.c ****           NOS_Button_TimerHandler(&button);
 172:Core/Src/main.c **** 
 173:Core/Src/main.c ****           tick = false;
 174:Core/Src/main.c ****     }
 175:Core/Src/main.c **** 
 176:Core/Src/main.c ****     if(NOS_UART_CheckReceive(&UART2))
 177:Core/Src/main.c ****     {
 178:Core/Src/main.c ****       char mess[] = "Recieved!";
 179:Core/Src/main.c ****       uint32_t buff = 0; 
 180:Core/Src/main.c **** 
 181:Core/Src/main.c ****       if(NOS_Strip_Uart_ParseCommand(&stripA,NOS_UART_GetReceivedData(&UART2)) == "ready!")
 182:Core/Src/main.c ****       {
 183:Core/Src/main.c ****         HAL_UART_Transmit(&huart2,"ready!",7,1000);
 184:Core/Src/main.c ****       }
 185:Core/Src/main.c ****       
 186:Core/Src/main.c ****       NOS_UART_EndReceive(&UART2);
 187:Core/Src/main.c ****     }
 188:Core/Src/main.c **** 
 189:Core/Src/main.c ****     if (NOS_TimeEvent_Check(&tetrisUpdateEvent))
 190:Core/Src/main.c ****     { 
 191:Core/Src/main.c ****       NOS_Math_SinValue_Handler(&bright);
 192:Core/Src/main.c ****       NOS_TimeEvent_FinishEvent(&tetrisUpdateEvent);
 193:Core/Src/main.c ****     }
 194:Core/Src/main.c ****     
 195:Core/Src/main.c ****     if (NOS_TimeEvent_Check(&screenUpdateEvent))
 196:Core/Src/main.c ****     {
 197:Core/Src/main.c ****       //NOS_WS2812B_Strip_ColorFill(&stripA,red);
 198:Core/Src/main.c ****       //stripA.bright = NOS_Math_GetSinValue(&bright);
 199:Core/Src/main.c ****       NOS_WS2812B_Strip_Update(&stripA);
 200:Core/Src/main.c ****       visHandle();
 201:Core/Src/main.c **** 
 202:Core/Src/main.c ****       NOS_TimeEvent_FinishEvent(&screenUpdateEvent);
ARM GAS  C:\Users\igorn\AppData\Local\Temp\ccZCi53b.s 			page 5


 203:Core/Src/main.c ****     }
 204:Core/Src/main.c **** 
 205:Core/Src/main.c ****     if(NOS_Button_CheckPressDone(&button))
 206:Core/Src/main.c ****     {
 207:Core/Src/main.c ****       if(currColor < 11)
 208:Core/Src/main.c ****       {
 209:Core/Src/main.c ****         currColor++;
 210:Core/Src/main.c ****       }
 211:Core/Src/main.c ****       else
 212:Core/Src/main.c ****       {
 213:Core/Src/main.c ****         currColor = 0;
 214:Core/Src/main.c ****       }
 215:Core/Src/main.c ****       NOS_WS2812B_Strip_ColorFill(&stripA,NOS_GetBaseColor(currColor));
 216:Core/Src/main.c ****       NOS_Button_PressDoneHandler(&button);
 217:Core/Src/main.c ****     }
 218:Core/Src/main.c **** 
 219:Core/Src/main.c **** 
 220:Core/Src/main.c **** 
 221:Core/Src/main.c **** 
 222:Core/Src/main.c **** 
 223:Core/Src/main.c ****     /* USER CODE END WHILE */
 224:Core/Src/main.c **** 
 225:Core/Src/main.c ****     /* USER CODE BEGIN 3 */
 226:Core/Src/main.c ****   }
 227:Core/Src/main.c ****   /* USER CODE END 3 */
 228:Core/Src/main.c **** 
 229:Core/Src/main.c ****   
 230:Core/Src/main.c **** }
 231:Core/Src/main.c **** 
 232:Core/Src/main.c **** /**
 233:Core/Src/main.c ****   * @brief System Clock Configuration
 234:Core/Src/main.c ****   * @retval None
 235:Core/Src/main.c ****   */
 236:Core/Src/main.c **** void SystemClock_Config(void)
 237:Core/Src/main.c **** {
 238:Core/Src/main.c ****   RCC_OscInitTypeDef RCC_OscInitStruct = {0};
 239:Core/Src/main.c ****   RCC_ClkInitTypeDef RCC_ClkInitStruct = {0};
 240:Core/Src/main.c **** 
 241:Core/Src/main.c ****   /** Configure the main internal regulator output voltage
 242:Core/Src/main.c ****   */
 243:Core/Src/main.c ****   __HAL_RCC_PWR_CLK_ENABLE();
 244:Core/Src/main.c ****   __HAL_PWR_VOLTAGESCALING_CONFIG(PWR_REGULATOR_VOLTAGE_SCALE1);
 245:Core/Src/main.c ****   /** Initializes the RCC Oscillators according to the specified parameters
 246:Core/Src/main.c ****   * in the RCC_OscInitTypeDef structure.
 247:Core/Src/main.c ****   */
 248:Core/Src/main.c ****   RCC_OscInitStruct.OscillatorType = RCC_OSCILLATORTYPE_HSI;
 249:Core/Src/main.c ****   RCC_OscInitStruct.HSIState = RCC_HSI_ON;
 250:Core/Src/main.c ****   RCC_OscInitStruct.HSICalibrationValue = RCC_HSICALIBRATION_DEFAULT;
 251:Core/Src/main.c ****   RCC_OscInitStruct.PLL.PLLState = RCC_PLL_ON;
 252:Core/Src/main.c ****   RCC_OscInitStruct.PLL.PLLSource = RCC_PLLSOURCE_HSI;
 253:Core/Src/main.c ****   RCC_OscInitStruct.PLL.PLLM = 8;
 254:Core/Src/main.c ****   RCC_OscInitStruct.PLL.PLLN = 168;
 255:Core/Src/main.c ****   RCC_OscInitStruct.PLL.PLLP = RCC_PLLP_DIV2;
 256:Core/Src/main.c ****   RCC_OscInitStruct.PLL.PLLQ = 4;
 257:Core/Src/main.c ****   if (HAL_RCC_OscConfig(&RCC_OscInitStruct) != HAL_OK)
 258:Core/Src/main.c ****   {
 259:Core/Src/main.c ****     Error_Handler();
ARM GAS  C:\Users\igorn\AppData\Local\Temp\ccZCi53b.s 			page 6


 260:Core/Src/main.c ****   }
 261:Core/Src/main.c ****   /** Initializes the CPU, AHB and APB buses clocks
 262:Core/Src/main.c ****   */
 263:Core/Src/main.c ****   RCC_ClkInitStruct.ClockType = RCC_CLOCKTYPE_HCLK|RCC_CLOCKTYPE_SYSCLK
 264:Core/Src/main.c ****                               |RCC_CLOCKTYPE_PCLK1|RCC_CLOCKTYPE_PCLK2;
 265:Core/Src/main.c ****   RCC_ClkInitStruct.SYSCLKSource = RCC_SYSCLKSOURCE_PLLCLK;
 266:Core/Src/main.c ****   RCC_ClkInitStruct.AHBCLKDivider = RCC_SYSCLK_DIV1;
 267:Core/Src/main.c ****   RCC_ClkInitStruct.APB1CLKDivider = RCC_HCLK_DIV4;
 268:Core/Src/main.c ****   RCC_ClkInitStruct.APB2CLKDivider = RCC_HCLK_DIV2;
 269:Core/Src/main.c **** 
 270:Core/Src/main.c ****   if (HAL_RCC_ClockConfig(&RCC_ClkInitStruct, FLASH_LATENCY_5) != HAL_OK)
 271:Core/Src/main.c ****   {
 272:Core/Src/main.c ****     Error_Handler();
 273:Core/Src/main.c ****   }
 274:Core/Src/main.c **** }
 275:Core/Src/main.c **** 
 276:Core/Src/main.c **** 
 277:Core/Src/main.c **** /**
 278:Core/Src/main.c ****   * @brief SPI1 Initialization Function
 279:Core/Src/main.c ****   * @param None
 280:Core/Src/main.c ****   * @retval None
 281:Core/Src/main.c ****   */
 282:Core/Src/main.c **** static void MX_SPI1_Init(void)
 283:Core/Src/main.c **** {
 284:Core/Src/main.c **** 
 285:Core/Src/main.c ****   /* USER CODE BEGIN SPI1_Init 0 */
 286:Core/Src/main.c **** 
 287:Core/Src/main.c ****   /* USER CODE END SPI1_Init 0 */
 288:Core/Src/main.c **** 
 289:Core/Src/main.c ****   /* USER CODE BEGIN SPI1_Init 1 */
 290:Core/Src/main.c **** 
 291:Core/Src/main.c ****   /* USER CODE END SPI1_Init 1 */
 292:Core/Src/main.c ****   /* SPI1 parameter configuration*/
 293:Core/Src/main.c ****   hspi1.Instance = SPI1;
 294:Core/Src/main.c ****   hspi1.Init.Mode = SPI_MODE_MASTER;
 295:Core/Src/main.c ****   hspi1.Init.Direction = SPI_DIRECTION_2LINES;
 296:Core/Src/main.c ****   hspi1.Init.DataSize = SPI_DATASIZE_8BIT;
 297:Core/Src/main.c ****   hspi1.Init.CLKPolarity = SPI_POLARITY_LOW;
 298:Core/Src/main.c ****   hspi1.Init.CLKPhase = SPI_PHASE_1EDGE;
 299:Core/Src/main.c ****   hspi1.Init.NSS = SPI_NSS_SOFT;
 300:Core/Src/main.c ****   hspi1.Init.BaudRatePrescaler = SPI_BAUDRATEPRESCALER_2;
 301:Core/Src/main.c ****   hspi1.Init.FirstBit = SPI_FIRSTBIT_MSB;
 302:Core/Src/main.c ****   hspi1.Init.TIMode = SPI_TIMODE_DISABLE;
 303:Core/Src/main.c ****   hspi1.Init.CRCCalculation = SPI_CRCCALCULATION_DISABLE;
 304:Core/Src/main.c ****   hspi1.Init.CRCPolynomial = 10;
 305:Core/Src/main.c ****   if (HAL_SPI_Init(&hspi1) != HAL_OK)
 306:Core/Src/main.c ****   {
 307:Core/Src/main.c ****     Error_Handler();
 308:Core/Src/main.c ****   }
 309:Core/Src/main.c ****   /* USER CODE BEGIN SPI1_Init 2 */
 310:Core/Src/main.c **** 
 311:Core/Src/main.c ****   /* USER CODE END SPI1_Init 2 */
 312:Core/Src/main.c **** 
 313:Core/Src/main.c **** }
 314:Core/Src/main.c **** 
 315:Core/Src/main.c **** /**
 316:Core/Src/main.c ****   * @brief TIM6 Initialization Function
ARM GAS  C:\Users\igorn\AppData\Local\Temp\ccZCi53b.s 			page 7


 317:Core/Src/main.c ****   * @param None
 318:Core/Src/main.c ****   * @retval None
 319:Core/Src/main.c ****   */
 320:Core/Src/main.c **** static void MX_TIM6_Init(void)
 321:Core/Src/main.c **** {
 322:Core/Src/main.c **** 
 323:Core/Src/main.c ****   /* USER CODE BEGIN TIM6_Init 0 */
 324:Core/Src/main.c **** 
 325:Core/Src/main.c ****   /* USER CODE END TIM6_Init 0 */
 326:Core/Src/main.c **** 
 327:Core/Src/main.c ****   TIM_MasterConfigTypeDef sMasterConfig = {0};
 328:Core/Src/main.c **** 
 329:Core/Src/main.c ****   /* USER CODE BEGIN TIM6_Init 1 */
 330:Core/Src/main.c **** 
 331:Core/Src/main.c ****   /* USER CODE END TIM6_Init 1 */
 332:Core/Src/main.c ****   htim6.Instance = TIM6;
 333:Core/Src/main.c ****   htim6.Init.Prescaler = 0;
 334:Core/Src/main.c ****   htim6.Init.CounterMode = TIM_COUNTERMODE_UP;
 335:Core/Src/main.c ****   htim6.Init.Period = 65535;
 336:Core/Src/main.c ****   htim6.Init.AutoReloadPreload = TIM_AUTORELOAD_PRELOAD_DISABLE;
 337:Core/Src/main.c ****   if (HAL_TIM_Base_Init(&htim6) != HAL_OK)
 338:Core/Src/main.c ****   {
 339:Core/Src/main.c ****     Error_Handler();
 340:Core/Src/main.c ****   }
 341:Core/Src/main.c ****   sMasterConfig.MasterOutputTrigger = TIM_TRGO_RESET;
 342:Core/Src/main.c ****   sMasterConfig.MasterSlaveMode = TIM_MASTERSLAVEMODE_DISABLE;
 343:Core/Src/main.c ****   if (HAL_TIMEx_MasterConfigSynchronization(&htim6, &sMasterConfig) != HAL_OK)
 344:Core/Src/main.c ****   {
 345:Core/Src/main.c ****     Error_Handler();
 346:Core/Src/main.c ****   }
 347:Core/Src/main.c ****   /* USER CODE BEGIN TIM6_Init 2 */
 348:Core/Src/main.c **** 
 349:Core/Src/main.c ****   /* USER CODE END TIM6_Init 2 */
 350:Core/Src/main.c **** 
 351:Core/Src/main.c **** }
 352:Core/Src/main.c **** 
 353:Core/Src/main.c **** /**
 354:Core/Src/main.c ****   * @brief USART2 Initialization Function
 355:Core/Src/main.c ****   * @param None
 356:Core/Src/main.c ****   * @retval None
 357:Core/Src/main.c ****   */
 358:Core/Src/main.c **** static void MX_USART2_UART_Init(void)
 359:Core/Src/main.c **** {
 360:Core/Src/main.c **** 
 361:Core/Src/main.c ****   /* USER CODE BEGIN USART2_Init 0 */
 362:Core/Src/main.c **** 
 363:Core/Src/main.c ****   /* USER CODE END USART2_Init 0 */
 364:Core/Src/main.c **** 
 365:Core/Src/main.c ****   /* USER CODE BEGIN USART2_Init 1 */
 366:Core/Src/main.c **** 
 367:Core/Src/main.c ****   /* USER CODE END USART2_Init 1 */
 368:Core/Src/main.c ****   huart2.Instance = USART2;
 369:Core/Src/main.c ****   huart2.Init.BaudRate = 115200;
 370:Core/Src/main.c ****   huart2.Init.WordLength = UART_WORDLENGTH_8B;
 371:Core/Src/main.c ****   huart2.Init.StopBits = UART_STOPBITS_1;
 372:Core/Src/main.c ****   huart2.Init.Parity = UART_PARITY_NONE;
 373:Core/Src/main.c ****   huart2.Init.Mode = UART_MODE_TX_RX;
ARM GAS  C:\Users\igorn\AppData\Local\Temp\ccZCi53b.s 			page 8


 374:Core/Src/main.c ****   huart2.Init.HwFlowCtl = UART_HWCONTROL_NONE;
 375:Core/Src/main.c ****   huart2.Init.OverSampling = UART_OVERSAMPLING_16;
 376:Core/Src/main.c ****   if (HAL_UART_Init(&huart2) != HAL_OK)
 377:Core/Src/main.c ****   {
 378:Core/Src/main.c ****     Error_Handler();
 379:Core/Src/main.c ****   }
 380:Core/Src/main.c ****   /* USER CODE BEGIN USART2_Init 2 */
 381:Core/Src/main.c **** 
 382:Core/Src/main.c ****   /* USER CODE END USART2_Init 2 */
 383:Core/Src/main.c **** 
 384:Core/Src/main.c **** }
 385:Core/Src/main.c **** 
 386:Core/Src/main.c **** /**
 387:Core/Src/main.c ****   * @brief USB_OTG_FS Initialization Function
 388:Core/Src/main.c ****   * @param None
 389:Core/Src/main.c ****   * @retval None
 390:Core/Src/main.c ****   */
 391:Core/Src/main.c **** static void MX_USB_OTG_FS_PCD_Init(void)
 392:Core/Src/main.c **** {
 393:Core/Src/main.c **** 
 394:Core/Src/main.c ****   /* USER CODE BEGIN USB_OTG_FS_Init 0 */
 395:Core/Src/main.c **** 
 396:Core/Src/main.c ****   /* USER CODE END USB_OTG_FS_Init 0 */
 397:Core/Src/main.c **** 
 398:Core/Src/main.c ****   /* USER CODE BEGIN USB_OTG_FS_Init 1 */
 399:Core/Src/main.c **** 
 400:Core/Src/main.c ****   /* USER CODE END USB_OTG_FS_Init 1 */
 401:Core/Src/main.c ****   hpcd_USB_OTG_FS.Instance = USB_OTG_FS;
 402:Core/Src/main.c ****   hpcd_USB_OTG_FS.Init.dev_endpoints = 4;
 403:Core/Src/main.c ****   hpcd_USB_OTG_FS.Init.speed = PCD_SPEED_FULL;
 404:Core/Src/main.c ****   hpcd_USB_OTG_FS.Init.dma_enable = DISABLE;
 405:Core/Src/main.c ****   hpcd_USB_OTG_FS.Init.phy_itface = PCD_PHY_EMBEDDED;
 406:Core/Src/main.c ****   hpcd_USB_OTG_FS.Init.Sof_enable = DISABLE;
 407:Core/Src/main.c ****   hpcd_USB_OTG_FS.Init.low_power_enable = DISABLE;
 408:Core/Src/main.c ****   hpcd_USB_OTG_FS.Init.lpm_enable = DISABLE;
 409:Core/Src/main.c ****   hpcd_USB_OTG_FS.Init.vbus_sensing_enable = DISABLE;
 410:Core/Src/main.c ****   hpcd_USB_OTG_FS.Init.use_dedicated_ep1 = DISABLE;
 411:Core/Src/main.c ****   if (HAL_PCD_Init(&hpcd_USB_OTG_FS) != HAL_OK)
 412:Core/Src/main.c ****   {
 413:Core/Src/main.c ****     Error_Handler();
 414:Core/Src/main.c ****   }
 415:Core/Src/main.c ****   /* USER CODE BEGIN USB_OTG_FS_Init 2 */
 416:Core/Src/main.c **** 
 417:Core/Src/main.c ****   /* USER CODE END USB_OTG_FS_Init 2 */
 418:Core/Src/main.c **** 
 419:Core/Src/main.c **** }
 420:Core/Src/main.c **** 
 421:Core/Src/main.c **** /**
 422:Core/Src/main.c ****   * @brief GPIO Initialization Function
 423:Core/Src/main.c ****   * @param None
 424:Core/Src/main.c ****   * @retval None
 425:Core/Src/main.c ****   */
 426:Core/Src/main.c **** static void MX_GPIO_Init(void)
 427:Core/Src/main.c **** {
  28              		.loc 1 427 1 view -0
  29              		.cfi_startproc
  30              		@ args = 0, pretend = 0, frame = 40
ARM GAS  C:\Users\igorn\AppData\Local\Temp\ccZCi53b.s 			page 9


  31              		@ frame_needed = 0, uses_anonymous_args = 0
  32              		@ link register save eliminated.
  33 0000 8AB0     		sub	sp, sp, #40
  34              		.cfi_def_cfa_offset 40
 428:Core/Src/main.c ****   GPIO_InitTypeDef GPIO_InitStruct = {0};
  35              		.loc 1 428 3 view .LVU1
  36              		.loc 1 428 20 is_stmt 0 view .LVU2
  37 0002 0022     		movs	r2, #0
  38 0004 0592     		str	r2, [sp, #20]
  39 0006 0692     		str	r2, [sp, #24]
  40 0008 0792     		str	r2, [sp, #28]
  41 000a 0892     		str	r2, [sp, #32]
  42 000c 0992     		str	r2, [sp, #36]
 429:Core/Src/main.c **** /* USER CODE BEGIN MX_GPIO_Init_1 */
 430:Core/Src/main.c **** /* USER CODE END MX_GPIO_Init_1 */
 431:Core/Src/main.c **** 
 432:Core/Src/main.c ****   /* GPIO Ports Clock Enable */
 433:Core/Src/main.c ****   __HAL_RCC_GPIOE_CLK_ENABLE();
  43              		.loc 1 433 3 is_stmt 1 view .LVU3
  44              	.LBB4:
  45              		.loc 1 433 3 view .LVU4
  46 000e 0092     		str	r2, [sp]
  47              		.loc 1 433 3 view .LVU5
  48 0010 194B     		ldr	r3, .L3
  49 0012 196B     		ldr	r1, [r3, #48]
  50 0014 41F01001 		orr	r1, r1, #16
  51 0018 1963     		str	r1, [r3, #48]
  52              		.loc 1 433 3 view .LVU6
  53 001a 196B     		ldr	r1, [r3, #48]
  54 001c 01F01001 		and	r1, r1, #16
  55 0020 0091     		str	r1, [sp]
  56              		.loc 1 433 3 view .LVU7
  57 0022 0099     		ldr	r1, [sp]
  58              	.LBE4:
  59              		.loc 1 433 3 view .LVU8
 434:Core/Src/main.c ****   __HAL_RCC_GPIOC_CLK_ENABLE();
  60              		.loc 1 434 3 view .LVU9
  61              	.LBB5:
  62              		.loc 1 434 3 view .LVU10
  63 0024 0192     		str	r2, [sp, #4]
  64              		.loc 1 434 3 view .LVU11
  65 0026 196B     		ldr	r1, [r3, #48]
  66 0028 41F00401 		orr	r1, r1, #4
  67 002c 1963     		str	r1, [r3, #48]
  68              		.loc 1 434 3 view .LVU12
  69 002e 196B     		ldr	r1, [r3, #48]
  70 0030 01F00401 		and	r1, r1, #4
  71 0034 0191     		str	r1, [sp, #4]
  72              		.loc 1 434 3 view .LVU13
  73 0036 0199     		ldr	r1, [sp, #4]
  74              	.LBE5:
  75              		.loc 1 434 3 view .LVU14
 435:Core/Src/main.c ****   __HAL_RCC_GPIOH_CLK_ENABLE();
  76              		.loc 1 435 3 view .LVU15
  77              	.LBB6:
  78              		.loc 1 435 3 view .LVU16
  79 0038 0292     		str	r2, [sp, #8]
ARM GAS  C:\Users\igorn\AppData\Local\Temp\ccZCi53b.s 			page 10


  80              		.loc 1 435 3 view .LVU17
  81 003a 196B     		ldr	r1, [r3, #48]
  82 003c 41F08001 		orr	r1, r1, #128
  83 0040 1963     		str	r1, [r3, #48]
  84              		.loc 1 435 3 view .LVU18
  85 0042 196B     		ldr	r1, [r3, #48]
  86 0044 01F08001 		and	r1, r1, #128
  87 0048 0291     		str	r1, [sp, #8]
  88              		.loc 1 435 3 view .LVU19
  89 004a 0299     		ldr	r1, [sp, #8]
  90              	.LBE6:
  91              		.loc 1 435 3 view .LVU20
 436:Core/Src/main.c ****   __HAL_RCC_GPIOA_CLK_ENABLE();
  92              		.loc 1 436 3 view .LVU21
  93              	.LBB7:
  94              		.loc 1 436 3 view .LVU22
  95 004c 0392     		str	r2, [sp, #12]
  96              		.loc 1 436 3 view .LVU23
  97 004e 196B     		ldr	r1, [r3, #48]
  98 0050 41F00101 		orr	r1, r1, #1
  99 0054 1963     		str	r1, [r3, #48]
 100              		.loc 1 436 3 view .LVU24
 101 0056 196B     		ldr	r1, [r3, #48]
 102 0058 01F00101 		and	r1, r1, #1
 103 005c 0391     		str	r1, [sp, #12]
 104              		.loc 1 436 3 view .LVU25
 105 005e 0399     		ldr	r1, [sp, #12]
 106              	.LBE7:
 107              		.loc 1 436 3 view .LVU26
 437:Core/Src/main.c ****   __HAL_RCC_GPIOB_CLK_ENABLE();
 108              		.loc 1 437 3 view .LVU27
 109              	.LBB8:
 110              		.loc 1 437 3 view .LVU28
 111 0060 0492     		str	r2, [sp, #16]
 112              		.loc 1 437 3 view .LVU29
 113 0062 1A6B     		ldr	r2, [r3, #48]
 114 0064 42F00202 		orr	r2, r2, #2
 115 0068 1A63     		str	r2, [r3, #48]
 116              		.loc 1 437 3 view .LVU30
 117 006a 1B6B     		ldr	r3, [r3, #48]
 118 006c 03F00203 		and	r3, r3, #2
 119 0070 0493     		str	r3, [sp, #16]
 120              		.loc 1 437 3 view .LVU31
 121 0072 049B     		ldr	r3, [sp, #16]
 122              	.LBE8:
 123              		.loc 1 437 3 view .LVU32
 438:Core/Src/main.c **** 
 439:Core/Src/main.c ****   /*Configure GPIO pins : PE3 PE4 */
 440:Core/Src/main.c **** 
 441:Core/Src/main.c **** /* USER CODE BEGIN MX_GPIO_Init_2 */
 442:Core/Src/main.c **** /* USER CODE END MX_GPIO_Init_2 */
 443:Core/Src/main.c **** }
 124              		.loc 1 443 1 is_stmt 0 view .LVU33
 125 0074 0AB0     		add	sp, sp, #40
 126              		.cfi_def_cfa_offset 0
 127              		@ sp needed
 128 0076 7047     		bx	lr
ARM GAS  C:\Users\igorn\AppData\Local\Temp\ccZCi53b.s 			page 11


 129              	.L4:
 130              		.align	2
 131              	.L3:
 132 0078 00380240 		.word	1073887232
 133              		.cfi_endproc
 134              	.LFE137:
 136              		.section	.text.HAL_UART_RxCpltCallback,"ax",%progbits
 137              		.align	1
 138              		.global	HAL_UART_RxCpltCallback
 139              		.syntax unified
 140              		.thumb
 141              		.thumb_func
 143              	HAL_UART_RxCpltCallback:
 144              	.LVL0:
 145              	.LFB130:
  97:Core/Src/main.c ****     NOS_UART_ReceiveHandler(&UART2,huart);
 146              		.loc 1 97 57 is_stmt 1 view -0
 147              		.cfi_startproc
 148              		@ args = 0, pretend = 0, frame = 0
 149              		@ frame_needed = 0, uses_anonymous_args = 0
  97:Core/Src/main.c ****     NOS_UART_ReceiveHandler(&UART2,huart);
 150              		.loc 1 97 57 is_stmt 0 view .LVU35
 151 0000 08B5     		push	{r3, lr}
 152              		.cfi_def_cfa_offset 8
 153              		.cfi_offset 3, -8
 154              		.cfi_offset 14, -4
 155 0002 0146     		mov	r1, r0
  98:Core/Src/main.c **** }
 156              		.loc 1 98 5 is_stmt 1 view .LVU36
 157 0004 0148     		ldr	r0, .L7
 158              	.LVL1:
  98:Core/Src/main.c **** }
 159              		.loc 1 98 5 is_stmt 0 view .LVU37
 160 0006 FFF7FEFF 		bl	NOS_UART_ReceiveHandler
 161              	.LVL2:
  99:Core/Src/main.c **** 
 162              		.loc 1 99 1 view .LVU38
 163 000a 08BD     		pop	{r3, pc}
 164              	.L8:
 165              		.align	2
 166              	.L7:
 167 000c 00000000 		.word	UART2
 168              		.cfi_endproc
 169              	.LFE130:
 171              		.section	.text.SysTick_Handler,"ax",%progbits
 172              		.align	1
 173              		.global	SysTick_Handler
 174              		.syntax unified
 175              		.thumb
 176              		.thumb_func
 178              	SysTick_Handler:
 179              	.LFB138:
 444:Core/Src/main.c **** 
 445:Core/Src/main.c **** /* USER CODE BEGIN 4 */
 446:Core/Src/main.c **** void SysTick_Handler(void)
 447:Core/Src/main.c **** {
 180              		.loc 1 447 1 is_stmt 1 view -0
ARM GAS  C:\Users\igorn\AppData\Local\Temp\ccZCi53b.s 			page 12


 181              		.cfi_startproc
 182              		@ args = 0, pretend = 0, frame = 0
 183              		@ frame_needed = 0, uses_anonymous_args = 0
 184 0000 08B5     		push	{r3, lr}
 185              		.cfi_def_cfa_offset 8
 186              		.cfi_offset 3, -8
 187              		.cfi_offset 14, -4
 448:Core/Src/main.c ****   /* USER CODE BEGIN SysTick_IRQn 0 */
 449:Core/Src/main.c **** 
 450:Core/Src/main.c ****   /* USER CODE END SysTick_IRQn 0 */
 451:Core/Src/main.c ****   HAL_IncTick();
 188              		.loc 1 451 3 view .LVU40
 189 0002 FFF7FEFF 		bl	HAL_IncTick
 190              	.LVL3:
 452:Core/Src/main.c ****   /* USER CODE BEGIN SysTick_IRQn 1 */
 453:Core/Src/main.c **** tick = true;
 191              		.loc 1 453 1 view .LVU41
 192              		.loc 1 453 6 is_stmt 0 view .LVU42
 193 0006 024B     		ldr	r3, .L11
 194 0008 0122     		movs	r2, #1
 195 000a 1A70     		strb	r2, [r3]
 454:Core/Src/main.c ****   /* USER CODE END SysTick_IRQn 1 */
 455:Core/Src/main.c **** }
 196              		.loc 1 455 1 view .LVU43
 197 000c 08BD     		pop	{r3, pc}
 198              	.L12:
 199 000e 00BF     		.align	2
 200              	.L11:
 201 0010 00000000 		.word	tick
 202              		.cfi_endproc
 203              	.LFE138:
 205              		.section	.text.EXTI3_IRQHandler,"ax",%progbits
 206              		.align	1
 207              		.global	EXTI3_IRQHandler
 208              		.syntax unified
 209              		.thumb
 210              		.thumb_func
 212              	EXTI3_IRQHandler:
 213              	.LFB139:
 456:Core/Src/main.c **** 
 457:Core/Src/main.c **** void EXTI3_IRQHandler(void)
 458:Core/Src/main.c **** {
 214              		.loc 1 458 1 is_stmt 1 view -0
 215              		.cfi_startproc
 216              		@ args = 0, pretend = 0, frame = 0
 217              		@ frame_needed = 0, uses_anonymous_args = 0
 218 0000 08B5     		push	{r3, lr}
 219              		.cfi_def_cfa_offset 8
 220              		.cfi_offset 3, -8
 221              		.cfi_offset 14, -4
 459:Core/Src/main.c ****   /* USER CODE BEGIN EXTI3_IRQn 0 */
 460:Core/Src/main.c **** 
 461:Core/Src/main.c ****   /* USER CODE END EXTI3_IRQn 0 */
 462:Core/Src/main.c ****   HAL_GPIO_EXTI_IRQHandler(GPIO_PIN_3);
 222              		.loc 1 462 3 view .LVU45
 223 0002 0820     		movs	r0, #8
 224 0004 FFF7FEFF 		bl	HAL_GPIO_EXTI_IRQHandler
ARM GAS  C:\Users\igorn\AppData\Local\Temp\ccZCi53b.s 			page 13


 225              	.LVL4:
 463:Core/Src/main.c ****   /* USER CODE BEGIN EXTI3_IRQn 1 */
 464:Core/Src/main.c **** 
 465:Core/Src/main.c **** 
 466:Core/Src/main.c ****   /* USER CODE END EXTI3_IRQn 1 */
 467:Core/Src/main.c **** }
 226              		.loc 1 467 1 is_stmt 0 view .LVU46
 227 0008 08BD     		pop	{r3, pc}
 228              		.cfi_endproc
 229              	.LFE139:
 231              		.section	.text.Error_Handler,"ax",%progbits
 232              		.align	1
 233              		.global	Error_Handler
 234              		.syntax unified
 235              		.thumb
 236              		.thumb_func
 238              	Error_Handler:
 239              	.LFB140:
 468:Core/Src/main.c **** 
 469:Core/Src/main.c **** /* USER CODE END 4 */
 470:Core/Src/main.c **** 
 471:Core/Src/main.c **** /**
 472:Core/Src/main.c ****   * @brief  This function is executed in case of error occurrence.
 473:Core/Src/main.c ****   * @retval None
 474:Core/Src/main.c ****   */
 475:Core/Src/main.c **** void Error_Handler(void)
 476:Core/Src/main.c **** {
 240              		.loc 1 476 1 is_stmt 1 view -0
 241              		.cfi_startproc
 242              		@ Volatile: function does not return.
 243              		@ args = 0, pretend = 0, frame = 0
 244              		@ frame_needed = 0, uses_anonymous_args = 0
 245              		@ link register save eliminated.
 477:Core/Src/main.c ****   /* USER CODE BEGIN Error_Handler_Debug */
 478:Core/Src/main.c ****   /* User can add his own implementation to report the HAL error return state */
 479:Core/Src/main.c ****   __disable_irq();
 246              		.loc 1 479 3 view .LVU48
 247              	.LBB9:
 248              	.LBI9:
 249              		.file 2 "Drivers/CMSIS/Include/cmsis_gcc.h"
   1:Drivers/CMSIS/Include/cmsis_gcc.h **** /**************************************************************************//**
   2:Drivers/CMSIS/Include/cmsis_gcc.h ****  * @file     cmsis_gcc.h
   3:Drivers/CMSIS/Include/cmsis_gcc.h ****  * @brief    CMSIS compiler GCC header file
   4:Drivers/CMSIS/Include/cmsis_gcc.h ****  * @version  V5.0.4
   5:Drivers/CMSIS/Include/cmsis_gcc.h ****  * @date     09. April 2018
   6:Drivers/CMSIS/Include/cmsis_gcc.h ****  ******************************************************************************/
   7:Drivers/CMSIS/Include/cmsis_gcc.h **** /*
   8:Drivers/CMSIS/Include/cmsis_gcc.h ****  * Copyright (c) 2009-2018 Arm Limited. All rights reserved.
   9:Drivers/CMSIS/Include/cmsis_gcc.h ****  *
  10:Drivers/CMSIS/Include/cmsis_gcc.h ****  * SPDX-License-Identifier: Apache-2.0
  11:Drivers/CMSIS/Include/cmsis_gcc.h ****  *
  12:Drivers/CMSIS/Include/cmsis_gcc.h ****  * Licensed under the Apache License, Version 2.0 (the License); you may
  13:Drivers/CMSIS/Include/cmsis_gcc.h ****  * not use this file except in compliance with the License.
  14:Drivers/CMSIS/Include/cmsis_gcc.h ****  * You may obtain a copy of the License at
  15:Drivers/CMSIS/Include/cmsis_gcc.h ****  *
  16:Drivers/CMSIS/Include/cmsis_gcc.h ****  * www.apache.org/licenses/LICENSE-2.0
  17:Drivers/CMSIS/Include/cmsis_gcc.h ****  *
ARM GAS  C:\Users\igorn\AppData\Local\Temp\ccZCi53b.s 			page 14


  18:Drivers/CMSIS/Include/cmsis_gcc.h ****  * Unless required by applicable law or agreed to in writing, software
  19:Drivers/CMSIS/Include/cmsis_gcc.h ****  * distributed under the License is distributed on an AS IS BASIS, WITHOUT
  20:Drivers/CMSIS/Include/cmsis_gcc.h ****  * WARRANTIES OR CONDITIONS OF ANY KIND, either express or implied.
  21:Drivers/CMSIS/Include/cmsis_gcc.h ****  * See the License for the specific language governing permissions and
  22:Drivers/CMSIS/Include/cmsis_gcc.h ****  * limitations under the License.
  23:Drivers/CMSIS/Include/cmsis_gcc.h ****  */
  24:Drivers/CMSIS/Include/cmsis_gcc.h **** 
  25:Drivers/CMSIS/Include/cmsis_gcc.h **** #ifndef __CMSIS_GCC_H
  26:Drivers/CMSIS/Include/cmsis_gcc.h **** #define __CMSIS_GCC_H
  27:Drivers/CMSIS/Include/cmsis_gcc.h **** 
  28:Drivers/CMSIS/Include/cmsis_gcc.h **** /* ignore some GCC warnings */
  29:Drivers/CMSIS/Include/cmsis_gcc.h **** #pragma GCC diagnostic push
  30:Drivers/CMSIS/Include/cmsis_gcc.h **** #pragma GCC diagnostic ignored "-Wsign-conversion"
  31:Drivers/CMSIS/Include/cmsis_gcc.h **** #pragma GCC diagnostic ignored "-Wconversion"
  32:Drivers/CMSIS/Include/cmsis_gcc.h **** #pragma GCC diagnostic ignored "-Wunused-parameter"
  33:Drivers/CMSIS/Include/cmsis_gcc.h **** 
  34:Drivers/CMSIS/Include/cmsis_gcc.h **** /* Fallback for __has_builtin */
  35:Drivers/CMSIS/Include/cmsis_gcc.h **** #ifndef __has_builtin
  36:Drivers/CMSIS/Include/cmsis_gcc.h ****   #define __has_builtin(x) (0)
  37:Drivers/CMSIS/Include/cmsis_gcc.h **** #endif
  38:Drivers/CMSIS/Include/cmsis_gcc.h **** 
  39:Drivers/CMSIS/Include/cmsis_gcc.h **** /* CMSIS compiler specific defines */
  40:Drivers/CMSIS/Include/cmsis_gcc.h **** #ifndef   __ASM
  41:Drivers/CMSIS/Include/cmsis_gcc.h ****   #define __ASM                                  __asm
  42:Drivers/CMSIS/Include/cmsis_gcc.h **** #endif
  43:Drivers/CMSIS/Include/cmsis_gcc.h **** #ifndef   __INLINE
  44:Drivers/CMSIS/Include/cmsis_gcc.h ****   #define __INLINE                               inline
  45:Drivers/CMSIS/Include/cmsis_gcc.h **** #endif
  46:Drivers/CMSIS/Include/cmsis_gcc.h **** #ifndef   __STATIC_INLINE
  47:Drivers/CMSIS/Include/cmsis_gcc.h ****   #define __STATIC_INLINE                        static inline
  48:Drivers/CMSIS/Include/cmsis_gcc.h **** #endif
  49:Drivers/CMSIS/Include/cmsis_gcc.h **** #ifndef   __STATIC_FORCEINLINE                 
  50:Drivers/CMSIS/Include/cmsis_gcc.h ****   #define __STATIC_FORCEINLINE                   __attribute__((always_inline)) static inline
  51:Drivers/CMSIS/Include/cmsis_gcc.h **** #endif                                           
  52:Drivers/CMSIS/Include/cmsis_gcc.h **** #ifndef   __NO_RETURN
  53:Drivers/CMSIS/Include/cmsis_gcc.h ****   #define __NO_RETURN                            __attribute__((__noreturn__))
  54:Drivers/CMSIS/Include/cmsis_gcc.h **** #endif
  55:Drivers/CMSIS/Include/cmsis_gcc.h **** #ifndef   __USED
  56:Drivers/CMSIS/Include/cmsis_gcc.h ****   #define __USED                                 __attribute__((used))
  57:Drivers/CMSIS/Include/cmsis_gcc.h **** #endif
  58:Drivers/CMSIS/Include/cmsis_gcc.h **** #ifndef   __WEAK
  59:Drivers/CMSIS/Include/cmsis_gcc.h ****   #define __WEAK                                 __attribute__((weak))
  60:Drivers/CMSIS/Include/cmsis_gcc.h **** #endif
  61:Drivers/CMSIS/Include/cmsis_gcc.h **** #ifndef   __PACKED
  62:Drivers/CMSIS/Include/cmsis_gcc.h ****   #define __PACKED                               __attribute__((packed, aligned(1)))
  63:Drivers/CMSIS/Include/cmsis_gcc.h **** #endif
  64:Drivers/CMSIS/Include/cmsis_gcc.h **** #ifndef   __PACKED_STRUCT
  65:Drivers/CMSIS/Include/cmsis_gcc.h ****   #define __PACKED_STRUCT                        struct __attribute__((packed, aligned(1)))
  66:Drivers/CMSIS/Include/cmsis_gcc.h **** #endif
  67:Drivers/CMSIS/Include/cmsis_gcc.h **** #ifndef   __PACKED_UNION
  68:Drivers/CMSIS/Include/cmsis_gcc.h ****   #define __PACKED_UNION                         union __attribute__((packed, aligned(1)))
  69:Drivers/CMSIS/Include/cmsis_gcc.h **** #endif
  70:Drivers/CMSIS/Include/cmsis_gcc.h **** #ifndef   __UNALIGNED_UINT32        /* deprecated */
  71:Drivers/CMSIS/Include/cmsis_gcc.h ****   #pragma GCC diagnostic push
  72:Drivers/CMSIS/Include/cmsis_gcc.h ****   #pragma GCC diagnostic ignored "-Wpacked"
  73:Drivers/CMSIS/Include/cmsis_gcc.h ****   #pragma GCC diagnostic ignored "-Wattributes"
  74:Drivers/CMSIS/Include/cmsis_gcc.h ****   struct __attribute__((packed)) T_UINT32 { uint32_t v; };
ARM GAS  C:\Users\igorn\AppData\Local\Temp\ccZCi53b.s 			page 15


  75:Drivers/CMSIS/Include/cmsis_gcc.h ****   #pragma GCC diagnostic pop
  76:Drivers/CMSIS/Include/cmsis_gcc.h ****   #define __UNALIGNED_UINT32(x)                  (((struct T_UINT32 *)(x))->v)
  77:Drivers/CMSIS/Include/cmsis_gcc.h **** #endif
  78:Drivers/CMSIS/Include/cmsis_gcc.h **** #ifndef   __UNALIGNED_UINT16_WRITE
  79:Drivers/CMSIS/Include/cmsis_gcc.h ****   #pragma GCC diagnostic push
  80:Drivers/CMSIS/Include/cmsis_gcc.h ****   #pragma GCC diagnostic ignored "-Wpacked"
  81:Drivers/CMSIS/Include/cmsis_gcc.h ****   #pragma GCC diagnostic ignored "-Wattributes"
  82:Drivers/CMSIS/Include/cmsis_gcc.h ****   __PACKED_STRUCT T_UINT16_WRITE { uint16_t v; };
  83:Drivers/CMSIS/Include/cmsis_gcc.h ****   #pragma GCC diagnostic pop
  84:Drivers/CMSIS/Include/cmsis_gcc.h ****   #define __UNALIGNED_UINT16_WRITE(addr, val)    (void)((((struct T_UINT16_WRITE *)(void *)(addr))-
  85:Drivers/CMSIS/Include/cmsis_gcc.h **** #endif
  86:Drivers/CMSIS/Include/cmsis_gcc.h **** #ifndef   __UNALIGNED_UINT16_READ
  87:Drivers/CMSIS/Include/cmsis_gcc.h ****   #pragma GCC diagnostic push
  88:Drivers/CMSIS/Include/cmsis_gcc.h ****   #pragma GCC diagnostic ignored "-Wpacked"
  89:Drivers/CMSIS/Include/cmsis_gcc.h ****   #pragma GCC diagnostic ignored "-Wattributes"
  90:Drivers/CMSIS/Include/cmsis_gcc.h ****   __PACKED_STRUCT T_UINT16_READ { uint16_t v; };
  91:Drivers/CMSIS/Include/cmsis_gcc.h ****   #pragma GCC diagnostic pop
  92:Drivers/CMSIS/Include/cmsis_gcc.h ****   #define __UNALIGNED_UINT16_READ(addr)          (((const struct T_UINT16_READ *)(const void *)(add
  93:Drivers/CMSIS/Include/cmsis_gcc.h **** #endif
  94:Drivers/CMSIS/Include/cmsis_gcc.h **** #ifndef   __UNALIGNED_UINT32_WRITE
  95:Drivers/CMSIS/Include/cmsis_gcc.h ****   #pragma GCC diagnostic push
  96:Drivers/CMSIS/Include/cmsis_gcc.h ****   #pragma GCC diagnostic ignored "-Wpacked"
  97:Drivers/CMSIS/Include/cmsis_gcc.h ****   #pragma GCC diagnostic ignored "-Wattributes"
  98:Drivers/CMSIS/Include/cmsis_gcc.h ****   __PACKED_STRUCT T_UINT32_WRITE { uint32_t v; };
  99:Drivers/CMSIS/Include/cmsis_gcc.h ****   #pragma GCC diagnostic pop
 100:Drivers/CMSIS/Include/cmsis_gcc.h ****   #define __UNALIGNED_UINT32_WRITE(addr, val)    (void)((((struct T_UINT32_WRITE *)(void *)(addr))-
 101:Drivers/CMSIS/Include/cmsis_gcc.h **** #endif
 102:Drivers/CMSIS/Include/cmsis_gcc.h **** #ifndef   __UNALIGNED_UINT32_READ
 103:Drivers/CMSIS/Include/cmsis_gcc.h ****   #pragma GCC diagnostic push
 104:Drivers/CMSIS/Include/cmsis_gcc.h ****   #pragma GCC diagnostic ignored "-Wpacked"
 105:Drivers/CMSIS/Include/cmsis_gcc.h ****   #pragma GCC diagnostic ignored "-Wattributes"
 106:Drivers/CMSIS/Include/cmsis_gcc.h ****   __PACKED_STRUCT T_UINT32_READ { uint32_t v; };
 107:Drivers/CMSIS/Include/cmsis_gcc.h ****   #pragma GCC diagnostic pop
 108:Drivers/CMSIS/Include/cmsis_gcc.h ****   #define __UNALIGNED_UINT32_READ(addr)          (((const struct T_UINT32_READ *)(const void *)(add
 109:Drivers/CMSIS/Include/cmsis_gcc.h **** #endif
 110:Drivers/CMSIS/Include/cmsis_gcc.h **** #ifndef   __ALIGNED
 111:Drivers/CMSIS/Include/cmsis_gcc.h ****   #define __ALIGNED(x)                           __attribute__((aligned(x)))
 112:Drivers/CMSIS/Include/cmsis_gcc.h **** #endif
 113:Drivers/CMSIS/Include/cmsis_gcc.h **** #ifndef   __RESTRICT
 114:Drivers/CMSIS/Include/cmsis_gcc.h ****   #define __RESTRICT                             __restrict
 115:Drivers/CMSIS/Include/cmsis_gcc.h **** #endif
 116:Drivers/CMSIS/Include/cmsis_gcc.h **** 
 117:Drivers/CMSIS/Include/cmsis_gcc.h **** 
 118:Drivers/CMSIS/Include/cmsis_gcc.h **** /* ###########################  Core Function Access  ########################### */
 119:Drivers/CMSIS/Include/cmsis_gcc.h **** /** \ingroup  CMSIS_Core_FunctionInterface
 120:Drivers/CMSIS/Include/cmsis_gcc.h ****     \defgroup CMSIS_Core_RegAccFunctions CMSIS Core Register Access Functions
 121:Drivers/CMSIS/Include/cmsis_gcc.h ****   @{
 122:Drivers/CMSIS/Include/cmsis_gcc.h ****  */
 123:Drivers/CMSIS/Include/cmsis_gcc.h **** 
 124:Drivers/CMSIS/Include/cmsis_gcc.h **** /**
 125:Drivers/CMSIS/Include/cmsis_gcc.h ****   \brief   Enable IRQ Interrupts
 126:Drivers/CMSIS/Include/cmsis_gcc.h ****   \details Enables IRQ interrupts by clearing the I-bit in the CPSR.
 127:Drivers/CMSIS/Include/cmsis_gcc.h ****            Can only be executed in Privileged modes.
 128:Drivers/CMSIS/Include/cmsis_gcc.h ****  */
 129:Drivers/CMSIS/Include/cmsis_gcc.h **** __STATIC_FORCEINLINE void __enable_irq(void)
 130:Drivers/CMSIS/Include/cmsis_gcc.h **** {
 131:Drivers/CMSIS/Include/cmsis_gcc.h ****   __ASM volatile ("cpsie i" : : : "memory");
ARM GAS  C:\Users\igorn\AppData\Local\Temp\ccZCi53b.s 			page 16


 132:Drivers/CMSIS/Include/cmsis_gcc.h **** }
 133:Drivers/CMSIS/Include/cmsis_gcc.h **** 
 134:Drivers/CMSIS/Include/cmsis_gcc.h **** 
 135:Drivers/CMSIS/Include/cmsis_gcc.h **** /**
 136:Drivers/CMSIS/Include/cmsis_gcc.h ****   \brief   Disable IRQ Interrupts
 137:Drivers/CMSIS/Include/cmsis_gcc.h ****   \details Disables IRQ interrupts by setting the I-bit in the CPSR.
 138:Drivers/CMSIS/Include/cmsis_gcc.h ****            Can only be executed in Privileged modes.
 139:Drivers/CMSIS/Include/cmsis_gcc.h ****  */
 140:Drivers/CMSIS/Include/cmsis_gcc.h **** __STATIC_FORCEINLINE void __disable_irq(void)
 250              		.loc 2 140 27 view .LVU49
 251              	.LBB10:
 141:Drivers/CMSIS/Include/cmsis_gcc.h **** {
 142:Drivers/CMSIS/Include/cmsis_gcc.h ****   __ASM volatile ("cpsid i" : : : "memory");
 252              		.loc 2 142 3 view .LVU50
 253              		.syntax unified
 254              	@ 142 "Drivers/CMSIS/Include/cmsis_gcc.h" 1
 255 0000 72B6     		cpsid i
 256              	@ 0 "" 2
 257              		.thumb
 258              		.syntax unified
 259              	.L16:
 260              	.LBE10:
 261              	.LBE9:
 480:Core/Src/main.c ****   while (1)
 262              		.loc 1 480 3 discriminator 1 view .LVU51
 481:Core/Src/main.c ****   {
 482:Core/Src/main.c ****   }
 263              		.loc 1 482 3 discriminator 1 view .LVU52
 480:Core/Src/main.c ****   while (1)
 264              		.loc 1 480 9 discriminator 1 view .LVU53
 265 0002 FEE7     		b	.L16
 266              		.cfi_endproc
 267              	.LFE140:
 269              		.section	.text.MX_USART2_UART_Init,"ax",%progbits
 270              		.align	1
 271              		.syntax unified
 272              		.thumb
 273              		.thumb_func
 275              	MX_USART2_UART_Init:
 276              	.LFB135:
 359:Core/Src/main.c **** 
 277              		.loc 1 359 1 view -0
 278              		.cfi_startproc
 279              		@ args = 0, pretend = 0, frame = 0
 280              		@ frame_needed = 0, uses_anonymous_args = 0
 281 0000 08B5     		push	{r3, lr}
 282              		.cfi_def_cfa_offset 8
 283              		.cfi_offset 3, -8
 284              		.cfi_offset 14, -4
 368:Core/Src/main.c ****   huart2.Init.BaudRate = 115200;
 285              		.loc 1 368 3 view .LVU55
 368:Core/Src/main.c ****   huart2.Init.BaudRate = 115200;
 286              		.loc 1 368 19 is_stmt 0 view .LVU56
 287 0002 0A48     		ldr	r0, .L21
 288 0004 0A4B     		ldr	r3, .L21+4
 289 0006 0360     		str	r3, [r0]
 369:Core/Src/main.c ****   huart2.Init.WordLength = UART_WORDLENGTH_8B;
ARM GAS  C:\Users\igorn\AppData\Local\Temp\ccZCi53b.s 			page 17


 290              		.loc 1 369 3 is_stmt 1 view .LVU57
 369:Core/Src/main.c ****   huart2.Init.WordLength = UART_WORDLENGTH_8B;
 291              		.loc 1 369 24 is_stmt 0 view .LVU58
 292 0008 4FF4E133 		mov	r3, #115200
 293 000c 4360     		str	r3, [r0, #4]
 370:Core/Src/main.c ****   huart2.Init.StopBits = UART_STOPBITS_1;
 294              		.loc 1 370 3 is_stmt 1 view .LVU59
 370:Core/Src/main.c ****   huart2.Init.StopBits = UART_STOPBITS_1;
 295              		.loc 1 370 26 is_stmt 0 view .LVU60
 296 000e 0023     		movs	r3, #0
 297 0010 8360     		str	r3, [r0, #8]
 371:Core/Src/main.c ****   huart2.Init.Parity = UART_PARITY_NONE;
 298              		.loc 1 371 3 is_stmt 1 view .LVU61
 371:Core/Src/main.c ****   huart2.Init.Parity = UART_PARITY_NONE;
 299              		.loc 1 371 24 is_stmt 0 view .LVU62
 300 0012 C360     		str	r3, [r0, #12]
 372:Core/Src/main.c ****   huart2.Init.Mode = UART_MODE_TX_RX;
 301              		.loc 1 372 3 is_stmt 1 view .LVU63
 372:Core/Src/main.c ****   huart2.Init.Mode = UART_MODE_TX_RX;
 302              		.loc 1 372 22 is_stmt 0 view .LVU64
 303 0014 0361     		str	r3, [r0, #16]
 373:Core/Src/main.c ****   huart2.Init.HwFlowCtl = UART_HWCONTROL_NONE;
 304              		.loc 1 373 3 is_stmt 1 view .LVU65
 373:Core/Src/main.c ****   huart2.Init.HwFlowCtl = UART_HWCONTROL_NONE;
 305              		.loc 1 373 20 is_stmt 0 view .LVU66
 306 0016 0C22     		movs	r2, #12
 307 0018 4261     		str	r2, [r0, #20]
 374:Core/Src/main.c ****   huart2.Init.OverSampling = UART_OVERSAMPLING_16;
 308              		.loc 1 374 3 is_stmt 1 view .LVU67
 374:Core/Src/main.c ****   huart2.Init.OverSampling = UART_OVERSAMPLING_16;
 309              		.loc 1 374 25 is_stmt 0 view .LVU68
 310 001a 8361     		str	r3, [r0, #24]
 375:Core/Src/main.c ****   if (HAL_UART_Init(&huart2) != HAL_OK)
 311              		.loc 1 375 3 is_stmt 1 view .LVU69
 375:Core/Src/main.c ****   if (HAL_UART_Init(&huart2) != HAL_OK)
 312              		.loc 1 375 28 is_stmt 0 view .LVU70
 313 001c C361     		str	r3, [r0, #28]
 376:Core/Src/main.c ****   {
 314              		.loc 1 376 3 is_stmt 1 view .LVU71
 376:Core/Src/main.c ****   {
 315              		.loc 1 376 7 is_stmt 0 view .LVU72
 316 001e FFF7FEFF 		bl	HAL_UART_Init
 317              	.LVL5:
 376:Core/Src/main.c ****   {
 318              		.loc 1 376 6 view .LVU73
 319 0022 00B9     		cbnz	r0, .L20
 384:Core/Src/main.c **** 
 320              		.loc 1 384 1 view .LVU74
 321 0024 08BD     		pop	{r3, pc}
 322              	.L20:
 378:Core/Src/main.c ****   }
 323              		.loc 1 378 5 is_stmt 1 view .LVU75
 324 0026 FFF7FEFF 		bl	Error_Handler
 325              	.LVL6:
 326              	.L22:
 327 002a 00BF     		.align	2
 328              	.L21:
ARM GAS  C:\Users\igorn\AppData\Local\Temp\ccZCi53b.s 			page 18


 329 002c 00000000 		.word	huart2
 330 0030 00440040 		.word	1073759232
 331              		.cfi_endproc
 332              	.LFE135:
 334              		.section	.text.SystemClock_Config,"ax",%progbits
 335              		.align	1
 336              		.global	SystemClock_Config
 337              		.syntax unified
 338              		.thumb
 339              		.thumb_func
 341              	SystemClock_Config:
 342              	.LFB132:
 237:Core/Src/main.c ****   RCC_OscInitTypeDef RCC_OscInitStruct = {0};
 343              		.loc 1 237 1 view -0
 344              		.cfi_startproc
 345              		@ args = 0, pretend = 0, frame = 80
 346              		@ frame_needed = 0, uses_anonymous_args = 0
 347 0000 00B5     		push	{lr}
 348              		.cfi_def_cfa_offset 4
 349              		.cfi_offset 14, -4
 350 0002 95B0     		sub	sp, sp, #84
 351              		.cfi_def_cfa_offset 88
 238:Core/Src/main.c ****   RCC_ClkInitTypeDef RCC_ClkInitStruct = {0};
 352              		.loc 1 238 3 view .LVU77
 238:Core/Src/main.c ****   RCC_ClkInitTypeDef RCC_ClkInitStruct = {0};
 353              		.loc 1 238 22 is_stmt 0 view .LVU78
 354 0004 3022     		movs	r2, #48
 355 0006 0021     		movs	r1, #0
 356 0008 08A8     		add	r0, sp, #32
 357 000a FFF7FEFF 		bl	memset
 358              	.LVL7:
 239:Core/Src/main.c **** 
 359              		.loc 1 239 3 is_stmt 1 view .LVU79
 239:Core/Src/main.c **** 
 360              		.loc 1 239 22 is_stmt 0 view .LVU80
 361 000e 0023     		movs	r3, #0
 362 0010 0393     		str	r3, [sp, #12]
 363 0012 0493     		str	r3, [sp, #16]
 364 0014 0593     		str	r3, [sp, #20]
 365 0016 0693     		str	r3, [sp, #24]
 366 0018 0793     		str	r3, [sp, #28]
 243:Core/Src/main.c ****   __HAL_PWR_VOLTAGESCALING_CONFIG(PWR_REGULATOR_VOLTAGE_SCALE1);
 367              		.loc 1 243 3 is_stmt 1 view .LVU81
 368              	.LBB11:
 243:Core/Src/main.c ****   __HAL_PWR_VOLTAGESCALING_CONFIG(PWR_REGULATOR_VOLTAGE_SCALE1);
 369              		.loc 1 243 3 view .LVU82
 370 001a 0193     		str	r3, [sp, #4]
 243:Core/Src/main.c ****   __HAL_PWR_VOLTAGESCALING_CONFIG(PWR_REGULATOR_VOLTAGE_SCALE1);
 371              		.loc 1 243 3 view .LVU83
 372 001c 1F4A     		ldr	r2, .L29
 373 001e 116C     		ldr	r1, [r2, #64]
 374 0020 41F08051 		orr	r1, r1, #268435456
 375 0024 1164     		str	r1, [r2, #64]
 243:Core/Src/main.c ****   __HAL_PWR_VOLTAGESCALING_CONFIG(PWR_REGULATOR_VOLTAGE_SCALE1);
 376              		.loc 1 243 3 view .LVU84
 377 0026 126C     		ldr	r2, [r2, #64]
 378 0028 02F08052 		and	r2, r2, #268435456
ARM GAS  C:\Users\igorn\AppData\Local\Temp\ccZCi53b.s 			page 19


 379 002c 0192     		str	r2, [sp, #4]
 243:Core/Src/main.c ****   __HAL_PWR_VOLTAGESCALING_CONFIG(PWR_REGULATOR_VOLTAGE_SCALE1);
 380              		.loc 1 243 3 view .LVU85
 381 002e 019A     		ldr	r2, [sp, #4]
 382              	.LBE11:
 243:Core/Src/main.c ****   __HAL_PWR_VOLTAGESCALING_CONFIG(PWR_REGULATOR_VOLTAGE_SCALE1);
 383              		.loc 1 243 3 view .LVU86
 244:Core/Src/main.c ****   /** Initializes the RCC Oscillators according to the specified parameters
 384              		.loc 1 244 3 view .LVU87
 385              	.LBB12:
 244:Core/Src/main.c ****   /** Initializes the RCC Oscillators according to the specified parameters
 386              		.loc 1 244 3 view .LVU88
 387 0030 0293     		str	r3, [sp, #8]
 244:Core/Src/main.c ****   /** Initializes the RCC Oscillators according to the specified parameters
 388              		.loc 1 244 3 view .LVU89
 389 0032 1B4A     		ldr	r2, .L29+4
 390 0034 1168     		ldr	r1, [r2]
 391 0036 41F48041 		orr	r1, r1, #16384
 392 003a 1160     		str	r1, [r2]
 244:Core/Src/main.c ****   /** Initializes the RCC Oscillators according to the specified parameters
 393              		.loc 1 244 3 view .LVU90
 394 003c 1268     		ldr	r2, [r2]
 395 003e 02F48042 		and	r2, r2, #16384
 396 0042 0292     		str	r2, [sp, #8]
 244:Core/Src/main.c ****   /** Initializes the RCC Oscillators according to the specified parameters
 397              		.loc 1 244 3 view .LVU91
 398 0044 029A     		ldr	r2, [sp, #8]
 399              	.LBE12:
 244:Core/Src/main.c ****   /** Initializes the RCC Oscillators according to the specified parameters
 400              		.loc 1 244 3 view .LVU92
 248:Core/Src/main.c ****   RCC_OscInitStruct.HSIState = RCC_HSI_ON;
 401              		.loc 1 248 3 view .LVU93
 248:Core/Src/main.c ****   RCC_OscInitStruct.HSIState = RCC_HSI_ON;
 402              		.loc 1 248 36 is_stmt 0 view .LVU94
 403 0046 0222     		movs	r2, #2
 404 0048 0892     		str	r2, [sp, #32]
 249:Core/Src/main.c ****   RCC_OscInitStruct.HSICalibrationValue = RCC_HSICALIBRATION_DEFAULT;
 405              		.loc 1 249 3 is_stmt 1 view .LVU95
 249:Core/Src/main.c ****   RCC_OscInitStruct.HSICalibrationValue = RCC_HSICALIBRATION_DEFAULT;
 406              		.loc 1 249 30 is_stmt 0 view .LVU96
 407 004a 0121     		movs	r1, #1
 408 004c 0B91     		str	r1, [sp, #44]
 250:Core/Src/main.c ****   RCC_OscInitStruct.PLL.PLLState = RCC_PLL_ON;
 409              		.loc 1 250 3 is_stmt 1 view .LVU97
 250:Core/Src/main.c ****   RCC_OscInitStruct.PLL.PLLState = RCC_PLL_ON;
 410              		.loc 1 250 41 is_stmt 0 view .LVU98
 411 004e 1021     		movs	r1, #16
 412 0050 0C91     		str	r1, [sp, #48]
 251:Core/Src/main.c ****   RCC_OscInitStruct.PLL.PLLSource = RCC_PLLSOURCE_HSI;
 413              		.loc 1 251 3 is_stmt 1 view .LVU99
 251:Core/Src/main.c ****   RCC_OscInitStruct.PLL.PLLSource = RCC_PLLSOURCE_HSI;
 414              		.loc 1 251 34 is_stmt 0 view .LVU100
 415 0052 0E92     		str	r2, [sp, #56]
 252:Core/Src/main.c ****   RCC_OscInitStruct.PLL.PLLM = 8;
 416              		.loc 1 252 3 is_stmt 1 view .LVU101
 252:Core/Src/main.c ****   RCC_OscInitStruct.PLL.PLLM = 8;
 417              		.loc 1 252 35 is_stmt 0 view .LVU102
ARM GAS  C:\Users\igorn\AppData\Local\Temp\ccZCi53b.s 			page 20


 418 0054 0F93     		str	r3, [sp, #60]
 253:Core/Src/main.c ****   RCC_OscInitStruct.PLL.PLLN = 168;
 419              		.loc 1 253 3 is_stmt 1 view .LVU103
 253:Core/Src/main.c ****   RCC_OscInitStruct.PLL.PLLN = 168;
 420              		.loc 1 253 30 is_stmt 0 view .LVU104
 421 0056 0823     		movs	r3, #8
 422 0058 1093     		str	r3, [sp, #64]
 254:Core/Src/main.c ****   RCC_OscInitStruct.PLL.PLLP = RCC_PLLP_DIV2;
 423              		.loc 1 254 3 is_stmt 1 view .LVU105
 254:Core/Src/main.c ****   RCC_OscInitStruct.PLL.PLLP = RCC_PLLP_DIV2;
 424              		.loc 1 254 30 is_stmt 0 view .LVU106
 425 005a A823     		movs	r3, #168
 426 005c 1193     		str	r3, [sp, #68]
 255:Core/Src/main.c ****   RCC_OscInitStruct.PLL.PLLQ = 4;
 427              		.loc 1 255 3 is_stmt 1 view .LVU107
 255:Core/Src/main.c ****   RCC_OscInitStruct.PLL.PLLQ = 4;
 428              		.loc 1 255 30 is_stmt 0 view .LVU108
 429 005e 1292     		str	r2, [sp, #72]
 256:Core/Src/main.c ****   if (HAL_RCC_OscConfig(&RCC_OscInitStruct) != HAL_OK)
 430              		.loc 1 256 3 is_stmt 1 view .LVU109
 256:Core/Src/main.c ****   if (HAL_RCC_OscConfig(&RCC_OscInitStruct) != HAL_OK)
 431              		.loc 1 256 30 is_stmt 0 view .LVU110
 432 0060 0423     		movs	r3, #4
 433 0062 1393     		str	r3, [sp, #76]
 257:Core/Src/main.c ****   {
 434              		.loc 1 257 3 is_stmt 1 view .LVU111
 257:Core/Src/main.c ****   {
 435              		.loc 1 257 7 is_stmt 0 view .LVU112
 436 0064 08A8     		add	r0, sp, #32
 437 0066 FFF7FEFF 		bl	HAL_RCC_OscConfig
 438              	.LVL8:
 257:Core/Src/main.c ****   {
 439              		.loc 1 257 6 view .LVU113
 440 006a 98B9     		cbnz	r0, .L27
 263:Core/Src/main.c ****                               |RCC_CLOCKTYPE_PCLK1|RCC_CLOCKTYPE_PCLK2;
 441              		.loc 1 263 3 is_stmt 1 view .LVU114
 263:Core/Src/main.c ****                               |RCC_CLOCKTYPE_PCLK1|RCC_CLOCKTYPE_PCLK2;
 442              		.loc 1 263 31 is_stmt 0 view .LVU115
 443 006c 0F23     		movs	r3, #15
 444 006e 0393     		str	r3, [sp, #12]
 265:Core/Src/main.c ****   RCC_ClkInitStruct.AHBCLKDivider = RCC_SYSCLK_DIV1;
 445              		.loc 1 265 3 is_stmt 1 view .LVU116
 265:Core/Src/main.c ****   RCC_ClkInitStruct.AHBCLKDivider = RCC_SYSCLK_DIV1;
 446              		.loc 1 265 34 is_stmt 0 view .LVU117
 447 0070 0223     		movs	r3, #2
 448 0072 0493     		str	r3, [sp, #16]
 266:Core/Src/main.c ****   RCC_ClkInitStruct.APB1CLKDivider = RCC_HCLK_DIV4;
 449              		.loc 1 266 3 is_stmt 1 view .LVU118
 266:Core/Src/main.c ****   RCC_ClkInitStruct.APB1CLKDivider = RCC_HCLK_DIV4;
 450              		.loc 1 266 35 is_stmt 0 view .LVU119
 451 0074 0023     		movs	r3, #0
 452 0076 0593     		str	r3, [sp, #20]
 267:Core/Src/main.c ****   RCC_ClkInitStruct.APB2CLKDivider = RCC_HCLK_DIV2;
 453              		.loc 1 267 3 is_stmt 1 view .LVU120
 267:Core/Src/main.c ****   RCC_ClkInitStruct.APB2CLKDivider = RCC_HCLK_DIV2;
 454              		.loc 1 267 36 is_stmt 0 view .LVU121
 455 0078 4FF4A053 		mov	r3, #5120
ARM GAS  C:\Users\igorn\AppData\Local\Temp\ccZCi53b.s 			page 21


 456 007c 0693     		str	r3, [sp, #24]
 268:Core/Src/main.c **** 
 457              		.loc 1 268 3 is_stmt 1 view .LVU122
 268:Core/Src/main.c **** 
 458              		.loc 1 268 36 is_stmt 0 view .LVU123
 459 007e 4FF48053 		mov	r3, #4096
 460 0082 0793     		str	r3, [sp, #28]
 270:Core/Src/main.c ****   {
 461              		.loc 1 270 3 is_stmt 1 view .LVU124
 270:Core/Src/main.c ****   {
 462              		.loc 1 270 7 is_stmt 0 view .LVU125
 463 0084 0521     		movs	r1, #5
 464 0086 03A8     		add	r0, sp, #12
 465 0088 FFF7FEFF 		bl	HAL_RCC_ClockConfig
 466              	.LVL9:
 270:Core/Src/main.c ****   {
 467              		.loc 1 270 6 view .LVU126
 468 008c 20B9     		cbnz	r0, .L28
 274:Core/Src/main.c **** 
 469              		.loc 1 274 1 view .LVU127
 470 008e 15B0     		add	sp, sp, #84
 471              		.cfi_remember_state
 472              		.cfi_def_cfa_offset 4
 473              		@ sp needed
 474 0090 5DF804FB 		ldr	pc, [sp], #4
 475              	.L27:
 476              		.cfi_restore_state
 259:Core/Src/main.c ****   }
 477              		.loc 1 259 5 is_stmt 1 view .LVU128
 478 0094 FFF7FEFF 		bl	Error_Handler
 479              	.LVL10:
 480              	.L28:
 272:Core/Src/main.c ****   }
 481              		.loc 1 272 5 view .LVU129
 482 0098 FFF7FEFF 		bl	Error_Handler
 483              	.LVL11:
 484              	.L30:
 485              		.align	2
 486              	.L29:
 487 009c 00380240 		.word	1073887232
 488 00a0 00700040 		.word	1073770496
 489              		.cfi_endproc
 490              	.LFE132:
 492              		.section	.rodata.main.str1.4,"aMS",%progbits,1
 493              		.align	2
 494              	.LC0:
 495 0000 48454C4C 		.ascii	"HELLO\000"
 495      4F00
 496 0006 0000     		.align	2
 497              	.LC2:
 498 0008 72656164 		.ascii	"ready!\000"
 498      792100
 499 000f 00       		.align	2
 500              	.LC1:
 501 0010 52656369 		.ascii	"Recieved!\000"
 501      65766564 
 501      2100
ARM GAS  C:\Users\igorn\AppData\Local\Temp\ccZCi53b.s 			page 22


 502              		.section	.text.main,"ax",%progbits
 503              		.align	1
 504              		.global	main
 505              		.syntax unified
 506              		.thumb
 507              		.thumb_func
 509              	main:
 510              	.LFB131:
 109:Core/Src/main.c ****   /* USER CODE BEGIN 1 */
 511              		.loc 1 109 1 view -0
 512              		.cfi_startproc
 513              		@ args = 0, pretend = 0, frame = 16
 514              		@ frame_needed = 0, uses_anonymous_args = 0
 515 0000 70B5     		push	{r4, r5, r6, lr}
 516              		.cfi_def_cfa_offset 16
 517              		.cfi_offset 4, -16
 518              		.cfi_offset 5, -12
 519              		.cfi_offset 6, -8
 520              		.cfi_offset 14, -4
 521 0002 84B0     		sub	sp, sp, #16
 522              		.cfi_def_cfa_offset 32
 117:Core/Src/main.c **** 
 523              		.loc 1 117 3 view .LVU131
 524 0004 FFF7FEFF 		bl	HAL_Init
 525              	.LVL12:
 124:Core/Src/main.c **** 
 526              		.loc 1 124 3 view .LVU132
 527 0008 FFF7FEFF 		bl	SystemClock_Config
 528              	.LVL13:
 131:Core/Src/main.c ****   MX_USART2_UART_Init();
 529              		.loc 1 131 3 view .LVU133
 530 000c FFF7FEFF 		bl	MX_GPIO_Init
 531              	.LVL14:
 132:Core/Src/main.c ****   //MX_TIM6_Init();
 532              		.loc 1 132 3 view .LVU134
 533 0010 FFF7FEFF 		bl	MX_USART2_UART_Init
 534              	.LVL15:
 137:Core/Src/main.c ****   HAL_UART_Transmit(&huart2,"HELLO",sizeof("HELLO"),1000);
 535              		.loc 1 137 3 view .LVU135
 536 0014 5D4C     		ldr	r4, .L47
 537 0016 5E4D     		ldr	r5, .L47+4
 538 0018 0122     		movs	r2, #1
 539 001a 2146     		mov	r1, r4
 540 001c 2846     		mov	r0, r5
 541 001e FFF7FEFF 		bl	HAL_UART_Receive_IT
 542              	.LVL16:
 138:Core/Src/main.c ****   visInit();
 543              		.loc 1 138 3 view .LVU136
 544 0022 4FF47A73 		mov	r3, #1000
 545 0026 0622     		movs	r2, #6
 546 0028 5A49     		ldr	r1, .L47+8
 547 002a 2846     		mov	r0, r5
 548 002c FFF7FEFF 		bl	HAL_UART_Transmit
 549              	.LVL17:
 139:Core/Src/main.c **** 
 550              		.loc 1 139 3 view .LVU137
 551 0030 FFF7FEFF 		bl	visInit
ARM GAS  C:\Users\igorn\AppData\Local\Temp\ccZCi53b.s 			page 23


 552              	.LVL18:
 141:Core/Src/main.c **** 
 553              		.loc 1 141 3 view .LVU138
 554 0034 8023     		movs	r3, #128
 555 0036 584A     		ldr	r2, .L47+12
 556 0038 5849     		ldr	r1, .L47+16
 557 003a 5948     		ldr	r0, .L47+20
 558 003c FFF7FEFF 		bl	NOS_WS2812B_Strip_FullInit
 559              	.LVL19:
 143:Core/Src/main.c ****   NOS_TimeEvent_Init(&screenUpdateEvent, 20);
 560              		.loc 1 143 3 view .LVU139
 561 0040 3221     		movs	r1, #50
 562 0042 5848     		ldr	r0, .L47+24
 563 0044 FFF7FEFF 		bl	NOS_TimeEvent_Init
 564              	.LVL20:
 144:Core/Src/main.c ****   NOS_TimeEvent_Init(&uartTestEvent, 1000);
 565              		.loc 1 144 3 view .LVU140
 566 0048 1421     		movs	r1, #20
 567 004a 5748     		ldr	r0, .L47+28
 568 004c FFF7FEFF 		bl	NOS_TimeEvent_Init
 569              	.LVL21:
 145:Core/Src/main.c ****   //NOS_WS2812B_Strip_TestFill(&stripA);
 570              		.loc 1 145 3 view .LVU141
 571 0050 4FF47A71 		mov	r1, #1000
 572 0054 5548     		ldr	r0, .L47+32
 573 0056 FFF7FEFF 		bl	NOS_TimeEvent_Init
 574              	.LVL22:
 148:Core/Src/main.c **** 
 575              		.loc 1 148 3 view .LVU142
 576 005a 0123     		movs	r3, #1
 577 005c 4B22     		movs	r2, #75
 578 005e 4121     		movs	r1, #65
 579 0060 5348     		ldr	r0, .L47+36
 580 0062 FFF7FEFF 		bl	NOS_Math_SinValue_Init
 581              	.LVL23:
 150:Core/Src/main.c ****   NOS_GPIO_PinInit(&PE4,GPIOE,GPIO_PIN_4,Input);
 582              		.loc 1 150 3 view .LVU143
 583 0066 534E     		ldr	r6, .L47+40
 584 0068 534D     		ldr	r5, .L47+44
 585 006a 0123     		movs	r3, #1
 586 006c 0822     		movs	r2, #8
 587 006e 3146     		mov	r1, r6
 588 0070 2846     		mov	r0, r5
 589 0072 FFF7FEFF 		bl	NOS_GPIO_PinInit
 590              	.LVL24:
 151:Core/Src/main.c **** 
 591              		.loc 1 151 3 view .LVU144
 592 0076 0123     		movs	r3, #1
 593 0078 1022     		movs	r2, #16
 594 007a 3146     		mov	r1, r6
 595 007c 4F48     		ldr	r0, .L47+48
 596 007e FFF7FEFF 		bl	NOS_GPIO_PinInit
 597              	.LVL25:
 153:Core/Src/main.c **** 
 598              		.loc 1 153 3 view .LVU145
 599 0082 2946     		mov	r1, r5
 600 0084 4E48     		ldr	r0, .L47+52
ARM GAS  C:\Users\igorn\AppData\Local\Temp\ccZCi53b.s 			page 24


 601 0086 FFF7FEFF 		bl	NOS_Button_Init
 602              	.LVL26:
 155:Core/Src/main.c ****   NOS_GPIO_PinInit(&PA7,GPIOA,GPIO_PIN_7,Output);
 603              		.loc 1 155 3 view .LVU146
 604 008a 4E4D     		ldr	r5, .L47+56
 605 008c 0223     		movs	r3, #2
 606 008e 4022     		movs	r2, #64
 607 0090 2946     		mov	r1, r5
 608 0092 4D48     		ldr	r0, .L47+60
 609 0094 FFF7FEFF 		bl	NOS_GPIO_PinInit
 610              	.LVL27:
 156:Core/Src/main.c **** 
 611              		.loc 1 156 3 view .LVU147
 612 0098 0223     		movs	r3, #2
 613 009a 8022     		movs	r2, #128
 614 009c 2946     		mov	r1, r5
 615 009e 4B48     		ldr	r0, .L47+64
 616 00a0 FFF7FEFF 		bl	NOS_GPIO_PinInit
 617              	.LVL28:
 158:Core/Src/main.c **** 
 618              		.loc 1 158 3 view .LVU148
 619 00a4 2046     		mov	r0, r4
 620 00a6 FFF7FEFF 		bl	NOS_UART_ReceiveAbort
 621              	.LVL29:
 622 00aa 25E0     		b	.L37
 623              	.L45:
 168:Core/Src/main.c ****           NOS_TimeEvent_TickHandler(&tetrisUpdateEvent);
 624              		.loc 1 168 11 view .LVU149
 625 00ac 3748     		ldr	r0, .L47
 626 00ae FFF7FEFF 		bl	NOS_UART_Timer_Handler
 627              	.LVL30:
 169:Core/Src/main.c ****           NOS_TimeEvent_TickHandler(&screenUpdateEvent);
 628              		.loc 1 169 11 view .LVU150
 629 00b2 3C48     		ldr	r0, .L47+24
 630 00b4 FFF7FEFF 		bl	NOS_TimeEvent_TickHandler
 631              	.LVL31:
 170:Core/Src/main.c ****           NOS_Button_TimerHandler(&button);
 632              		.loc 1 170 11 view .LVU151
 633 00b8 3B48     		ldr	r0, .L47+28
 634 00ba FFF7FEFF 		bl	NOS_TimeEvent_TickHandler
 635              	.LVL32:
 171:Core/Src/main.c **** 
 636              		.loc 1 171 11 view .LVU152
 637 00be 4048     		ldr	r0, .L47+52
 638 00c0 FFF7FEFF 		bl	NOS_Button_TimerHandler
 639              	.LVL33:
 173:Core/Src/main.c ****     }
 640              		.loc 1 173 11 view .LVU153
 173:Core/Src/main.c ****     }
 641              		.loc 1 173 16 is_stmt 0 view .LVU154
 642 00c4 424B     		ldr	r3, .L47+68
 643 00c6 0022     		movs	r2, #0
 644 00c8 1A70     		strb	r2, [r3]
 645 00ca 19E0     		b	.L32
 646              	.LVL34:
 647              	.L46:
 648              	.LBB13:
ARM GAS  C:\Users\igorn\AppData\Local\Temp\ccZCi53b.s 			page 25


 183:Core/Src/main.c ****       }
 649              		.loc 1 183 9 is_stmt 1 view .LVU155
 650 00cc 4FF47A73 		mov	r3, #1000
 651 00d0 0722     		movs	r2, #7
 652 00d2 4049     		ldr	r1, .L47+72
 653 00d4 2E48     		ldr	r0, .L47+4
 654 00d6 FFF7FEFF 		bl	HAL_UART_Transmit
 655              	.LVL35:
 656              	.L34:
 186:Core/Src/main.c ****     }
 657              		.loc 1 186 7 view .LVU156
 658 00da 2C48     		ldr	r0, .L47
 659 00dc FFF7FEFF 		bl	NOS_UART_EndReceive
 660              	.LVL36:
 661              	.L33:
 186:Core/Src/main.c ****     }
 662              		.loc 1 186 7 is_stmt 0 view .LVU157
 663              	.LBE13:
 189:Core/Src/main.c ****     { 
 664              		.loc 1 189 5 is_stmt 1 view .LVU158
 189:Core/Src/main.c ****     { 
 665              		.loc 1 189 9 is_stmt 0 view .LVU159
 666 00e0 3048     		ldr	r0, .L47+24
 667 00e2 FFF7FEFF 		bl	NOS_TimeEvent_Check
 668              	.LVL37:
 189:Core/Src/main.c ****     { 
 669              		.loc 1 189 8 view .LVU160
 670 00e6 00BB     		cbnz	r0, .L42
 671              	.L35:
 195:Core/Src/main.c ****     {
 672              		.loc 1 195 5 is_stmt 1 view .LVU161
 195:Core/Src/main.c ****     {
 673              		.loc 1 195 9 is_stmt 0 view .LVU162
 674 00e8 2F48     		ldr	r0, .L47+28
 675 00ea FFF7FEFF 		bl	NOS_TimeEvent_Check
 676              	.LVL38:
 195:Core/Src/main.c ****     {
 677              		.loc 1 195 8 view .LVU163
 678 00ee 18BB     		cbnz	r0, .L43
 679              	.L36:
 205:Core/Src/main.c ****     {
 680              		.loc 1 205 5 is_stmt 1 view .LVU164
 205:Core/Src/main.c ****     {
 681              		.loc 1 205 8 is_stmt 0 view .LVU165
 682 00f0 3348     		ldr	r0, .L47+52
 683 00f2 FFF7FEFF 		bl	NOS_Button_CheckPressDone
 684              	.LVL39:
 205:Core/Src/main.c ****     {
 685              		.loc 1 205 7 view .LVU166
 686 00f6 40BB     		cbnz	r0, .L44
 687              	.L37:
 164:Core/Src/main.c ****   {
 688              		.loc 1 164 3 is_stmt 1 view .LVU167
 166:Core/Src/main.c ****     {
 689              		.loc 1 166 5 view .LVU168
 166:Core/Src/main.c ****     {
 690              		.loc 1 166 8 is_stmt 0 view .LVU169
ARM GAS  C:\Users\igorn\AppData\Local\Temp\ccZCi53b.s 			page 26


 691 00f8 354B     		ldr	r3, .L47+68
 692 00fa 1B78     		ldrb	r3, [r3]	@ zero_extendqisi2
 166:Core/Src/main.c ****     {
 693              		.loc 1 166 7 view .LVU170
 694 00fc 002B     		cmp	r3, #0
 695 00fe D5D1     		bne	.L45
 696              	.L32:
 176:Core/Src/main.c ****     {
 697              		.loc 1 176 5 is_stmt 1 view .LVU171
 176:Core/Src/main.c ****     {
 698              		.loc 1 176 8 is_stmt 0 view .LVU172
 699 0100 2248     		ldr	r0, .L47
 700 0102 FFF7FEFF 		bl	NOS_UART_CheckReceive
 701              	.LVL40:
 176:Core/Src/main.c ****     {
 702              		.loc 1 176 7 view .LVU173
 703 0106 0028     		cmp	r0, #0
 704 0108 EAD0     		beq	.L33
 705              	.LBB14:
 178:Core/Src/main.c ****       uint32_t buff = 0; 
 706              		.loc 1 178 7 is_stmt 1 view .LVU174
 178:Core/Src/main.c ****       uint32_t buff = 0; 
 707              		.loc 1 178 12 is_stmt 0 view .LVU175
 708 010a 334A     		ldr	r2, .L47+76
 709 010c 6B46     		mov	r3, sp
 710 010e 07CA     		ldm	r2, {r0, r1, r2}
 711 0110 03C3     		stmia	r3!, {r0, r1}
 712 0112 1A80     		strh	r2, [r3]	@ movhi
 179:Core/Src/main.c **** 
 713              		.loc 1 179 7 is_stmt 1 view .LVU176
 714              	.LVL41:
 181:Core/Src/main.c ****       {
 715              		.loc 1 181 7 view .LVU177
 181:Core/Src/main.c ****       {
 716              		.loc 1 181 10 is_stmt 0 view .LVU178
 717 0114 1D48     		ldr	r0, .L47
 718 0116 FFF7FEFF 		bl	NOS_UART_GetReceivedData
 719              	.LVL42:
 720 011a 0146     		mov	r1, r0
 721 011c 2048     		ldr	r0, .L47+20
 722 011e FFF7FEFF 		bl	NOS_Strip_Uart_ParseCommand
 723              	.LVL43:
 181:Core/Src/main.c ****       {
 724              		.loc 1 181 9 view .LVU179
 725 0122 2C4B     		ldr	r3, .L47+72
 726 0124 8342     		cmp	r3, r0
 727 0126 D8D1     		bne	.L34
 728 0128 D0E7     		b	.L46
 729              	.LVL44:
 730              	.L42:
 181:Core/Src/main.c ****       {
 731              		.loc 1 181 9 view .LVU180
 732              	.LBE14:
 191:Core/Src/main.c ****       NOS_TimeEvent_FinishEvent(&tetrisUpdateEvent);
 733              		.loc 1 191 7 is_stmt 1 view .LVU181
 734 012a 2148     		ldr	r0, .L47+36
 735 012c FFF7FEFF 		bl	NOS_Math_SinValue_Handler
ARM GAS  C:\Users\igorn\AppData\Local\Temp\ccZCi53b.s 			page 27


 736              	.LVL45:
 192:Core/Src/main.c ****     }
 737              		.loc 1 192 7 view .LVU182
 738 0130 1C48     		ldr	r0, .L47+24
 739 0132 FFF7FEFF 		bl	NOS_TimeEvent_FinishEvent
 740              	.LVL46:
 741 0136 D7E7     		b	.L35
 742              	.L43:
 199:Core/Src/main.c ****       visHandle();
 743              		.loc 1 199 7 view .LVU183
 744 0138 1948     		ldr	r0, .L47+20
 745 013a FFF7FEFF 		bl	NOS_WS2812B_Strip_Update
 746              	.LVL47:
 200:Core/Src/main.c **** 
 747              		.loc 1 200 7 view .LVU184
 748 013e FFF7FEFF 		bl	visHandle
 749              	.LVL48:
 202:Core/Src/main.c ****     }
 750              		.loc 1 202 7 view .LVU185
 751 0142 1948     		ldr	r0, .L47+28
 752 0144 FFF7FEFF 		bl	NOS_TimeEvent_FinishEvent
 753              	.LVL49:
 754 0148 D2E7     		b	.L36
 755              	.L44:
 207:Core/Src/main.c ****       {
 756              		.loc 1 207 7 view .LVU186
 207:Core/Src/main.c ****       {
 757              		.loc 1 207 20 is_stmt 0 view .LVU187
 758 014a 244B     		ldr	r3, .L47+80
 759 014c 1B68     		ldr	r3, [r3]
 207:Core/Src/main.c ****       {
 760              		.loc 1 207 9 view .LVU188
 761 014e 0A2B     		cmp	r3, #10
 762 0150 18DC     		bgt	.L38
 209:Core/Src/main.c ****       }
 763              		.loc 1 209 9 is_stmt 1 view .LVU189
 209:Core/Src/main.c ****       }
 764              		.loc 1 209 18 is_stmt 0 view .LVU190
 765 0152 0133     		adds	r3, r3, #1
 766 0154 214A     		ldr	r2, .L47+80
 767 0156 1360     		str	r3, [r2]
 768              	.L39:
 215:Core/Src/main.c ****       NOS_Button_PressDoneHandler(&button);
 769              		.loc 1 215 7 is_stmt 1 view .LVU191
 770 0158 204B     		ldr	r3, .L47+80
 771 015a 1878     		ldrb	r0, [r3]	@ zero_extendqisi2
 772 015c FFF7FEFF 		bl	NOS_GetBaseColor
 773              	.LVL50:
 774 0160 8DF80C00 		strb	r0, [sp, #12]
 775 0164 C0F30723 		ubfx	r3, r0, #8, #8
 776 0168 8DF80D30 		strb	r3, [sp, #13]
 777 016c C0F30740 		ubfx	r0, r0, #16, #8
 778 0170 8DF80E00 		strb	r0, [sp, #14]
 779 0174 0399     		ldr	r1, [sp, #12]
 780 0176 0A48     		ldr	r0, .L47+20
 781 0178 FFF7FEFF 		bl	NOS_WS2812B_Strip_ColorFill
 782              	.LVL51:
ARM GAS  C:\Users\igorn\AppData\Local\Temp\ccZCi53b.s 			page 28


 216:Core/Src/main.c ****     }
 783              		.loc 1 216 7 view .LVU192
 784 017c 1048     		ldr	r0, .L47+52
 785 017e FFF7FEFF 		bl	NOS_Button_PressDoneHandler
 786              	.LVL52:
 787 0182 B9E7     		b	.L37
 788              	.L38:
 213:Core/Src/main.c ****       }
 789              		.loc 1 213 9 view .LVU193
 213:Core/Src/main.c ****       }
 790              		.loc 1 213 19 is_stmt 0 view .LVU194
 791 0184 154B     		ldr	r3, .L47+80
 792 0186 0022     		movs	r2, #0
 793 0188 1A60     		str	r2, [r3]
 794 018a E5E7     		b	.L39
 795              	.L48:
 796              		.align	2
 797              	.L47:
 798 018c 00000000 		.word	UART2
 799 0190 00000000 		.word	huart2
 800 0194 00000000 		.word	.LC0
 801 0198 00000000 		.word	pixelsA
 802 019c 00000000 		.word	frameBuffer1
 803 01a0 00000000 		.word	stripA
 804 01a4 00000000 		.word	tetrisUpdateEvent
 805 01a8 00000000 		.word	screenUpdateEvent
 806 01ac 00000000 		.word	uartTestEvent
 807 01b0 00000000 		.word	bright
 808 01b4 00100240 		.word	1073876992
 809 01b8 00000000 		.word	PE3
 810 01bc 00000000 		.word	PE4
 811 01c0 00000000 		.word	button
 812 01c4 00000240 		.word	1073872896
 813 01c8 00000000 		.word	PA6
 814 01cc 00000000 		.word	PA7
 815 01d0 00000000 		.word	tick
 816 01d4 08000000 		.word	.LC2
 817 01d8 10000000 		.word	.LC1
 818 01dc 00000000 		.word	currColor
 819              		.cfi_endproc
 820              	.LFE131:
 822              		.global	red
 823              		.section	.data.red,"aw"
 824              		.align	2
 827              	red:
 828 0000 FF       		.byte	-1
 829 0001 00       		.byte	0
 830 0002 00       		.byte	0
 831              		.global	tick
 832              		.section	.bss.tick,"aw",%nobits
 835              	tick:
 836 0000 00       		.space	1
 837              		.global	value
 838              		.section	.bss.value,"aw",%nobits
 839              		.align	2
 842              	value:
 843 0000 0000     		.space	2
ARM GAS  C:\Users\igorn\AppData\Local\Temp\ccZCi53b.s 			page 29


 844              		.global	buttonDelay
 845              		.section	.bss.buttonDelay,"aw",%nobits
 846              		.align	2
 849              	buttonDelay:
 850 0000 00000000 		.space	4
 851              		.global	currColor
 852              		.section	.bss.currColor,"aw",%nobits
 853              		.align	2
 856              	currColor:
 857 0000 00000000 		.space	4
 858              		.global	uartPixelCount
 859              		.section	.bss.uartPixelCount,"aw",%nobits
 860              		.align	2
 863              	uartPixelCount:
 864 0000 00000000 		.space	4
 865              		.global	PE4
 866              		.section	.bss.PE4,"aw",%nobits
 867              		.align	2
 870              	PE4:
 871 0000 00000000 		.space	8
 871      00000000 
 872              		.global	PE3
 873              		.section	.bss.PE3,"aw",%nobits
 874              		.align	2
 877              	PE3:
 878 0000 00000000 		.space	8
 878      00000000 
 879              		.global	PA7
 880              		.section	.bss.PA7,"aw",%nobits
 881              		.align	2
 884              	PA7:
 885 0000 00000000 		.space	8
 885      00000000 
 886              		.global	PA6
 887              		.section	.bss.PA6,"aw",%nobits
 888              		.align	2
 891              	PA6:
 892 0000 00000000 		.space	8
 892      00000000 
 893              		.global	button
 894              		.section	.bss.button,"aw",%nobits
 895              		.align	2
 898              	button:
 899 0000 00000000 		.space	32
 899      00000000 
 899      00000000 
 899      00000000 
 899      00000000 
 900              		.global	bright
 901              		.section	.bss.bright,"aw",%nobits
 902              		.align	2
 905              	bright:
 906 0000 00000000 		.space	20
 906      00000000 
 906      00000000 
 906      00000000 
 906      00000000 
ARM GAS  C:\Users\igorn\AppData\Local\Temp\ccZCi53b.s 			page 30


 907              		.global	receiveTime
 908              		.section	.bss.receiveTime,"aw",%nobits
 909              		.align	2
 912              	receiveTime:
 913 0000 00000000 		.space	4
 914              		.global	UART2
 915              		.section	.bss.UART2,"aw",%nobits
 916              		.align	2
 919              	UART2:
 920 0000 00000000 		.space	2088
 920      00000000 
 920      00000000 
 920      00000000 
 920      00000000 
 921              		.global	pixelsA
 922              		.section	.bss.pixelsA,"aw",%nobits
 923              		.align	2
 926              	pixelsA:
 927 0000 00000000 		.space	384
 927      00000000 
 927      00000000 
 927      00000000 
 927      00000000 
 928              		.global	stripA
 929              		.section	.bss.stripA,"aw",%nobits
 930              		.align	2
 933              	stripA:
 934 0000 00000000 		.space	16
 934      00000000 
 934      00000000 
 934      00000000 
 935              		.global	uartTestEvent
 936              		.section	.bss.uartTestEvent,"aw",%nobits
 937              		.align	2
 940              	uartTestEvent:
 941 0000 00000000 		.space	12
 941      00000000 
 941      00000000 
 942              		.global	screenUpdateEvent
 943              		.section	.bss.screenUpdateEvent,"aw",%nobits
 944              		.align	2
 947              	screenUpdateEvent:
 948 0000 00000000 		.space	12
 948      00000000 
 948      00000000 
 949              		.global	tetrisUpdateEvent
 950              		.section	.bss.tetrisUpdateEvent,"aw",%nobits
 951              		.align	2
 954              	tetrisUpdateEvent:
 955 0000 00000000 		.space	12
 955      00000000 
 955      00000000 
 956              		.global	hpcd_USB_OTG_FS
 957              		.section	.bss.hpcd_USB_OTG_FS,"aw",%nobits
 958              		.align	2
 961              	hpcd_USB_OTG_FS:
 962 0000 00000000 		.space	1292
ARM GAS  C:\Users\igorn\AppData\Local\Temp\ccZCi53b.s 			page 31


 962      00000000 
 962      00000000 
 962      00000000 
 962      00000000 
 963              		.global	huart2
 964              		.section	.bss.huart2,"aw",%nobits
 965              		.align	2
 968              	huart2:
 969 0000 00000000 		.space	68
 969      00000000 
 969      00000000 
 969      00000000 
 969      00000000 
 970              		.global	htim6
 971              		.section	.bss.htim6,"aw",%nobits
 972              		.align	2
 975              	htim6:
 976 0000 00000000 		.space	72
 976      00000000 
 976      00000000 
 976      00000000 
 976      00000000 
 977              		.global	hspi1
 978              		.section	.bss.hspi1,"aw",%nobits
 979              		.align	2
 982              	hspi1:
 983 0000 00000000 		.space	88
 983      00000000 
 983      00000000 
 983      00000000 
 983      00000000 
 984              		.text
 985              	.Letext0:
 986              		.file 3 "c:\\users\\igorn\\appdata\\roaming\\code\\user\\globalstorage\\bmd.stm32-for-vscode\\@xpa
 987              		.file 4 "c:\\users\\igorn\\appdata\\roaming\\code\\user\\globalstorage\\bmd.stm32-for-vscode\\@xpa
 988              		.file 5 "Drivers/CMSIS/Device/ST/STM32F4xx/Include/stm32f407xx.h"
 989              		.file 6 "Drivers/STM32F4xx_HAL_Driver/Inc/stm32f4xx_hal_def.h"
 990              		.file 7 "Drivers/STM32F4xx_HAL_Driver/Inc/stm32f4xx_hal_rcc_ex.h"
 991              		.file 8 "Drivers/STM32F4xx_HAL_Driver/Inc/stm32f4xx_hal_rcc.h"
 992              		.file 9 "Drivers/STM32F4xx_HAL_Driver/Inc/stm32f4xx_hal_gpio.h"
 993              		.file 10 "Drivers/STM32F4xx_HAL_Driver/Inc/stm32f4xx_hal_dma.h"
 994              		.file 11 "Drivers/STM32F4xx_HAL_Driver/Inc/stm32f4xx_hal_spi.h"
 995              		.file 12 "Drivers/STM32F4xx_HAL_Driver/Inc/stm32f4xx_hal_tim.h"
 996              		.file 13 "Drivers/STM32F4xx_HAL_Driver/Inc/stm32f4xx_hal_uart.h"
 997              		.file 14 "Drivers/STM32F4xx_HAL_Driver/Inc/stm32f4xx_ll_usb.h"
 998              		.file 15 "Drivers/STM32F4xx_HAL_Driver/Inc/stm32f4xx_hal_pcd.h"
 999              		.file 16 "Core/Inc/../Src/NOS_LIB_Driver/Inc/NOS_Typedefs.h"
 1000              		.file 17 "Core/Inc/../Src/NOS_LIB_Driver/Inc/NOS_GPIO.h"
 1001              		.file 18 "Core/Inc/../Src/NOS_LIB_Driver/Inc/NOS_BaseColors.h"
 1002              		.file 19 "Core/Inc/../Src/NOS_LIB_Driver/Inc/NOS_UART.h"
 1003              		.file 20 "Core/Inc/../Src/NOS_LIB_Driver/Inc/NOS_Button.h"
 1004              		.file 21 "Core/Inc/../Src/NOS_LIB_Driver/Inc/NOS_WS2812B_Strip.h"
 1005              		.file 22 "Core/Inc/../Src/NOS_LIB_Driver/Inc/NOS_Time.h"
 1006              		.file 23 "Core/Inc/../Src/NOS_LIB_Driver/Inc/NOS_Math.h"
 1007              		.file 24 "Core/Inc/../Src/NOS_LIB_Driver/Inc/NOS_Strip_UART.h"
 1008              		.file 25 "Core/Inc/../Src/NOS_LIB_Driver/Inc/WS2812B_Effects.h"
 1009              		.file 26 "Drivers/STM32F4xx_HAL_Driver/Inc/stm32f4xx_hal.h"
ARM GAS  C:\Users\igorn\AppData\Local\Temp\ccZCi53b.s 			page 32


 1010              		.file 27 "<built-in>"
ARM GAS  C:\Users\igorn\AppData\Local\Temp\ccZCi53b.s 			page 33


DEFINED SYMBOLS
                            *ABS*:00000000 main.c
C:\Users\igorn\AppData\Local\Temp\ccZCi53b.s:21     .text.MX_GPIO_Init:00000000 $t
C:\Users\igorn\AppData\Local\Temp\ccZCi53b.s:26     .text.MX_GPIO_Init:00000000 MX_GPIO_Init
C:\Users\igorn\AppData\Local\Temp\ccZCi53b.s:132    .text.MX_GPIO_Init:00000078 $d
C:\Users\igorn\AppData\Local\Temp\ccZCi53b.s:137    .text.HAL_UART_RxCpltCallback:00000000 $t
C:\Users\igorn\AppData\Local\Temp\ccZCi53b.s:143    .text.HAL_UART_RxCpltCallback:00000000 HAL_UART_RxCpltCallback
C:\Users\igorn\AppData\Local\Temp\ccZCi53b.s:167    .text.HAL_UART_RxCpltCallback:0000000c $d
C:\Users\igorn\AppData\Local\Temp\ccZCi53b.s:919    .bss.UART2:00000000 UART2
C:\Users\igorn\AppData\Local\Temp\ccZCi53b.s:172    .text.SysTick_Handler:00000000 $t
C:\Users\igorn\AppData\Local\Temp\ccZCi53b.s:178    .text.SysTick_Handler:00000000 SysTick_Handler
C:\Users\igorn\AppData\Local\Temp\ccZCi53b.s:201    .text.SysTick_Handler:00000010 $d
C:\Users\igorn\AppData\Local\Temp\ccZCi53b.s:835    .bss.tick:00000000 tick
C:\Users\igorn\AppData\Local\Temp\ccZCi53b.s:206    .text.EXTI3_IRQHandler:00000000 $t
C:\Users\igorn\AppData\Local\Temp\ccZCi53b.s:212    .text.EXTI3_IRQHandler:00000000 EXTI3_IRQHandler
C:\Users\igorn\AppData\Local\Temp\ccZCi53b.s:232    .text.Error_Handler:00000000 $t
C:\Users\igorn\AppData\Local\Temp\ccZCi53b.s:238    .text.Error_Handler:00000000 Error_Handler
C:\Users\igorn\AppData\Local\Temp\ccZCi53b.s:270    .text.MX_USART2_UART_Init:00000000 $t
C:\Users\igorn\AppData\Local\Temp\ccZCi53b.s:275    .text.MX_USART2_UART_Init:00000000 MX_USART2_UART_Init
C:\Users\igorn\AppData\Local\Temp\ccZCi53b.s:329    .text.MX_USART2_UART_Init:0000002c $d
C:\Users\igorn\AppData\Local\Temp\ccZCi53b.s:968    .bss.huart2:00000000 huart2
C:\Users\igorn\AppData\Local\Temp\ccZCi53b.s:335    .text.SystemClock_Config:00000000 $t
C:\Users\igorn\AppData\Local\Temp\ccZCi53b.s:341    .text.SystemClock_Config:00000000 SystemClock_Config
C:\Users\igorn\AppData\Local\Temp\ccZCi53b.s:487    .text.SystemClock_Config:0000009c $d
C:\Users\igorn\AppData\Local\Temp\ccZCi53b.s:493    .rodata.main.str1.4:00000000 $d
C:\Users\igorn\AppData\Local\Temp\ccZCi53b.s:503    .text.main:00000000 $t
C:\Users\igorn\AppData\Local\Temp\ccZCi53b.s:509    .text.main:00000000 main
C:\Users\igorn\AppData\Local\Temp\ccZCi53b.s:798    .text.main:0000018c $d
C:\Users\igorn\AppData\Local\Temp\ccZCi53b.s:926    .bss.pixelsA:00000000 pixelsA
C:\Users\igorn\AppData\Local\Temp\ccZCi53b.s:933    .bss.stripA:00000000 stripA
C:\Users\igorn\AppData\Local\Temp\ccZCi53b.s:954    .bss.tetrisUpdateEvent:00000000 tetrisUpdateEvent
C:\Users\igorn\AppData\Local\Temp\ccZCi53b.s:947    .bss.screenUpdateEvent:00000000 screenUpdateEvent
C:\Users\igorn\AppData\Local\Temp\ccZCi53b.s:940    .bss.uartTestEvent:00000000 uartTestEvent
C:\Users\igorn\AppData\Local\Temp\ccZCi53b.s:905    .bss.bright:00000000 bright
C:\Users\igorn\AppData\Local\Temp\ccZCi53b.s:877    .bss.PE3:00000000 PE3
C:\Users\igorn\AppData\Local\Temp\ccZCi53b.s:870    .bss.PE4:00000000 PE4
C:\Users\igorn\AppData\Local\Temp\ccZCi53b.s:898    .bss.button:00000000 button
C:\Users\igorn\AppData\Local\Temp\ccZCi53b.s:891    .bss.PA6:00000000 PA6
C:\Users\igorn\AppData\Local\Temp\ccZCi53b.s:884    .bss.PA7:00000000 PA7
C:\Users\igorn\AppData\Local\Temp\ccZCi53b.s:856    .bss.currColor:00000000 currColor
C:\Users\igorn\AppData\Local\Temp\ccZCi53b.s:827    .data.red:00000000 red
C:\Users\igorn\AppData\Local\Temp\ccZCi53b.s:824    .data.red:00000000 $d
C:\Users\igorn\AppData\Local\Temp\ccZCi53b.s:836    .bss.tick:00000000 $d
C:\Users\igorn\AppData\Local\Temp\ccZCi53b.s:842    .bss.value:00000000 value
C:\Users\igorn\AppData\Local\Temp\ccZCi53b.s:839    .bss.value:00000000 $d
C:\Users\igorn\AppData\Local\Temp\ccZCi53b.s:849    .bss.buttonDelay:00000000 buttonDelay
C:\Users\igorn\AppData\Local\Temp\ccZCi53b.s:846    .bss.buttonDelay:00000000 $d
C:\Users\igorn\AppData\Local\Temp\ccZCi53b.s:853    .bss.currColor:00000000 $d
C:\Users\igorn\AppData\Local\Temp\ccZCi53b.s:863    .bss.uartPixelCount:00000000 uartPixelCount
C:\Users\igorn\AppData\Local\Temp\ccZCi53b.s:860    .bss.uartPixelCount:00000000 $d
C:\Users\igorn\AppData\Local\Temp\ccZCi53b.s:867    .bss.PE4:00000000 $d
C:\Users\igorn\AppData\Local\Temp\ccZCi53b.s:874    .bss.PE3:00000000 $d
C:\Users\igorn\AppData\Local\Temp\ccZCi53b.s:881    .bss.PA7:00000000 $d
C:\Users\igorn\AppData\Local\Temp\ccZCi53b.s:888    .bss.PA6:00000000 $d
C:\Users\igorn\AppData\Local\Temp\ccZCi53b.s:895    .bss.button:00000000 $d
C:\Users\igorn\AppData\Local\Temp\ccZCi53b.s:902    .bss.bright:00000000 $d
C:\Users\igorn\AppData\Local\Temp\ccZCi53b.s:912    .bss.receiveTime:00000000 receiveTime
ARM GAS  C:\Users\igorn\AppData\Local\Temp\ccZCi53b.s 			page 34


C:\Users\igorn\AppData\Local\Temp\ccZCi53b.s:909    .bss.receiveTime:00000000 $d
C:\Users\igorn\AppData\Local\Temp\ccZCi53b.s:916    .bss.UART2:00000000 $d
C:\Users\igorn\AppData\Local\Temp\ccZCi53b.s:923    .bss.pixelsA:00000000 $d
C:\Users\igorn\AppData\Local\Temp\ccZCi53b.s:930    .bss.stripA:00000000 $d
C:\Users\igorn\AppData\Local\Temp\ccZCi53b.s:937    .bss.uartTestEvent:00000000 $d
C:\Users\igorn\AppData\Local\Temp\ccZCi53b.s:944    .bss.screenUpdateEvent:00000000 $d
C:\Users\igorn\AppData\Local\Temp\ccZCi53b.s:951    .bss.tetrisUpdateEvent:00000000 $d
C:\Users\igorn\AppData\Local\Temp\ccZCi53b.s:961    .bss.hpcd_USB_OTG_FS:00000000 hpcd_USB_OTG_FS
C:\Users\igorn\AppData\Local\Temp\ccZCi53b.s:958    .bss.hpcd_USB_OTG_FS:00000000 $d
C:\Users\igorn\AppData\Local\Temp\ccZCi53b.s:965    .bss.huart2:00000000 $d
C:\Users\igorn\AppData\Local\Temp\ccZCi53b.s:975    .bss.htim6:00000000 htim6
C:\Users\igorn\AppData\Local\Temp\ccZCi53b.s:972    .bss.htim6:00000000 $d
C:\Users\igorn\AppData\Local\Temp\ccZCi53b.s:982    .bss.hspi1:00000000 hspi1
C:\Users\igorn\AppData\Local\Temp\ccZCi53b.s:979    .bss.hspi1:00000000 $d

UNDEFINED SYMBOLS
NOS_UART_ReceiveHandler
HAL_IncTick
HAL_GPIO_EXTI_IRQHandler
HAL_UART_Init
memset
HAL_RCC_OscConfig
HAL_RCC_ClockConfig
HAL_Init
HAL_UART_Receive_IT
HAL_UART_Transmit
visInit
NOS_WS2812B_Strip_FullInit
NOS_TimeEvent_Init
NOS_Math_SinValue_Init
NOS_GPIO_PinInit
NOS_Button_Init
NOS_UART_ReceiveAbort
NOS_UART_Timer_Handler
NOS_TimeEvent_TickHandler
NOS_Button_TimerHandler
NOS_UART_EndReceive
NOS_TimeEvent_Check
NOS_Button_CheckPressDone
NOS_UART_CheckReceive
NOS_UART_GetReceivedData
NOS_Strip_Uart_ParseCommand
NOS_Math_SinValue_Handler
NOS_TimeEvent_FinishEvent
NOS_WS2812B_Strip_Update
visHandle
NOS_GetBaseColor
NOS_WS2812B_Strip_ColorFill
NOS_Button_PressDoneHandler
frameBuffer1
