ARM GAS  C:\Users\igorn\AppData\Local\Temp\ccYGfCBA.s 			page 1


   1              		.cpu cortex-m4
   2              		.arch armv7e-m
   3              		.fpu fpv4-sp-d16
   4              		.eabi_attribute 27, 1
   5              		.eabi_attribute 28, 1
   6              		.eabi_attribute 20, 1
   7              		.eabi_attribute 21, 1
   8              		.eabi_attribute 23, 3
   9              		.eabi_attribute 24, 1
  10              		.eabi_attribute 25, 1
  11              		.eabi_attribute 26, 1
  12              		.eabi_attribute 30, 1
  13              		.eabi_attribute 34, 1
  14              		.eabi_attribute 18, 4
  15              		.file	"NOS_Button.c"
  16              		.text
  17              	.Ltext0:
  18              		.cfi_sections	.debug_frame
  19              		.file 1 "Core/Src/NOS_LIB_Driver/Src/NOS_Button.c"
  20              		.section	.text.NOS_Button_Init,"ax",%progbits
  21              		.align	1
  22              		.global	NOS_Button_Init
  23              		.syntax unified
  24              		.thumb
  25              		.thumb_func
  27              	NOS_Button_Init:
  28              	.LVL0:
  29              	.LFB130:
   1:Core/Src/NOS_LIB_Driver/Src/NOS_Button.c **** #include "NOS_Button.h"
   2:Core/Src/NOS_LIB_Driver/Src/NOS_Button.c **** 
   3:Core/Src/NOS_LIB_Driver/Src/NOS_Button.c **** void NOS_Button_Init(NOS_Button* button,GPIO_PIN* pin)
   4:Core/Src/NOS_LIB_Driver/Src/NOS_Button.c **** {
  30              		.loc 1 4 1 view -0
  31              		.cfi_startproc
  32              		@ args = 0, pretend = 0, frame = 0
  33              		@ frame_needed = 0, uses_anonymous_args = 0
  34              		@ link register save eliminated.
   5:Core/Src/NOS_LIB_Driver/Src/NOS_Button.c ****     button->pin = pin;
  35              		.loc 1 5 5 view .LVU1
  36              		.loc 1 5 17 is_stmt 0 view .LVU2
  37 0000 4160     		str	r1, [r0, #4]
   6:Core/Src/NOS_LIB_Driver/Src/NOS_Button.c ****     button->pressed = false;
  38              		.loc 1 6 5 is_stmt 1 view .LVU3
  39              		.loc 1 6 21 is_stmt 0 view .LVU4
  40 0002 0023     		movs	r3, #0
  41 0004 0370     		strb	r3, [r0]
   7:Core/Src/NOS_LIB_Driver/Src/NOS_Button.c ****     button->released = false;
  42              		.loc 1 7 5 is_stmt 1 view .LVU5
  43              		.loc 1 7 22 is_stmt 0 view .LVU6
  44 0006 4370     		strb	r3, [r0, #1]
   8:Core/Src/NOS_LIB_Driver/Src/NOS_Button.c ****     button->pressDone = false;
  45              		.loc 1 8 5 is_stmt 1 view .LVU7
  46              		.loc 1 8 23 is_stmt 0 view .LVU8
  47 0008 8370     		strb	r3, [r0, #2]
   9:Core/Src/NOS_LIB_Driver/Src/NOS_Button.c ****     button->buttonDelay = 50;
  48              		.loc 1 9 5 is_stmt 1 view .LVU9
  49              		.loc 1 9 25 is_stmt 0 view .LVU10
ARM GAS  C:\Users\igorn\AppData\Local\Temp\ccYGfCBA.s 			page 2


  50 000a 3222     		movs	r2, #50
  51 000c 0261     		str	r2, [r0, #16]
  10:Core/Src/NOS_LIB_Driver/Src/NOS_Button.c **** 
  11:Core/Src/NOS_LIB_Driver/Src/NOS_Button.c ****     button->timer = 0;
  52              		.loc 1 11 5 is_stmt 1 view .LVU11
  53              		.loc 1 11 19 is_stmt 0 view .LVU12
  54 000e 8360     		str	r3, [r0, #8]
  12:Core/Src/NOS_LIB_Driver/Src/NOS_Button.c ****     button->watchdog = 0;
  55              		.loc 1 12 5 is_stmt 1 view .LVU13
  56              		.loc 1 12 22 is_stmt 0 view .LVU14
  57 0010 C360     		str	r3, [r0, #12]
  13:Core/Src/NOS_LIB_Driver/Src/NOS_Button.c ****     button->pressedTime = 0;
  58              		.loc 1 13 5 is_stmt 1 view .LVU15
  59              		.loc 1 13 25 is_stmt 0 view .LVU16
  60 0012 4361     		str	r3, [r0, #20]
  14:Core/Src/NOS_LIB_Driver/Src/NOS_Button.c ****     button->releasedTime = 0;
  61              		.loc 1 14 5 is_stmt 1 view .LVU17
  62              		.loc 1 14 26 is_stmt 0 view .LVU18
  63 0014 8361     		str	r3, [r0, #24]
  15:Core/Src/NOS_LIB_Driver/Src/NOS_Button.c ****     button->lastDoneTime = 0;
  64              		.loc 1 15 5 is_stmt 1 view .LVU19
  65              		.loc 1 15 26 is_stmt 0 view .LVU20
  66 0016 C361     		str	r3, [r0, #28]
  16:Core/Src/NOS_LIB_Driver/Src/NOS_Button.c **** }
  67              		.loc 1 16 1 view .LVU21
  68 0018 7047     		bx	lr
  69              		.cfi_endproc
  70              	.LFE130:
  72              		.section	.text.NOS_Button_TimerReset,"ax",%progbits
  73              		.align	1
  74              		.global	NOS_Button_TimerReset
  75              		.syntax unified
  76              		.thumb
  77              		.thumb_func
  79              	NOS_Button_TimerReset:
  80              	.LVL1:
  81              	.LFB132:
  17:Core/Src/NOS_LIB_Driver/Src/NOS_Button.c **** 
  18:Core/Src/NOS_LIB_Driver/Src/NOS_Button.c **** void NOS_Button_TimerHandler(NOS_Button* button)
  19:Core/Src/NOS_LIB_Driver/Src/NOS_Button.c **** {
  20:Core/Src/NOS_LIB_Driver/Src/NOS_Button.c ****     button->timer++;
  21:Core/Src/NOS_LIB_Driver/Src/NOS_Button.c ****     button->watchdog++;
  22:Core/Src/NOS_LIB_Driver/Src/NOS_Button.c ****     if(button->watchdog > button->buttonDelay)
  23:Core/Src/NOS_LIB_Driver/Src/NOS_Button.c ****     {
  24:Core/Src/NOS_LIB_Driver/Src/NOS_Button.c ****         if(HAL_GPIO_ReadPin(button->pin->Port,button->pin->Pin) == GPIO_PIN_RESET && !button->press
  25:Core/Src/NOS_LIB_Driver/Src/NOS_Button.c ****         {
  26:Core/Src/NOS_LIB_Driver/Src/NOS_Button.c ****             NOS_Button_PressedHandler(button);
  27:Core/Src/NOS_LIB_Driver/Src/NOS_Button.c ****         }
  28:Core/Src/NOS_LIB_Driver/Src/NOS_Button.c **** 
  29:Core/Src/NOS_LIB_Driver/Src/NOS_Button.c ****         if(HAL_GPIO_ReadPin(button->pin->Port,button->pin->Pin) == GPIO_PIN_SET && button->pressed)
  30:Core/Src/NOS_LIB_Driver/Src/NOS_Button.c ****         {
  31:Core/Src/NOS_LIB_Driver/Src/NOS_Button.c ****             NOS_Button_ReleaseHandler(button);
  32:Core/Src/NOS_LIB_Driver/Src/NOS_Button.c ****         }
  33:Core/Src/NOS_LIB_Driver/Src/NOS_Button.c **** 
  34:Core/Src/NOS_LIB_Driver/Src/NOS_Button.c ****         button->watchdog = 0;
  35:Core/Src/NOS_LIB_Driver/Src/NOS_Button.c ****     }
  36:Core/Src/NOS_LIB_Driver/Src/NOS_Button.c **** }
ARM GAS  C:\Users\igorn\AppData\Local\Temp\ccYGfCBA.s 			page 3


  37:Core/Src/NOS_LIB_Driver/Src/NOS_Button.c **** 
  38:Core/Src/NOS_LIB_Driver/Src/NOS_Button.c **** void NOS_Button_TimerReset(NOS_Button* button)
  39:Core/Src/NOS_LIB_Driver/Src/NOS_Button.c **** {
  82              		.loc 1 39 1 is_stmt 1 view -0
  83              		.cfi_startproc
  84              		@ args = 0, pretend = 0, frame = 0
  85              		@ frame_needed = 0, uses_anonymous_args = 0
  86              		@ link register save eliminated.
  40:Core/Src/NOS_LIB_Driver/Src/NOS_Button.c ****     button->timer = 0;
  87              		.loc 1 40 5 view .LVU23
  88              		.loc 1 40 19 is_stmt 0 view .LVU24
  89 0000 0023     		movs	r3, #0
  90 0002 8360     		str	r3, [r0, #8]
  41:Core/Src/NOS_LIB_Driver/Src/NOS_Button.c ****     button->watchdog = 0;
  91              		.loc 1 41 5 is_stmt 1 view .LVU25
  92              		.loc 1 41 22 is_stmt 0 view .LVU26
  93 0004 C360     		str	r3, [r0, #12]
  42:Core/Src/NOS_LIB_Driver/Src/NOS_Button.c **** }
  94              		.loc 1 42 1 view .LVU27
  95 0006 7047     		bx	lr
  96              		.cfi_endproc
  97              	.LFE132:
  99              		.section	.text.NOS_Button_PressedHandler,"ax",%progbits
 100              		.align	1
 101              		.global	NOS_Button_PressedHandler
 102              		.syntax unified
 103              		.thumb
 104              		.thumb_func
 106              	NOS_Button_PressedHandler:
 107              	.LVL2:
 108              	.LFB133:
  43:Core/Src/NOS_LIB_Driver/Src/NOS_Button.c **** 
  44:Core/Src/NOS_LIB_Driver/Src/NOS_Button.c **** void NOS_Button_PressedHandler(NOS_Button* button)
  45:Core/Src/NOS_LIB_Driver/Src/NOS_Button.c **** {
 109              		.loc 1 45 1 is_stmt 1 view -0
 110              		.cfi_startproc
 111              		@ args = 0, pretend = 0, frame = 0
 112              		@ frame_needed = 0, uses_anonymous_args = 0
 113              		@ link register save eliminated.
  46:Core/Src/NOS_LIB_Driver/Src/NOS_Button.c ****     button->pressed = true;
 114              		.loc 1 46 5 view .LVU29
 115              		.loc 1 46 21 is_stmt 0 view .LVU30
 116 0000 0123     		movs	r3, #1
 117 0002 0370     		strb	r3, [r0]
  47:Core/Src/NOS_LIB_Driver/Src/NOS_Button.c ****     button->pressedTime = button->timer;
 118              		.loc 1 47 5 is_stmt 1 view .LVU31
 119              		.loc 1 47 33 is_stmt 0 view .LVU32
 120 0004 8368     		ldr	r3, [r0, #8]
 121              		.loc 1 47 25 view .LVU33
 122 0006 4361     		str	r3, [r0, #20]
  48:Core/Src/NOS_LIB_Driver/Src/NOS_Button.c **** }
 123              		.loc 1 48 1 view .LVU34
 124 0008 7047     		bx	lr
 125              		.cfi_endproc
 126              	.LFE133:
 128              		.section	.text.NOS_Button_ReleaseHandler,"ax",%progbits
 129              		.align	1
ARM GAS  C:\Users\igorn\AppData\Local\Temp\ccYGfCBA.s 			page 4


 130              		.global	NOS_Button_ReleaseHandler
 131              		.syntax unified
 132              		.thumb
 133              		.thumb_func
 135              	NOS_Button_ReleaseHandler:
 136              	.LVL3:
 137              	.LFB134:
  49:Core/Src/NOS_LIB_Driver/Src/NOS_Button.c **** 
  50:Core/Src/NOS_LIB_Driver/Src/NOS_Button.c **** void NOS_Button_ReleaseHandler(NOS_Button* button)
  51:Core/Src/NOS_LIB_Driver/Src/NOS_Button.c **** {
 138              		.loc 1 51 1 is_stmt 1 view -0
 139              		.cfi_startproc
 140              		@ args = 0, pretend = 0, frame = 0
 141              		@ frame_needed = 0, uses_anonymous_args = 0
 142              		@ link register save eliminated.
  52:Core/Src/NOS_LIB_Driver/Src/NOS_Button.c ****     if(button->pressed)
 143              		.loc 1 52 5 view .LVU36
 144              		.loc 1 52 14 is_stmt 0 view .LVU37
 145 0000 0378     		ldrb	r3, [r0]	@ zero_extendqisi2
 146              		.loc 1 52 7 view .LVU38
 147 0002 4BB1     		cbz	r3, .L4
  53:Core/Src/NOS_LIB_Driver/Src/NOS_Button.c ****     {
  54:Core/Src/NOS_LIB_Driver/Src/NOS_Button.c ****         button->releasedTime = button->timer;
 148              		.loc 1 54 9 is_stmt 1 view .LVU39
 149              		.loc 1 54 38 is_stmt 0 view .LVU40
 150 0004 8368     		ldr	r3, [r0, #8]
 151              		.loc 1 54 30 view .LVU41
 152 0006 8361     		str	r3, [r0, #24]
  55:Core/Src/NOS_LIB_Driver/Src/NOS_Button.c ****         button->lastDoneTime = button->releasedTime - button->pressedTime;
 153              		.loc 1 55 9 is_stmt 1 view .LVU42
 154              		.loc 1 55 61 is_stmt 0 view .LVU43
 155 0008 4269     		ldr	r2, [r0, #20]
 156              		.loc 1 55 53 view .LVU44
 157 000a 9B1A     		subs	r3, r3, r2
 158              		.loc 1 55 30 view .LVU45
 159 000c C361     		str	r3, [r0, #28]
  56:Core/Src/NOS_LIB_Driver/Src/NOS_Button.c ****         button->pressDone = true;
 160              		.loc 1 56 9 is_stmt 1 view .LVU46
 161              		.loc 1 56 27 is_stmt 0 view .LVU47
 162 000e 0123     		movs	r3, #1
 163 0010 8370     		strb	r3, [r0, #2]
  57:Core/Src/NOS_LIB_Driver/Src/NOS_Button.c ****         button->pressed = false;
 164              		.loc 1 57 9 is_stmt 1 view .LVU48
 165              		.loc 1 57 25 is_stmt 0 view .LVU49
 166 0012 0022     		movs	r2, #0
 167 0014 0270     		strb	r2, [r0]
  58:Core/Src/NOS_LIB_Driver/Src/NOS_Button.c ****         button->released = true;
 168              		.loc 1 58 9 is_stmt 1 view .LVU50
 169              		.loc 1 58 26 is_stmt 0 view .LVU51
 170 0016 4370     		strb	r3, [r0, #1]
 171              	.L4:
  59:Core/Src/NOS_LIB_Driver/Src/NOS_Button.c ****     }
  60:Core/Src/NOS_LIB_Driver/Src/NOS_Button.c **** }
 172              		.loc 1 60 1 view .LVU52
 173 0018 7047     		bx	lr
 174              		.cfi_endproc
 175              	.LFE134:
ARM GAS  C:\Users\igorn\AppData\Local\Temp\ccYGfCBA.s 			page 5


 177              		.section	.text.NOS_Button_TimerHandler,"ax",%progbits
 178              		.align	1
 179              		.global	NOS_Button_TimerHandler
 180              		.syntax unified
 181              		.thumb
 182              		.thumb_func
 184              	NOS_Button_TimerHandler:
 185              	.LVL4:
 186              	.LFB131:
  19:Core/Src/NOS_LIB_Driver/Src/NOS_Button.c ****     button->timer++;
 187              		.loc 1 19 1 is_stmt 1 view -0
 188              		.cfi_startproc
 189              		@ args = 0, pretend = 0, frame = 0
 190              		@ frame_needed = 0, uses_anonymous_args = 0
  20:Core/Src/NOS_LIB_Driver/Src/NOS_Button.c ****     button->watchdog++;
 191              		.loc 1 20 5 view .LVU54
  20:Core/Src/NOS_LIB_Driver/Src/NOS_Button.c ****     button->watchdog++;
 192              		.loc 1 20 11 is_stmt 0 view .LVU55
 193 0000 8368     		ldr	r3, [r0, #8]
  20:Core/Src/NOS_LIB_Driver/Src/NOS_Button.c ****     button->watchdog++;
 194              		.loc 1 20 18 view .LVU56
 195 0002 0133     		adds	r3, r3, #1
 196 0004 8360     		str	r3, [r0, #8]
  21:Core/Src/NOS_LIB_Driver/Src/NOS_Button.c ****     if(button->watchdog > button->buttonDelay)
 197              		.loc 1 21 5 is_stmt 1 view .LVU57
  21:Core/Src/NOS_LIB_Driver/Src/NOS_Button.c ****     if(button->watchdog > button->buttonDelay)
 198              		.loc 1 21 11 is_stmt 0 view .LVU58
 199 0006 C368     		ldr	r3, [r0, #12]
  21:Core/Src/NOS_LIB_Driver/Src/NOS_Button.c ****     if(button->watchdog > button->buttonDelay)
 200              		.loc 1 21 21 view .LVU59
 201 0008 0133     		adds	r3, r3, #1
 202 000a C360     		str	r3, [r0, #12]
  22:Core/Src/NOS_LIB_Driver/Src/NOS_Button.c ****     {
 203              		.loc 1 22 5 is_stmt 1 view .LVU60
  22:Core/Src/NOS_LIB_Driver/Src/NOS_Button.c ****     {
 204              		.loc 1 22 33 is_stmt 0 view .LVU61
 205 000c 0269     		ldr	r2, [r0, #16]
  22:Core/Src/NOS_LIB_Driver/Src/NOS_Button.c ****     {
 206              		.loc 1 22 7 view .LVU62
 207 000e 9342     		cmp	r3, r2
 208 0010 00D8     		bhi	.L14
 209 0012 7047     		bx	lr
 210              	.L14:
  19:Core/Src/NOS_LIB_Driver/Src/NOS_Button.c ****     button->timer++;
 211              		.loc 1 19 1 view .LVU63
 212 0014 10B5     		push	{r4, lr}
 213              		.cfi_def_cfa_offset 8
 214              		.cfi_offset 4, -8
 215              		.cfi_offset 14, -4
 216 0016 0446     		mov	r4, r0
  24:Core/Src/NOS_LIB_Driver/Src/NOS_Button.c ****         {
 217              		.loc 1 24 9 is_stmt 1 view .LVU64
  24:Core/Src/NOS_LIB_Driver/Src/NOS_Button.c ****         {
 218              		.loc 1 24 35 is_stmt 0 view .LVU65
 219 0018 4368     		ldr	r3, [r0, #4]
  24:Core/Src/NOS_LIB_Driver/Src/NOS_Button.c ****         {
 220              		.loc 1 24 12 view .LVU66
ARM GAS  C:\Users\igorn\AppData\Local\Temp\ccYGfCBA.s 			page 6


 221 001a 9988     		ldrh	r1, [r3, #4]
 222 001c 1868     		ldr	r0, [r3]
 223              	.LVL5:
  24:Core/Src/NOS_LIB_Driver/Src/NOS_Button.c ****         {
 224              		.loc 1 24 12 view .LVU67
 225 001e FFF7FEFF 		bl	HAL_GPIO_ReadPin
 226              	.LVL6:
  24:Core/Src/NOS_LIB_Driver/Src/NOS_Button.c ****         {
 227              		.loc 1 24 11 view .LVU68
 228 0022 08B9     		cbnz	r0, .L8
  24:Core/Src/NOS_LIB_Driver/Src/NOS_Button.c ****         {
 229              		.loc 1 24 93 discriminator 1 view .LVU69
 230 0024 2378     		ldrb	r3, [r4]	@ zero_extendqisi2
  24:Core/Src/NOS_LIB_Driver/Src/NOS_Button.c ****         {
 231              		.loc 1 24 83 discriminator 1 view .LVU70
 232 0026 4BB1     		cbz	r3, .L15
 233              	.L8:
  29:Core/Src/NOS_LIB_Driver/Src/NOS_Button.c ****         {
 234              		.loc 1 29 9 is_stmt 1 view .LVU71
  29:Core/Src/NOS_LIB_Driver/Src/NOS_Button.c ****         {
 235              		.loc 1 29 35 is_stmt 0 view .LVU72
 236 0028 6368     		ldr	r3, [r4, #4]
  29:Core/Src/NOS_LIB_Driver/Src/NOS_Button.c ****         {
 237              		.loc 1 29 12 view .LVU73
 238 002a 9988     		ldrh	r1, [r3, #4]
 239 002c 1868     		ldr	r0, [r3]
 240 002e FFF7FEFF 		bl	HAL_GPIO_ReadPin
 241              	.LVL7:
  29:Core/Src/NOS_LIB_Driver/Src/NOS_Button.c ****         {
 242              		.loc 1 29 11 view .LVU74
 243 0032 0128     		cmp	r0, #1
 244 0034 06D0     		beq	.L16
 245              	.L9:
  34:Core/Src/NOS_LIB_Driver/Src/NOS_Button.c ****     }
 246              		.loc 1 34 9 is_stmt 1 view .LVU75
  34:Core/Src/NOS_LIB_Driver/Src/NOS_Button.c ****     }
 247              		.loc 1 34 26 is_stmt 0 view .LVU76
 248 0036 0023     		movs	r3, #0
 249 0038 E360     		str	r3, [r4, #12]
  36:Core/Src/NOS_LIB_Driver/Src/NOS_Button.c **** 
 250              		.loc 1 36 1 view .LVU77
 251 003a 10BD     		pop	{r4, pc}
 252              	.LVL8:
 253              	.L15:
  26:Core/Src/NOS_LIB_Driver/Src/NOS_Button.c ****         }
 254              		.loc 1 26 13 is_stmt 1 view .LVU78
 255 003c 2046     		mov	r0, r4
 256 003e FFF7FEFF 		bl	NOS_Button_PressedHandler
 257              	.LVL9:
 258 0042 F1E7     		b	.L8
 259              	.L16:
  29:Core/Src/NOS_LIB_Driver/Src/NOS_Button.c ****         {
 260              		.loc 1 29 90 is_stmt 0 discriminator 1 view .LVU79
 261 0044 2378     		ldrb	r3, [r4]	@ zero_extendqisi2
  29:Core/Src/NOS_LIB_Driver/Src/NOS_Button.c ****         {
 262              		.loc 1 29 81 discriminator 1 view .LVU80
 263 0046 002B     		cmp	r3, #0
ARM GAS  C:\Users\igorn\AppData\Local\Temp\ccYGfCBA.s 			page 7


 264 0048 F5D0     		beq	.L9
  31:Core/Src/NOS_LIB_Driver/Src/NOS_Button.c ****         }
 265              		.loc 1 31 13 is_stmt 1 view .LVU81
 266 004a 2046     		mov	r0, r4
 267 004c FFF7FEFF 		bl	NOS_Button_ReleaseHandler
 268              	.LVL10:
 269 0050 F1E7     		b	.L9
 270              		.cfi_endproc
 271              	.LFE131:
 273              		.section	.text.NOS_Button_CheckPressDone,"ax",%progbits
 274              		.align	1
 275              		.global	NOS_Button_CheckPressDone
 276              		.syntax unified
 277              		.thumb
 278              		.thumb_func
 280              	NOS_Button_CheckPressDone:
 281              	.LVL11:
 282              	.LFB135:
  61:Core/Src/NOS_LIB_Driver/Src/NOS_Button.c **** 
  62:Core/Src/NOS_LIB_Driver/Src/NOS_Button.c **** bool NOS_Button_CheckPressDone(NOS_Button* button)
  63:Core/Src/NOS_LIB_Driver/Src/NOS_Button.c **** {
 283              		.loc 1 63 1 view -0
 284              		.cfi_startproc
 285              		@ args = 0, pretend = 0, frame = 0
 286              		@ frame_needed = 0, uses_anonymous_args = 0
 287              		@ link register save eliminated.
  64:Core/Src/NOS_LIB_Driver/Src/NOS_Button.c ****     return button->pressDone;
 288              		.loc 1 64 5 view .LVU83
  65:Core/Src/NOS_LIB_Driver/Src/NOS_Button.c **** }
 289              		.loc 1 65 1 is_stmt 0 view .LVU84
 290 0000 8078     		ldrb	r0, [r0, #2]	@ zero_extendqisi2
 291              	.LVL12:
 292              		.loc 1 65 1 view .LVU85
 293 0002 7047     		bx	lr
 294              		.cfi_endproc
 295              	.LFE135:
 297              		.section	.text.NOS_Button_isPressed,"ax",%progbits
 298              		.align	1
 299              		.global	NOS_Button_isPressed
 300              		.syntax unified
 301              		.thumb
 302              		.thumb_func
 304              	NOS_Button_isPressed:
 305              	.LVL13:
 306              	.LFB136:
  66:Core/Src/NOS_LIB_Driver/Src/NOS_Button.c **** 
  67:Core/Src/NOS_LIB_Driver/Src/NOS_Button.c **** bool NOS_Button_isPressed(NOS_Button* button)
  68:Core/Src/NOS_LIB_Driver/Src/NOS_Button.c **** {
 307              		.loc 1 68 1 is_stmt 1 view -0
 308              		.cfi_startproc
 309              		@ args = 0, pretend = 0, frame = 0
 310              		@ frame_needed = 0, uses_anonymous_args = 0
 311              		@ link register save eliminated.
  69:Core/Src/NOS_LIB_Driver/Src/NOS_Button.c ****     return button->pressed;
 312              		.loc 1 69 5 view .LVU87
  70:Core/Src/NOS_LIB_Driver/Src/NOS_Button.c **** }
 313              		.loc 1 70 1 is_stmt 0 view .LVU88
ARM GAS  C:\Users\igorn\AppData\Local\Temp\ccYGfCBA.s 			page 8


 314 0000 0078     		ldrb	r0, [r0]	@ zero_extendqisi2
 315              	.LVL14:
 316              		.loc 1 70 1 view .LVU89
 317 0002 7047     		bx	lr
 318              		.cfi_endproc
 319              	.LFE136:
 321              		.section	.text.NOS_Button_PressDoneHandler,"ax",%progbits
 322              		.align	1
 323              		.global	NOS_Button_PressDoneHandler
 324              		.syntax unified
 325              		.thumb
 326              		.thumb_func
 328              	NOS_Button_PressDoneHandler:
 329              	.LVL15:
 330              	.LFB137:
  71:Core/Src/NOS_LIB_Driver/Src/NOS_Button.c **** 
  72:Core/Src/NOS_LIB_Driver/Src/NOS_Button.c **** void NOS_Button_PressDoneHandler(NOS_Button* button)
  73:Core/Src/NOS_LIB_Driver/Src/NOS_Button.c **** {
 331              		.loc 1 73 1 is_stmt 1 view -0
 332              		.cfi_startproc
 333              		@ args = 0, pretend = 0, frame = 0
 334              		@ frame_needed = 0, uses_anonymous_args = 0
 335              		@ link register save eliminated.
  74:Core/Src/NOS_LIB_Driver/Src/NOS_Button.c ****     button->pressed = false;
 336              		.loc 1 74 5 view .LVU91
 337              		.loc 1 74 21 is_stmt 0 view .LVU92
 338 0000 0023     		movs	r3, #0
 339 0002 0370     		strb	r3, [r0]
  75:Core/Src/NOS_LIB_Driver/Src/NOS_Button.c ****     button->released = false;
 340              		.loc 1 75 5 is_stmt 1 view .LVU93
 341              		.loc 1 75 22 is_stmt 0 view .LVU94
 342 0004 4370     		strb	r3, [r0, #1]
  76:Core/Src/NOS_LIB_Driver/Src/NOS_Button.c ****     button->pressDone = false;
 343              		.loc 1 76 5 is_stmt 1 view .LVU95
 344              		.loc 1 76 23 is_stmt 0 view .LVU96
 345 0006 8370     		strb	r3, [r0, #2]
  77:Core/Src/NOS_LIB_Driver/Src/NOS_Button.c **** 
  78:Core/Src/NOS_LIB_Driver/Src/NOS_Button.c ****     button->timer = 0;
 346              		.loc 1 78 5 is_stmt 1 view .LVU97
 347              		.loc 1 78 19 is_stmt 0 view .LVU98
 348 0008 8360     		str	r3, [r0, #8]
  79:Core/Src/NOS_LIB_Driver/Src/NOS_Button.c ****     button->pressedTime = 0;
 349              		.loc 1 79 5 is_stmt 1 view .LVU99
 350              		.loc 1 79 25 is_stmt 0 view .LVU100
 351 000a 4361     		str	r3, [r0, #20]
  80:Core/Src/NOS_LIB_Driver/Src/NOS_Button.c ****     button->releasedTime = 0;
 352              		.loc 1 80 5 is_stmt 1 view .LVU101
 353              		.loc 1 80 26 is_stmt 0 view .LVU102
 354 000c 8361     		str	r3, [r0, #24]
  81:Core/Src/NOS_LIB_Driver/Src/NOS_Button.c ****     button->lastDoneTime = 0;
 355              		.loc 1 81 5 is_stmt 1 view .LVU103
 356              		.loc 1 81 26 is_stmt 0 view .LVU104
 357 000e C361     		str	r3, [r0, #28]
  82:Core/Src/NOS_LIB_Driver/Src/NOS_Button.c **** }
 358              		.loc 1 82 1 view .LVU105
 359 0010 7047     		bx	lr
 360              		.cfi_endproc
ARM GAS  C:\Users\igorn\AppData\Local\Temp\ccYGfCBA.s 			page 9


 361              	.LFE137:
 363              		.text
 364              	.Letext0:
 365              		.file 2 "c:\\users\\igorn\\appdata\\roaming\\code\\user\\globalstorage\\bmd.stm32-for-vscode\\@xpa
 366              		.file 3 "c:\\users\\igorn\\appdata\\roaming\\code\\user\\globalstorage\\bmd.stm32-for-vscode\\@xpa
 367              		.file 4 "Drivers/CMSIS/Device/ST/STM32F4xx/Include/stm32f407xx.h"
 368              		.file 5 "Drivers/STM32F4xx_HAL_Driver/Inc/stm32f4xx_hal_gpio.h"
 369              		.file 6 "Core/Src/NOS_LIB_Driver/Inc/NOS_Typedefs.h"
ARM GAS  C:\Users\igorn\AppData\Local\Temp\ccYGfCBA.s 			page 10


DEFINED SYMBOLS
                            *ABS*:00000000 NOS_Button.c
C:\Users\igorn\AppData\Local\Temp\ccYGfCBA.s:21     .text.NOS_Button_Init:00000000 $t
C:\Users\igorn\AppData\Local\Temp\ccYGfCBA.s:27     .text.NOS_Button_Init:00000000 NOS_Button_Init
C:\Users\igorn\AppData\Local\Temp\ccYGfCBA.s:73     .text.NOS_Button_TimerReset:00000000 $t
C:\Users\igorn\AppData\Local\Temp\ccYGfCBA.s:79     .text.NOS_Button_TimerReset:00000000 NOS_Button_TimerReset
C:\Users\igorn\AppData\Local\Temp\ccYGfCBA.s:100    .text.NOS_Button_PressedHandler:00000000 $t
C:\Users\igorn\AppData\Local\Temp\ccYGfCBA.s:106    .text.NOS_Button_PressedHandler:00000000 NOS_Button_PressedHandler
C:\Users\igorn\AppData\Local\Temp\ccYGfCBA.s:129    .text.NOS_Button_ReleaseHandler:00000000 $t
C:\Users\igorn\AppData\Local\Temp\ccYGfCBA.s:135    .text.NOS_Button_ReleaseHandler:00000000 NOS_Button_ReleaseHandler
C:\Users\igorn\AppData\Local\Temp\ccYGfCBA.s:178    .text.NOS_Button_TimerHandler:00000000 $t
C:\Users\igorn\AppData\Local\Temp\ccYGfCBA.s:184    .text.NOS_Button_TimerHandler:00000000 NOS_Button_TimerHandler
C:\Users\igorn\AppData\Local\Temp\ccYGfCBA.s:274    .text.NOS_Button_CheckPressDone:00000000 $t
C:\Users\igorn\AppData\Local\Temp\ccYGfCBA.s:280    .text.NOS_Button_CheckPressDone:00000000 NOS_Button_CheckPressDone
C:\Users\igorn\AppData\Local\Temp\ccYGfCBA.s:298    .text.NOS_Button_isPressed:00000000 $t
C:\Users\igorn\AppData\Local\Temp\ccYGfCBA.s:304    .text.NOS_Button_isPressed:00000000 NOS_Button_isPressed
C:\Users\igorn\AppData\Local\Temp\ccYGfCBA.s:322    .text.NOS_Button_PressDoneHandler:00000000 $t
C:\Users\igorn\AppData\Local\Temp\ccYGfCBA.s:328    .text.NOS_Button_PressDoneHandler:00000000 NOS_Button_PressDoneHandler

UNDEFINED SYMBOLS
HAL_GPIO_ReadPin
