ARM GAS  C:\Users\igorn\AppData\Local\Temp\ccVfs7HL.s 			page 1


   1              		.cpu cortex-m4
   2              		.arch armv7e-m
   3              		.fpu fpv4-sp-d16
   4              		.eabi_attribute 27, 1
   5              		.eabi_attribute 28, 1
   6              		.eabi_attribute 20, 1
   7              		.eabi_attribute 21, 1
   8              		.eabi_attribute 23, 3
   9              		.eabi_attribute 24, 1
  10              		.eabi_attribute 25, 1
  11              		.eabi_attribute 26, 1
  12              		.eabi_attribute 30, 1
  13              		.eabi_attribute 34, 1
  14              		.eabi_attribute 18, 4
  15              		.file	"NOS_WS2812B_TetrisGame.c"
  16              		.text
  17              	.Ltext0:
  18              		.cfi_sections	.debug_frame
  19              		.file 1 "Core/Src/NOS_16_Games/Tetris/NOS_WS2812B_TetrisGame.c"
  20              		.section	.text.GetRandomFigure,"ax",%progbits
  21              		.align	1
  22              		.global	GetRandomFigure
  23              		.syntax unified
  24              		.thumb
  25              		.thumb_func
  27              	GetRandomFigure:
  28              	.LVL0:
  29              	.LFB130:
   1:Core/Src/NOS_16_Games/Tetris/NOS_WS2812B_TetrisGame.c **** #include "NOS_WS2812B_TetrisGame.h"
   2:Core/Src/NOS_16_Games/Tetris/NOS_WS2812B_TetrisGame.c **** 
   3:Core/Src/NOS_16_Games/Tetris/NOS_WS2812B_TetrisGame.c **** uint8_t figureI_Sprite[2] = {0b00001111,0x0};
   4:Core/Src/NOS_16_Games/Tetris/NOS_WS2812B_TetrisGame.c **** uint8_t figureO_Sprite[2] = {0b00000110,0b00000110};
   5:Core/Src/NOS_16_Games/Tetris/NOS_WS2812B_TetrisGame.c **** uint8_t figureT_Sprite[2] = {0b00000111,0b00000010};
   6:Core/Src/NOS_16_Games/Tetris/NOS_WS2812B_TetrisGame.c **** uint8_t figureS_Sprite[2] = {0b00000110,0b00000011};
   7:Core/Src/NOS_16_Games/Tetris/NOS_WS2812B_TetrisGame.c **** uint8_t figureZ_Sprite[2] = {0b00000011,0b00000110};
   8:Core/Src/NOS_16_Games/Tetris/NOS_WS2812B_TetrisGame.c **** uint8_t figureJ_Sprite[2] = {0b00000111,0b00000100};
   9:Core/Src/NOS_16_Games/Tetris/NOS_WS2812B_TetrisGame.c **** uint8_t figureL_Sprite[2] = {0b00000111,0b00000001};
  10:Core/Src/NOS_16_Games/Tetris/NOS_WS2812B_TetrisGame.c **** 
  11:Core/Src/NOS_16_Games/Tetris/NOS_WS2812B_TetrisGame.c **** figuresNames GetRandomFigure(NOS_Tetris_Game* game)
  12:Core/Src/NOS_16_Games/Tetris/NOS_WS2812B_TetrisGame.c **** {
  30              		.loc 1 12 1 view -0
  31              		.cfi_startproc
  32              		@ args = 0, pretend = 0, frame = 0
  33              		@ frame_needed = 0, uses_anonymous_args = 0
  34              		@ link register save eliminated.
  35              		.loc 1 12 1 is_stmt 0 view .LVU1
  36 0000 0146     		mov	r1, r0
  13:Core/Src/NOS_16_Games/Tetris/NOS_WS2812B_TetrisGame.c ****     int rnd = -1;
  37              		.loc 1 13 5 is_stmt 1 view .LVU2
  38              	.LVL1:
  14:Core/Src/NOS_16_Games/Tetris/NOS_WS2812B_TetrisGame.c **** 
  15:Core/Src/NOS_16_Games/Tetris/NOS_WS2812B_TetrisGame.c ****     while(rnd < 0 || rnd > 6)
  39              		.loc 1 15 5 view .LVU3
  13:Core/Src/NOS_16_Games/Tetris/NOS_WS2812B_TetrisGame.c ****     int rnd = -1;
  40              		.loc 1 13 9 is_stmt 0 view .LVU4
  41 0002 4FF0FF33 		mov	r3, #-1
  42              	.LVL2:
ARM GAS  C:\Users\igorn\AppData\Local\Temp\ccVfs7HL.s 			page 2


  43              	.L2:
  44              		.loc 1 15 19 is_stmt 1 view .LVU5
  45 0006 062B     		cmp	r3, #6
  46 0008 05D9     		bls	.L3
  16:Core/Src/NOS_16_Games/Tetris/NOS_WS2812B_TetrisGame.c ****     {
  17:Core/Src/NOS_16_Games/Tetris/NOS_WS2812B_TetrisGame.c ****         rnd = 3;
  47              		.loc 1 17 9 view .LVU6
  48              	.LVL3:
  18:Core/Src/NOS_16_Games/Tetris/NOS_WS2812B_TetrisGame.c ****         
  19:Core/Src/NOS_16_Games/Tetris/NOS_WS2812B_TetrisGame.c ****         if(rnd == game->prevFigure)
  49              		.loc 1 19 9 view .LVU7
  50              		.loc 1 19 23 is_stmt 0 view .LVU8
  51 000a 4A78     		ldrb	r2, [r1, #1]	@ zero_extendqisi2
  20:Core/Src/NOS_16_Games/Tetris/NOS_WS2812B_TetrisGame.c ****         {
  21:Core/Src/NOS_16_Games/Tetris/NOS_WS2812B_TetrisGame.c ****             rnd = -2;
  52              		.loc 1 21 17 view .LVU9
  53 000c 6FF00103 		mvn	r3, #1
  19:Core/Src/NOS_16_Games/Tetris/NOS_WS2812B_TetrisGame.c ****         {
  54              		.loc 1 19 11 view .LVU10
  55 0010 032A     		cmp	r2, #3
  56 0012 F8D0     		beq	.L2
  17:Core/Src/NOS_16_Games/Tetris/NOS_WS2812B_TetrisGame.c ****         
  57              		.loc 1 17 13 view .LVU11
  58 0014 0323     		movs	r3, #3
  59              	.LVL4:
  60              	.L3:
  22:Core/Src/NOS_16_Games/Tetris/NOS_WS2812B_TetrisGame.c ****         }
  23:Core/Src/NOS_16_Games/Tetris/NOS_WS2812B_TetrisGame.c ****     }
  24:Core/Src/NOS_16_Games/Tetris/NOS_WS2812B_TetrisGame.c **** 
  25:Core/Src/NOS_16_Games/Tetris/NOS_WS2812B_TetrisGame.c ****     game->prevFigure = game->currFigure;
  61              		.loc 1 25 5 is_stmt 1 view .LVU12
  62              		.loc 1 25 28 is_stmt 0 view .LVU13
  63 0016 0A78     		ldrb	r2, [r1]	@ zero_extendqisi2
  64              		.loc 1 25 22 view .LVU14
  65 0018 4A70     		strb	r2, [r1, #1]
  26:Core/Src/NOS_16_Games/Tetris/NOS_WS2812B_TetrisGame.c ****     game->currFigure = rnd;
  66              		.loc 1 26 5 is_stmt 1 view .LVU15
  67              		.loc 1 26 22 is_stmt 0 view .LVU16
  68 001a D8B2     		uxtb	r0, r3
  69              	.LVL5:
  70              		.loc 1 26 22 view .LVU17
  71 001c 0870     		strb	r0, [r1]
  27:Core/Src/NOS_16_Games/Tetris/NOS_WS2812B_TetrisGame.c **** 
  28:Core/Src/NOS_16_Games/Tetris/NOS_WS2812B_TetrisGame.c ****     return game->currFigure;
  72              		.loc 1 28 5 is_stmt 1 view .LVU18
  29:Core/Src/NOS_16_Games/Tetris/NOS_WS2812B_TetrisGame.c **** }
  73              		.loc 1 29 1 is_stmt 0 view .LVU19
  74 001e 7047     		bx	lr
  75              		.cfi_endproc
  76              	.LFE130:
  78              		.section	.text.NOS_Tetris_Game_Init,"ax",%progbits
  79              		.align	1
  80              		.global	NOS_Tetris_Game_Init
  81              		.syntax unified
  82              		.thumb
  83              		.thumb_func
  85              	NOS_Tetris_Game_Init:
ARM GAS  C:\Users\igorn\AppData\Local\Temp\ccVfs7HL.s 			page 3


  86              	.LVL6:
  87              	.LFB131:
  30:Core/Src/NOS_16_Games/Tetris/NOS_WS2812B_TetrisGame.c **** 
  31:Core/Src/NOS_16_Games/Tetris/NOS_WS2812B_TetrisGame.c **** void NOS_Tetris_Game_Init(NOS_Tetris_Game* game)
  32:Core/Src/NOS_16_Games/Tetris/NOS_WS2812B_TetrisGame.c **** {
  88              		.loc 1 32 1 is_stmt 1 view -0
  89              		.cfi_startproc
  90              		@ args = 0, pretend = 0, frame = 0
  91              		@ frame_needed = 0, uses_anonymous_args = 0
  92              		.loc 1 32 1 is_stmt 0 view .LVU21
  93 0000 70B5     		push	{r4, r5, r6, lr}
  94              		.cfi_def_cfa_offset 16
  95              		.cfi_offset 4, -16
  96              		.cfi_offset 5, -12
  97              		.cfi_offset 6, -8
  98              		.cfi_offset 14, -4
  99 0002 0646     		mov	r6, r0
  33:Core/Src/NOS_16_Games/Tetris/NOS_WS2812B_TetrisGame.c ****     game->direction = UP;
 100              		.loc 1 33 5 is_stmt 1 view .LVU22
 101              		.loc 1 33 21 is_stmt 0 view .LVU23
 102 0004 0025     		movs	r5, #0
 103 0006 8570     		strb	r5, [r0, #2]
  34:Core/Src/NOS_16_Games/Tetris/NOS_WS2812B_TetrisGame.c ****     game->referencePoint.x = 4;
 104              		.loc 1 34 5 is_stmt 1 view .LVU24
 105              		.loc 1 34 28 is_stmt 0 view .LVU25
 106 0008 0423     		movs	r3, #4
 107 000a A0F83633 		strh	r3, [r0, #822]	@ movhi
  35:Core/Src/NOS_16_Games/Tetris/NOS_WS2812B_TetrisGame.c ****     GetRandomFigure(game);
 108              		.loc 1 35 5 is_stmt 1 view .LVU26
 109 000e FFF7FEFF 		bl	GetRandomFigure
 110              	.LVL7:
  36:Core/Src/NOS_16_Games/Tetris/NOS_WS2812B_TetrisGame.c **** 
  37:Core/Src/NOS_16_Games/Tetris/NOS_WS2812B_TetrisGame.c ****     for(int y = 0; y < mapSize_Y; y++)
 111              		.loc 1 37 5 view .LVU27
 112              	.LBB2:
 113              		.loc 1 37 9 view .LVU28
 114              		.loc 1 37 5 is_stmt 0 view .LVU29
 115 0012 10E0     		b	.L7
 116              	.LVL8:
 117              	.L8:
 118              	.LBB3:
 119              	.LBB4:
  38:Core/Src/NOS_16_Games/Tetris/NOS_WS2812B_TetrisGame.c ****     {
  39:Core/Src/NOS_16_Games/Tetris/NOS_WS2812B_TetrisGame.c ****         for(int x = 0; x < mapSize_X; x++)
  40:Core/Src/NOS_16_Games/Tetris/NOS_WS2812B_TetrisGame.c ****         {
  41:Core/Src/NOS_16_Games/Tetris/NOS_WS2812B_TetrisGame.c ****             NOS_WS2812B_SetPixelColor(&game->map[y][x],0,0,0);
 120              		.loc 1 41 13 is_stmt 1 discriminator 3 view .LVU30
 121 0014 04EB4400 		add	r0, r4, r4, lsl #1
 122 0018 05EB4503 		add	r3, r5, r5, lsl #1
 123 001c 00EBC300 		add	r0, r0, r3, lsl #3
 124 0020 3044     		add	r0, r0, r6
 125 0022 0023     		movs	r3, #0
 126 0024 1A46     		mov	r2, r3
 127 0026 1946     		mov	r1, r3
 128 0028 0330     		adds	r0, r0, #3
 129 002a FFF7FEFF 		bl	NOS_WS2812B_SetPixelColor
 130              	.LVL9:
ARM GAS  C:\Users\igorn\AppData\Local\Temp\ccVfs7HL.s 			page 4


 131              	.LBE4:
  39:Core/Src/NOS_16_Games/Tetris/NOS_WS2812B_TetrisGame.c ****         {
 132              		.loc 1 39 40 discriminator 3 view .LVU31
 133 002e 0134     		adds	r4, r4, #1
 134              	.LVL10:
 135              	.L9:
  39:Core/Src/NOS_16_Games/Tetris/NOS_WS2812B_TetrisGame.c ****         {
 136              		.loc 1 39 26 discriminator 1 view .LVU32
 137 0030 072C     		cmp	r4, #7
 138 0032 EFDD     		ble	.L8
 139              	.LBE3:
  37:Core/Src/NOS_16_Games/Tetris/NOS_WS2812B_TetrisGame.c ****     {
 140              		.loc 1 37 36 discriminator 2 view .LVU33
 141 0034 0135     		adds	r5, r5, #1
 142              	.LVL11:
 143              	.L7:
  37:Core/Src/NOS_16_Games/Tetris/NOS_WS2812B_TetrisGame.c ****     {
 144              		.loc 1 37 22 discriminator 1 view .LVU34
 145 0036 1F2D     		cmp	r5, #31
 146 0038 01DC     		bgt	.L16
 147              	.LBB5:
  39:Core/Src/NOS_16_Games/Tetris/NOS_WS2812B_TetrisGame.c ****         {
 148              		.loc 1 39 17 is_stmt 0 view .LVU35
 149 003a 0024     		movs	r4, #0
 150 003c F8E7     		b	.L9
 151              	.L16:
 152              	.LBE5:
 153              	.LBE2:
 154              	.LBB6:
  42:Core/Src/NOS_16_Games/Tetris/NOS_WS2812B_TetrisGame.c ****         }
  43:Core/Src/NOS_16_Games/Tetris/NOS_WS2812B_TetrisGame.c ****     }
  44:Core/Src/NOS_16_Games/Tetris/NOS_WS2812B_TetrisGame.c **** 
  45:Core/Src/NOS_16_Games/Tetris/NOS_WS2812B_TetrisGame.c ****     for(int y = 0; y < 4; y++)
 155              		.loc 1 45 13 view .LVU36
 156 003e 0025     		movs	r5, #0
 157              	.LVL12:
 158              		.loc 1 45 13 view .LVU37
 159 0040 00E0     		b	.L10
 160              	.LVL13:
 161              	.L18:
 162              		.loc 1 45 28 is_stmt 1 discriminator 2 view .LVU38
 163 0042 0135     		adds	r5, r5, #1
 164              	.LVL14:
 165              	.L10:
 166              		.loc 1 45 22 discriminator 1 view .LVU39
 167 0044 032D     		cmp	r5, #3
 168 0046 13DC     		bgt	.L17
 169              	.LBB7:
  46:Core/Src/NOS_16_Games/Tetris/NOS_WS2812B_TetrisGame.c ****     {
  47:Core/Src/NOS_16_Games/Tetris/NOS_WS2812B_TetrisGame.c ****         for(int x = 0; x < 4; x++)
 170              		.loc 1 47 17 is_stmt 0 view .LVU40
 171 0048 0024     		movs	r4, #0
 172              	.L12:
 173              	.LVL15:
 174              		.loc 1 47 26 is_stmt 1 discriminator 1 view .LVU41
 175 004a 032C     		cmp	r4, #3
 176 004c F9DC     		bgt	.L18
ARM GAS  C:\Users\igorn\AppData\Local\Temp\ccVfs7HL.s 			page 5


 177              	.LBB8:
  48:Core/Src/NOS_16_Games/Tetris/NOS_WS2812B_TetrisGame.c ****         {
  49:Core/Src/NOS_16_Games/Tetris/NOS_WS2812B_TetrisGame.c ****             NOS_WS2812B_SetPixelColor(&game->currFigureBitMap[y][x],0,0,0);
 178              		.loc 1 49 13 discriminator 3 view .LVU42
 179 004e 04EB4400 		add	r0, r4, r4, lsl #1
 180 0052 05EB4503 		add	r3, r5, r5, lsl #1
 181 0056 00EB8300 		add	r0, r0, r3, lsl #2
 182 005a 00F54070 		add	r0, r0, #768
 183 005e 3044     		add	r0, r0, r6
 184 0060 0023     		movs	r3, #0
 185 0062 1A46     		mov	r2, r3
 186 0064 1946     		mov	r1, r3
 187 0066 0330     		adds	r0, r0, #3
 188 0068 FFF7FEFF 		bl	NOS_WS2812B_SetPixelColor
 189              	.LVL16:
 190              	.LBE8:
  47:Core/Src/NOS_16_Games/Tetris/NOS_WS2812B_TetrisGame.c ****         {
 191              		.loc 1 47 32 discriminator 3 view .LVU43
 192 006c 0134     		adds	r4, r4, #1
 193              	.LVL17:
  47:Core/Src/NOS_16_Games/Tetris/NOS_WS2812B_TetrisGame.c ****         {
 194              		.loc 1 47 32 is_stmt 0 discriminator 3 view .LVU44
 195 006e ECE7     		b	.L12
 196              	.LVL18:
 197              	.L17:
  47:Core/Src/NOS_16_Games/Tetris/NOS_WS2812B_TetrisGame.c ****         {
 198              		.loc 1 47 32 discriminator 3 view .LVU45
 199              	.LBE7:
 200              	.LBE6:
  50:Core/Src/NOS_16_Games/Tetris/NOS_WS2812B_TetrisGame.c ****         }
  51:Core/Src/NOS_16_Games/Tetris/NOS_WS2812B_TetrisGame.c ****     }
  52:Core/Src/NOS_16_Games/Tetris/NOS_WS2812B_TetrisGame.c **** }
 201              		.loc 1 52 1 view .LVU46
 202 0070 70BD     		pop	{r4, r5, r6, pc}
 203              		.loc 1 52 1 view .LVU47
 204              		.cfi_endproc
 205              	.LFE131:
 207              		.section	.text.NOS_Tetris_Game_DrawFigure,"ax",%progbits
 208              		.align	1
 209              		.global	NOS_Tetris_Game_DrawFigure
 210              		.syntax unified
 211              		.thumb
 212              		.thumb_func
 214              	NOS_Tetris_Game_DrawFigure:
 215              	.LVL19:
 216              	.LFB132:
  53:Core/Src/NOS_16_Games/Tetris/NOS_WS2812B_TetrisGame.c **** 
  54:Core/Src/NOS_16_Games/Tetris/NOS_WS2812B_TetrisGame.c **** void NOS_Tetris_Game_DrawFigure(NOS_Tetris_Game* game)
  55:Core/Src/NOS_16_Games/Tetris/NOS_WS2812B_TetrisGame.c **** {
 217              		.loc 1 55 1 is_stmt 1 view -0
 218              		.cfi_startproc
 219              		@ args = 0, pretend = 0, frame = 0
 220              		@ frame_needed = 0, uses_anonymous_args = 0
 221              		@ link register save eliminated.
  56:Core/Src/NOS_16_Games/Tetris/NOS_WS2812B_TetrisGame.c ****     
  57:Core/Src/NOS_16_Games/Tetris/NOS_WS2812B_TetrisGame.c **** }
 222              		.loc 1 57 1 view .LVU49
ARM GAS  C:\Users\igorn\AppData\Local\Temp\ccVfs7HL.s 			page 6


 223 0000 7047     		bx	lr
 224              		.cfi_endproc
 225              	.LFE132:
 227              		.section	.text.NOS_Tetris_Game_CheckForBottomCollision,"ax",%progbits
 228              		.align	1
 229              		.global	NOS_Tetris_Game_CheckForBottomCollision
 230              		.syntax unified
 231              		.thumb
 232              		.thumb_func
 234              	NOS_Tetris_Game_CheckForBottomCollision:
 235              	.LVL20:
 236              	.LFB133:
  58:Core/Src/NOS_16_Games/Tetris/NOS_WS2812B_TetrisGame.c **** 
  59:Core/Src/NOS_16_Games/Tetris/NOS_WS2812B_TetrisGame.c **** void NOS_Tetris_Game_CheckForBottomCollision(NOS_Tetris_Game* game)
  60:Core/Src/NOS_16_Games/Tetris/NOS_WS2812B_TetrisGame.c **** {
 237              		.loc 1 60 1 view -0
 238              		.cfi_startproc
 239              		@ args = 0, pretend = 0, frame = 0
 240              		@ frame_needed = 0, uses_anonymous_args = 0
 241              		@ link register save eliminated.
  61:Core/Src/NOS_16_Games/Tetris/NOS_WS2812B_TetrisGame.c **** 
  62:Core/Src/NOS_16_Games/Tetris/NOS_WS2812B_TetrisGame.c **** }
 242              		.loc 1 62 1 view .LVU51
 243 0000 7047     		bx	lr
 244              		.cfi_endproc
 245              	.LFE133:
 247              		.section	.text.NOS_Tetris_Game_TestDraw,"ax",%progbits
 248              		.align	1
 249              		.global	NOS_Tetris_Game_TestDraw
 250              		.syntax unified
 251              		.thumb
 252              		.thumb_func
 254              	NOS_Tetris_Game_TestDraw:
 255              	.LVL21:
 256              	.LFB134:
  63:Core/Src/NOS_16_Games/Tetris/NOS_WS2812B_TetrisGame.c **** 
  64:Core/Src/NOS_16_Games/Tetris/NOS_WS2812B_TetrisGame.c **** void NOS_Tetris_Game_TestDraw(NOS_Tetris_Game* game,figuresNames name)
  65:Core/Src/NOS_16_Games/Tetris/NOS_WS2812B_TetrisGame.c **** {
 257              		.loc 1 65 1 view -0
 258              		.cfi_startproc
 259              		@ args = 0, pretend = 0, frame = 8
 260              		@ frame_needed = 0, uses_anonymous_args = 0
 261              		.loc 1 65 1 is_stmt 0 view .LVU53
 262 0000 2DE9F041 		push	{r4, r5, r6, r7, r8, lr}
 263              		.cfi_def_cfa_offset 24
 264              		.cfi_offset 4, -24
 265              		.cfi_offset 5, -20
 266              		.cfi_offset 6, -16
 267              		.cfi_offset 7, -12
 268              		.cfi_offset 8, -8
 269              		.cfi_offset 14, -4
 270 0004 82B0     		sub	sp, sp, #8
 271              		.cfi_def_cfa_offset 32
 272 0006 0646     		mov	r6, r0
 273 0008 0F46     		mov	r7, r1
  66:Core/Src/NOS_16_Games/Tetris/NOS_WS2812B_TetrisGame.c ****     uint8_t currSprite[2] = {0x0,0x0};
 274              		.loc 1 66 5 is_stmt 1 view .LVU54
ARM GAS  C:\Users\igorn\AppData\Local\Temp\ccVfs7HL.s 			page 7


 275              		.loc 1 66 13 is_stmt 0 view .LVU55
 276 000a 0025     		movs	r5, #0
 277 000c ADF80450 		strh	r5, [sp, #4]	@ movhi
  67:Core/Src/NOS_16_Games/Tetris/NOS_WS2812B_TetrisGame.c ****     uint8_t currByte = 0x0;
 278              		.loc 1 67 5 is_stmt 1 view .LVU56
 279              	.LVL22:
  68:Core/Src/NOS_16_Games/Tetris/NOS_WS2812B_TetrisGame.c ****     bool currBit = false;
 280              		.loc 1 68 5 view .LVU57
  69:Core/Src/NOS_16_Games/Tetris/NOS_WS2812B_TetrisGame.c **** 
  70:Core/Src/NOS_16_Games/Tetris/NOS_WS2812B_TetrisGame.c ****     for(int y = 0; y < mapSize_Y; y++)
 281              		.loc 1 70 5 view .LVU58
 282              	.LBB9:
 283              		.loc 1 70 9 view .LVU59
 284              		.loc 1 70 5 is_stmt 0 view .LVU60
 285 0010 10E0     		b	.L22
 286              	.LVL23:
 287              	.L23:
 288              	.LBB10:
 289              	.LBB11:
  71:Core/Src/NOS_16_Games/Tetris/NOS_WS2812B_TetrisGame.c ****     {
  72:Core/Src/NOS_16_Games/Tetris/NOS_WS2812B_TetrisGame.c ****         for(int x = 0; x < mapSize_X; x++)
  73:Core/Src/NOS_16_Games/Tetris/NOS_WS2812B_TetrisGame.c ****         {
  74:Core/Src/NOS_16_Games/Tetris/NOS_WS2812B_TetrisGame.c ****             NOS_WS2812B_SetPixelColor(&game->map[y][x],0,0,0);
 290              		.loc 1 74 13 is_stmt 1 discriminator 3 view .LVU61
 291 0012 04EB4400 		add	r0, r4, r4, lsl #1
 292 0016 05EB4503 		add	r3, r5, r5, lsl #1
 293 001a 00EBC300 		add	r0, r0, r3, lsl #3
 294 001e 3044     		add	r0, r0, r6
 295 0020 0023     		movs	r3, #0
 296 0022 1A46     		mov	r2, r3
 297 0024 1946     		mov	r1, r3
 298 0026 0330     		adds	r0, r0, #3
 299 0028 FFF7FEFF 		bl	NOS_WS2812B_SetPixelColor
 300              	.LVL24:
 301              	.LBE11:
  72:Core/Src/NOS_16_Games/Tetris/NOS_WS2812B_TetrisGame.c ****         {
 302              		.loc 1 72 40 discriminator 3 view .LVU62
 303 002c 0134     		adds	r4, r4, #1
 304              	.LVL25:
 305              	.L24:
  72:Core/Src/NOS_16_Games/Tetris/NOS_WS2812B_TetrisGame.c ****         {
 306              		.loc 1 72 26 discriminator 1 view .LVU63
 307 002e 072C     		cmp	r4, #7
 308 0030 EFDD     		ble	.L23
 309              	.LBE10:
  70:Core/Src/NOS_16_Games/Tetris/NOS_WS2812B_TetrisGame.c ****     {
 310              		.loc 1 70 36 discriminator 2 view .LVU64
 311 0032 0135     		adds	r5, r5, #1
 312              	.LVL26:
 313              	.L22:
  70:Core/Src/NOS_16_Games/Tetris/NOS_WS2812B_TetrisGame.c ****     {
 314              		.loc 1 70 22 discriminator 1 view .LVU65
 315 0034 1F2D     		cmp	r5, #31
 316 0036 01DC     		bgt	.L45
 317              	.LBB12:
  72:Core/Src/NOS_16_Games/Tetris/NOS_WS2812B_TetrisGame.c ****         {
 318              		.loc 1 72 17 is_stmt 0 view .LVU66
ARM GAS  C:\Users\igorn\AppData\Local\Temp\ccVfs7HL.s 			page 8


 319 0038 0024     		movs	r4, #0
 320 003a F8E7     		b	.L24
 321              	.L45:
 322              	.LBE12:
 323              	.LBE9:
  75:Core/Src/NOS_16_Games/Tetris/NOS_WS2812B_TetrisGame.c ****         }
  76:Core/Src/NOS_16_Games/Tetris/NOS_WS2812B_TetrisGame.c ****     }
  77:Core/Src/NOS_16_Games/Tetris/NOS_WS2812B_TetrisGame.c **** 
  78:Core/Src/NOS_16_Games/Tetris/NOS_WS2812B_TetrisGame.c ****     switch (name)
 324              		.loc 1 78 5 is_stmt 1 view .LVU67
 325 003c 062F     		cmp	r7, #6
 326 003e 0CD8     		bhi	.L25
 327 0040 DFE807F0 		tbb	[pc, r7]
 328              	.L27:
 329 0044 04       		.byte	(.L33-.L27)/2
 330 0045 21       		.byte	(.L32-.L27)/2
 331 0046 31       		.byte	(.L31-.L27)/2
 332 0047 29       		.byte	(.L30-.L27)/2
 333 0048 39       		.byte	(.L29-.L27)/2
 334 0049 11       		.byte	(.L28-.L27)/2
 335 004a 19       		.byte	(.L26-.L27)/2
 336 004b 00       		.p2align 1
 337              	.L33:
  79:Core/Src/NOS_16_Games/Tetris/NOS_WS2812B_TetrisGame.c ****     {
  80:Core/Src/NOS_16_Games/Tetris/NOS_WS2812B_TetrisGame.c ****         case figure_I:
  81:Core/Src/NOS_16_Games/Tetris/NOS_WS2812B_TetrisGame.c ****             currSprite[0] = figureI_Sprite[0];
 338              		.loc 1 81 13 view .LVU68
 339              		.loc 1 81 43 is_stmt 0 view .LVU69
 340 004c 3F4B     		ldr	r3, .L47
 341 004e 1A78     		ldrb	r2, [r3]	@ zero_extendqisi2
 342              		.loc 1 81 27 view .LVU70
 343 0050 8DF80420 		strb	r2, [sp, #4]
  82:Core/Src/NOS_16_Games/Tetris/NOS_WS2812B_TetrisGame.c ****             currSprite[1] = figureI_Sprite[1];
 344              		.loc 1 82 13 is_stmt 1 view .LVU71
 345              		.loc 1 82 43 is_stmt 0 view .LVU72
 346 0054 5B78     		ldrb	r3, [r3, #1]	@ zero_extendqisi2
 347              		.loc 1 82 27 view .LVU73
 348 0056 8DF80530 		strb	r3, [sp, #5]
  83:Core/Src/NOS_16_Games/Tetris/NOS_WS2812B_TetrisGame.c ****         break;
 349              		.loc 1 83 9 is_stmt 1 view .LVU74
 350              	.L25:
  84:Core/Src/NOS_16_Games/Tetris/NOS_WS2812B_TetrisGame.c **** 
  85:Core/Src/NOS_16_Games/Tetris/NOS_WS2812B_TetrisGame.c ****         case figure_J:
  86:Core/Src/NOS_16_Games/Tetris/NOS_WS2812B_TetrisGame.c ****             currSprite[0] = figureJ_Sprite[0];
  87:Core/Src/NOS_16_Games/Tetris/NOS_WS2812B_TetrisGame.c ****             currSprite[1] = figureJ_Sprite[1];
  88:Core/Src/NOS_16_Games/Tetris/NOS_WS2812B_TetrisGame.c ****         break;
  89:Core/Src/NOS_16_Games/Tetris/NOS_WS2812B_TetrisGame.c **** 
  90:Core/Src/NOS_16_Games/Tetris/NOS_WS2812B_TetrisGame.c ****         case figure_L:
  91:Core/Src/NOS_16_Games/Tetris/NOS_WS2812B_TetrisGame.c ****             currSprite[0] = figureL_Sprite[0];
  92:Core/Src/NOS_16_Games/Tetris/NOS_WS2812B_TetrisGame.c ****             currSprite[1] = figureL_Sprite[1];
  93:Core/Src/NOS_16_Games/Tetris/NOS_WS2812B_TetrisGame.c ****         break;
  94:Core/Src/NOS_16_Games/Tetris/NOS_WS2812B_TetrisGame.c **** 
  95:Core/Src/NOS_16_Games/Tetris/NOS_WS2812B_TetrisGame.c ****         case figure_O:
  96:Core/Src/NOS_16_Games/Tetris/NOS_WS2812B_TetrisGame.c ****             currSprite[0] = figureO_Sprite[0];
  97:Core/Src/NOS_16_Games/Tetris/NOS_WS2812B_TetrisGame.c ****             currSprite[1] = figureO_Sprite[1];
  98:Core/Src/NOS_16_Games/Tetris/NOS_WS2812B_TetrisGame.c ****         break;
  99:Core/Src/NOS_16_Games/Tetris/NOS_WS2812B_TetrisGame.c **** 
ARM GAS  C:\Users\igorn\AppData\Local\Temp\ccVfs7HL.s 			page 9


 100:Core/Src/NOS_16_Games/Tetris/NOS_WS2812B_TetrisGame.c ****         case figure_S:
 101:Core/Src/NOS_16_Games/Tetris/NOS_WS2812B_TetrisGame.c ****             currSprite[0] = figureS_Sprite[0];
 102:Core/Src/NOS_16_Games/Tetris/NOS_WS2812B_TetrisGame.c ****             currSprite[1] = figureS_Sprite[1];
 103:Core/Src/NOS_16_Games/Tetris/NOS_WS2812B_TetrisGame.c ****         break;
 104:Core/Src/NOS_16_Games/Tetris/NOS_WS2812B_TetrisGame.c **** 
 105:Core/Src/NOS_16_Games/Tetris/NOS_WS2812B_TetrisGame.c ****         case figure_T:
 106:Core/Src/NOS_16_Games/Tetris/NOS_WS2812B_TetrisGame.c ****             currSprite[0] = figureT_Sprite[0];
 107:Core/Src/NOS_16_Games/Tetris/NOS_WS2812B_TetrisGame.c ****             currSprite[1] = figureT_Sprite[1];
 108:Core/Src/NOS_16_Games/Tetris/NOS_WS2812B_TetrisGame.c ****         break;
 109:Core/Src/NOS_16_Games/Tetris/NOS_WS2812B_TetrisGame.c **** 
 110:Core/Src/NOS_16_Games/Tetris/NOS_WS2812B_TetrisGame.c ****         case figure_Z:
 111:Core/Src/NOS_16_Games/Tetris/NOS_WS2812B_TetrisGame.c ****             currSprite[0] = figureZ_Sprite[0];
 112:Core/Src/NOS_16_Games/Tetris/NOS_WS2812B_TetrisGame.c ****             currSprite[1] = figureZ_Sprite[1];
 113:Core/Src/NOS_16_Games/Tetris/NOS_WS2812B_TetrisGame.c ****         break;
 114:Core/Src/NOS_16_Games/Tetris/NOS_WS2812B_TetrisGame.c **** 
 115:Core/Src/NOS_16_Games/Tetris/NOS_WS2812B_TetrisGame.c ****         default:
 116:Core/Src/NOS_16_Games/Tetris/NOS_WS2812B_TetrisGame.c ****             //NOS_Error_Handler(&system,"Not valid case name for sprite");
 117:Core/Src/NOS_16_Games/Tetris/NOS_WS2812B_TetrisGame.c ****         break;
 118:Core/Src/NOS_16_Games/Tetris/NOS_WS2812B_TetrisGame.c ****     }
 119:Core/Src/NOS_16_Games/Tetris/NOS_WS2812B_TetrisGame.c **** 
 120:Core/Src/NOS_16_Games/Tetris/NOS_WS2812B_TetrisGame.c **** 
 121:Core/Src/NOS_16_Games/Tetris/NOS_WS2812B_TetrisGame.c ****     switch (game->direction)
 351              		.loc 1 121 5 view .LVU75
 352              		.loc 1 121 17 is_stmt 0 view .LVU76
 353 005a B378     		ldrb	r3, [r6, #2]	@ zero_extendqisi2
 354              		.loc 1 121 5 view .LVU77
 355 005c 002B     		cmp	r3, #0
 356 005e 71D0     		beq	.L42
 357              	.LVL27:
 358              	.L21:
 122:Core/Src/NOS_16_Games/Tetris/NOS_WS2812B_TetrisGame.c ****     {
 123:Core/Src/NOS_16_Games/Tetris/NOS_WS2812B_TetrisGame.c ****         case UP:
 124:Core/Src/NOS_16_Games/Tetris/NOS_WS2812B_TetrisGame.c ****             for(int x = 0; x < 2; x++)
 125:Core/Src/NOS_16_Games/Tetris/NOS_WS2812B_TetrisGame.c ****             {
 126:Core/Src/NOS_16_Games/Tetris/NOS_WS2812B_TetrisGame.c ****                 currByte = currSprite[x];
 127:Core/Src/NOS_16_Games/Tetris/NOS_WS2812B_TetrisGame.c **** 
 128:Core/Src/NOS_16_Games/Tetris/NOS_WS2812B_TetrisGame.c ****                 for(int y = 0; y < 4; y++)
 129:Core/Src/NOS_16_Games/Tetris/NOS_WS2812B_TetrisGame.c ****                 {
 130:Core/Src/NOS_16_Games/Tetris/NOS_WS2812B_TetrisGame.c ****                     currBit = ((1 << currBit) & currByte);
 131:Core/Src/NOS_16_Games/Tetris/NOS_WS2812B_TetrisGame.c **** 
 132:Core/Src/NOS_16_Games/Tetris/NOS_WS2812B_TetrisGame.c ****                     if(currBit)
 133:Core/Src/NOS_16_Games/Tetris/NOS_WS2812B_TetrisGame.c ****                     {
 134:Core/Src/NOS_16_Games/Tetris/NOS_WS2812B_TetrisGame.c ****                         NOS_WS2812B_SetPixelColor(&game->map[game->referencePoint.y + y][game->refe
 135:Core/Src/NOS_16_Games/Tetris/NOS_WS2812B_TetrisGame.c ****                     }
 136:Core/Src/NOS_16_Games/Tetris/NOS_WS2812B_TetrisGame.c ****                     else
 137:Core/Src/NOS_16_Games/Tetris/NOS_WS2812B_TetrisGame.c ****                     {
 138:Core/Src/NOS_16_Games/Tetris/NOS_WS2812B_TetrisGame.c ****                         NOS_WS2812B_SetPixelColor(&game->map[game->referencePoint.y + y][game->refe
 139:Core/Src/NOS_16_Games/Tetris/NOS_WS2812B_TetrisGame.c ****                     }
 140:Core/Src/NOS_16_Games/Tetris/NOS_WS2812B_TetrisGame.c ****                 }
 141:Core/Src/NOS_16_Games/Tetris/NOS_WS2812B_TetrisGame.c ****             }
 142:Core/Src/NOS_16_Games/Tetris/NOS_WS2812B_TetrisGame.c ****             break;
 143:Core/Src/NOS_16_Games/Tetris/NOS_WS2812B_TetrisGame.c ****         
 144:Core/Src/NOS_16_Games/Tetris/NOS_WS2812B_TetrisGame.c ****         default:
 145:Core/Src/NOS_16_Games/Tetris/NOS_WS2812B_TetrisGame.c ****             break;
 146:Core/Src/NOS_16_Games/Tetris/NOS_WS2812B_TetrisGame.c ****     }
 147:Core/Src/NOS_16_Games/Tetris/NOS_WS2812B_TetrisGame.c **** 
 148:Core/Src/NOS_16_Games/Tetris/NOS_WS2812B_TetrisGame.c **** }
ARM GAS  C:\Users\igorn\AppData\Local\Temp\ccVfs7HL.s 			page 10


 359              		.loc 1 148 1 view .LVU78
 360 0060 02B0     		add	sp, sp, #8
 361              		.cfi_remember_state
 362              		.cfi_def_cfa_offset 24
 363              		@ sp needed
 364 0062 BDE8F081 		pop	{r4, r5, r6, r7, r8, pc}
 365              	.LVL28:
 366              	.L28:
 367              		.cfi_restore_state
  86:Core/Src/NOS_16_Games/Tetris/NOS_WS2812B_TetrisGame.c ****             currSprite[1] = figureJ_Sprite[1];
 368              		.loc 1 86 13 is_stmt 1 view .LVU79
  86:Core/Src/NOS_16_Games/Tetris/NOS_WS2812B_TetrisGame.c ****             currSprite[1] = figureJ_Sprite[1];
 369              		.loc 1 86 43 is_stmt 0 view .LVU80
 370 0066 3A4B     		ldr	r3, .L47+4
 371 0068 1A78     		ldrb	r2, [r3]	@ zero_extendqisi2
  86:Core/Src/NOS_16_Games/Tetris/NOS_WS2812B_TetrisGame.c ****             currSprite[1] = figureJ_Sprite[1];
 372              		.loc 1 86 27 view .LVU81
 373 006a 8DF80420 		strb	r2, [sp, #4]
  87:Core/Src/NOS_16_Games/Tetris/NOS_WS2812B_TetrisGame.c ****         break;
 374              		.loc 1 87 13 is_stmt 1 view .LVU82
  87:Core/Src/NOS_16_Games/Tetris/NOS_WS2812B_TetrisGame.c ****         break;
 375              		.loc 1 87 43 is_stmt 0 view .LVU83
 376 006e 5B78     		ldrb	r3, [r3, #1]	@ zero_extendqisi2
  87:Core/Src/NOS_16_Games/Tetris/NOS_WS2812B_TetrisGame.c ****         break;
 377              		.loc 1 87 27 view .LVU84
 378 0070 8DF80530 		strb	r3, [sp, #5]
  88:Core/Src/NOS_16_Games/Tetris/NOS_WS2812B_TetrisGame.c **** 
 379              		.loc 1 88 9 is_stmt 1 view .LVU85
 380 0074 F1E7     		b	.L25
 381              	.L26:
  91:Core/Src/NOS_16_Games/Tetris/NOS_WS2812B_TetrisGame.c ****             currSprite[1] = figureL_Sprite[1];
 382              		.loc 1 91 13 view .LVU86
  91:Core/Src/NOS_16_Games/Tetris/NOS_WS2812B_TetrisGame.c ****             currSprite[1] = figureL_Sprite[1];
 383              		.loc 1 91 43 is_stmt 0 view .LVU87
 384 0076 374B     		ldr	r3, .L47+8
 385 0078 1A78     		ldrb	r2, [r3]	@ zero_extendqisi2
  91:Core/Src/NOS_16_Games/Tetris/NOS_WS2812B_TetrisGame.c ****             currSprite[1] = figureL_Sprite[1];
 386              		.loc 1 91 27 view .LVU88
 387 007a 8DF80420 		strb	r2, [sp, #4]
  92:Core/Src/NOS_16_Games/Tetris/NOS_WS2812B_TetrisGame.c ****         break;
 388              		.loc 1 92 13 is_stmt 1 view .LVU89
  92:Core/Src/NOS_16_Games/Tetris/NOS_WS2812B_TetrisGame.c ****         break;
 389              		.loc 1 92 43 is_stmt 0 view .LVU90
 390 007e 5B78     		ldrb	r3, [r3, #1]	@ zero_extendqisi2
  92:Core/Src/NOS_16_Games/Tetris/NOS_WS2812B_TetrisGame.c ****         break;
 391              		.loc 1 92 27 view .LVU91
 392 0080 8DF80530 		strb	r3, [sp, #5]
  93:Core/Src/NOS_16_Games/Tetris/NOS_WS2812B_TetrisGame.c **** 
 393              		.loc 1 93 9 is_stmt 1 view .LVU92
 394 0084 E9E7     		b	.L25
 395              	.L32:
  96:Core/Src/NOS_16_Games/Tetris/NOS_WS2812B_TetrisGame.c ****             currSprite[1] = figureO_Sprite[1];
 396              		.loc 1 96 13 view .LVU93
  96:Core/Src/NOS_16_Games/Tetris/NOS_WS2812B_TetrisGame.c ****             currSprite[1] = figureO_Sprite[1];
 397              		.loc 1 96 43 is_stmt 0 view .LVU94
 398 0086 344B     		ldr	r3, .L47+12
 399 0088 1A78     		ldrb	r2, [r3]	@ zero_extendqisi2
ARM GAS  C:\Users\igorn\AppData\Local\Temp\ccVfs7HL.s 			page 11


  96:Core/Src/NOS_16_Games/Tetris/NOS_WS2812B_TetrisGame.c ****             currSprite[1] = figureO_Sprite[1];
 400              		.loc 1 96 27 view .LVU95
 401 008a 8DF80420 		strb	r2, [sp, #4]
  97:Core/Src/NOS_16_Games/Tetris/NOS_WS2812B_TetrisGame.c ****         break;
 402              		.loc 1 97 13 is_stmt 1 view .LVU96
  97:Core/Src/NOS_16_Games/Tetris/NOS_WS2812B_TetrisGame.c ****         break;
 403              		.loc 1 97 43 is_stmt 0 view .LVU97
 404 008e 5B78     		ldrb	r3, [r3, #1]	@ zero_extendqisi2
  97:Core/Src/NOS_16_Games/Tetris/NOS_WS2812B_TetrisGame.c ****         break;
 405              		.loc 1 97 27 view .LVU98
 406 0090 8DF80530 		strb	r3, [sp, #5]
  98:Core/Src/NOS_16_Games/Tetris/NOS_WS2812B_TetrisGame.c **** 
 407              		.loc 1 98 9 is_stmt 1 view .LVU99
 408 0094 E1E7     		b	.L25
 409              	.L30:
 101:Core/Src/NOS_16_Games/Tetris/NOS_WS2812B_TetrisGame.c ****             currSprite[1] = figureS_Sprite[1];
 410              		.loc 1 101 13 view .LVU100
 101:Core/Src/NOS_16_Games/Tetris/NOS_WS2812B_TetrisGame.c ****             currSprite[1] = figureS_Sprite[1];
 411              		.loc 1 101 43 is_stmt 0 view .LVU101
 412 0096 314B     		ldr	r3, .L47+16
 413 0098 1A78     		ldrb	r2, [r3]	@ zero_extendqisi2
 101:Core/Src/NOS_16_Games/Tetris/NOS_WS2812B_TetrisGame.c ****             currSprite[1] = figureS_Sprite[1];
 414              		.loc 1 101 27 view .LVU102
 415 009a 8DF80420 		strb	r2, [sp, #4]
 102:Core/Src/NOS_16_Games/Tetris/NOS_WS2812B_TetrisGame.c ****         break;
 416              		.loc 1 102 13 is_stmt 1 view .LVU103
 102:Core/Src/NOS_16_Games/Tetris/NOS_WS2812B_TetrisGame.c ****         break;
 417              		.loc 1 102 43 is_stmt 0 view .LVU104
 418 009e 5B78     		ldrb	r3, [r3, #1]	@ zero_extendqisi2
 102:Core/Src/NOS_16_Games/Tetris/NOS_WS2812B_TetrisGame.c ****         break;
 419              		.loc 1 102 27 view .LVU105
 420 00a0 8DF80530 		strb	r3, [sp, #5]
 103:Core/Src/NOS_16_Games/Tetris/NOS_WS2812B_TetrisGame.c **** 
 421              		.loc 1 103 9 is_stmt 1 view .LVU106
 422 00a4 D9E7     		b	.L25
 423              	.L31:
 106:Core/Src/NOS_16_Games/Tetris/NOS_WS2812B_TetrisGame.c ****             currSprite[1] = figureT_Sprite[1];
 424              		.loc 1 106 13 view .LVU107
 106:Core/Src/NOS_16_Games/Tetris/NOS_WS2812B_TetrisGame.c ****             currSprite[1] = figureT_Sprite[1];
 425              		.loc 1 106 43 is_stmt 0 view .LVU108
 426 00a6 2E4B     		ldr	r3, .L47+20
 427 00a8 1A78     		ldrb	r2, [r3]	@ zero_extendqisi2
 106:Core/Src/NOS_16_Games/Tetris/NOS_WS2812B_TetrisGame.c ****             currSprite[1] = figureT_Sprite[1];
 428              		.loc 1 106 27 view .LVU109
 429 00aa 8DF80420 		strb	r2, [sp, #4]
 107:Core/Src/NOS_16_Games/Tetris/NOS_WS2812B_TetrisGame.c ****         break;
 430              		.loc 1 107 13 is_stmt 1 view .LVU110
 107:Core/Src/NOS_16_Games/Tetris/NOS_WS2812B_TetrisGame.c ****         break;
 431              		.loc 1 107 43 is_stmt 0 view .LVU111
 432 00ae 5B78     		ldrb	r3, [r3, #1]	@ zero_extendqisi2
 107:Core/Src/NOS_16_Games/Tetris/NOS_WS2812B_TetrisGame.c ****         break;
 433              		.loc 1 107 27 view .LVU112
 434 00b0 8DF80530 		strb	r3, [sp, #5]
 108:Core/Src/NOS_16_Games/Tetris/NOS_WS2812B_TetrisGame.c **** 
 435              		.loc 1 108 9 is_stmt 1 view .LVU113
 436 00b4 D1E7     		b	.L25
 437              	.L29:
ARM GAS  C:\Users\igorn\AppData\Local\Temp\ccVfs7HL.s 			page 12


 111:Core/Src/NOS_16_Games/Tetris/NOS_WS2812B_TetrisGame.c ****             currSprite[1] = figureZ_Sprite[1];
 438              		.loc 1 111 13 view .LVU114
 111:Core/Src/NOS_16_Games/Tetris/NOS_WS2812B_TetrisGame.c ****             currSprite[1] = figureZ_Sprite[1];
 439              		.loc 1 111 43 is_stmt 0 view .LVU115
 440 00b6 2B4B     		ldr	r3, .L47+24
 441 00b8 1A78     		ldrb	r2, [r3]	@ zero_extendqisi2
 111:Core/Src/NOS_16_Games/Tetris/NOS_WS2812B_TetrisGame.c ****             currSprite[1] = figureZ_Sprite[1];
 442              		.loc 1 111 27 view .LVU116
 443 00ba 8DF80420 		strb	r2, [sp, #4]
 112:Core/Src/NOS_16_Games/Tetris/NOS_WS2812B_TetrisGame.c ****         break;
 444              		.loc 1 112 13 is_stmt 1 view .LVU117
 112:Core/Src/NOS_16_Games/Tetris/NOS_WS2812B_TetrisGame.c ****         break;
 445              		.loc 1 112 43 is_stmt 0 view .LVU118
 446 00be 5B78     		ldrb	r3, [r3, #1]	@ zero_extendqisi2
 112:Core/Src/NOS_16_Games/Tetris/NOS_WS2812B_TetrisGame.c ****         break;
 447              		.loc 1 112 27 view .LVU119
 448 00c0 8DF80530 		strb	r3, [sp, #5]
 113:Core/Src/NOS_16_Games/Tetris/NOS_WS2812B_TetrisGame.c **** 
 449              		.loc 1 113 9 is_stmt 1 view .LVU120
 450 00c4 C9E7     		b	.L25
 451              	.LVL29:
 452              	.L37:
 453              	.LBB13:
 454              	.LBB14:
 455              	.LBB15:
 138:Core/Src/NOS_16_Games/Tetris/NOS_WS2812B_TetrisGame.c ****                     }
 456              		.loc 1 138 25 view .LVU121
 138:Core/Src/NOS_16_Games/Tetris/NOS_WS2812B_TetrisGame.c ****                     }
 457              		.loc 1 138 82 is_stmt 0 view .LVU122
 458 00c6 B6F83823 		ldrh	r2, [r6, #824]
 138:Core/Src/NOS_16_Games/Tetris/NOS_WS2812B_TetrisGame.c ****                     }
 459              		.loc 1 138 85 view .LVU123
 460 00ca 2244     		add	r2, r2, r4
 138:Core/Src/NOS_16_Games/Tetris/NOS_WS2812B_TetrisGame.c ****                     }
 461              		.loc 1 138 110 view .LVU124
 462 00cc B6F83633 		ldrh	r3, [r6, #822]
 138:Core/Src/NOS_16_Games/Tetris/NOS_WS2812B_TetrisGame.c ****                     }
 463              		.loc 1 138 113 view .LVU125
 464 00d0 2B44     		add	r3, r3, r5
 138:Core/Src/NOS_16_Games/Tetris/NOS_WS2812B_TetrisGame.c ****                     }
 465              		.loc 1 138 25 view .LVU126
 466 00d2 03EB4303 		add	r3, r3, r3, lsl #1
 467 00d6 02EB4202 		add	r2, r2, r2, lsl #1
 468 00da 03EBC200 		add	r0, r3, r2, lsl #3
 469 00de 3044     		add	r0, r0, r6
 470 00e0 0023     		movs	r3, #0
 471 00e2 1A46     		mov	r2, r3
 472 00e4 1946     		mov	r1, r3
 473 00e6 0330     		adds	r0, r0, #3
 474 00e8 FFF7FEFF 		bl	NOS_WS2812B_SetPixelColor
 475              	.LVL30:
 476              	.L38:
 138:Core/Src/NOS_16_Games/Tetris/NOS_WS2812B_TetrisGame.c ****                     }
 477              		.loc 1 138 25 view .LVU127
 478              	.LBE15:
 128:Core/Src/NOS_16_Games/Tetris/NOS_WS2812B_TetrisGame.c ****                 {
 479              		.loc 1 128 40 is_stmt 1 discriminator 2 view .LVU128
ARM GAS  C:\Users\igorn\AppData\Local\Temp\ccVfs7HL.s 			page 13


 480 00ec 0134     		adds	r4, r4, #1
 481              	.LVL31:
 482              	.L36:
 128:Core/Src/NOS_16_Games/Tetris/NOS_WS2812B_TetrisGame.c ****                 {
 483              		.loc 1 128 34 discriminator 1 view .LVU129
 484 00ee 032C     		cmp	r4, #3
 485 00f0 1EDC     		bgt	.L46
 130:Core/Src/NOS_16_Games/Tetris/NOS_WS2812B_TetrisGame.c **** 
 486              		.loc 1 130 21 view .LVU130
 130:Core/Src/NOS_16_Games/Tetris/NOS_WS2812B_TetrisGame.c **** 
 487              		.loc 1 130 35 is_stmt 0 view .LVU131
 488 00f2 0123     		movs	r3, #1
 489 00f4 03FA08F3 		lsl	r3, r3, r8
 130:Core/Src/NOS_16_Games/Tetris/NOS_WS2812B_TetrisGame.c **** 
 490              		.loc 1 130 47 view .LVU132
 491 00f8 3B40     		ands	r3, r3, r7
 130:Core/Src/NOS_16_Games/Tetris/NOS_WS2812B_TetrisGame.c **** 
 492              		.loc 1 130 29 view .LVU133
 493 00fa 002B     		cmp	r3, #0
 494 00fc 14BF     		ite	ne
 495 00fe 4FF00108 		movne	r8, #1
 496              	.LVL32:
 130:Core/Src/NOS_16_Games/Tetris/NOS_WS2812B_TetrisGame.c **** 
 497              		.loc 1 130 29 view .LVU134
 498 0102 4FF00008 		moveq	r8, #0
 499              	.LVL33:
 132:Core/Src/NOS_16_Games/Tetris/NOS_WS2812B_TetrisGame.c ****                     {
 500              		.loc 1 132 21 is_stmt 1 view .LVU135
 132:Core/Src/NOS_16_Games/Tetris/NOS_WS2812B_TetrisGame.c ****                     {
 501              		.loc 1 132 23 is_stmt 0 view .LVU136
 502 0106 DED0     		beq	.L37
 503              	.LBB16:
 134:Core/Src/NOS_16_Games/Tetris/NOS_WS2812B_TetrisGame.c ****                     }
 504              		.loc 1 134 25 is_stmt 1 view .LVU137
 134:Core/Src/NOS_16_Games/Tetris/NOS_WS2812B_TetrisGame.c ****                     }
 505              		.loc 1 134 82 is_stmt 0 view .LVU138
 506 0108 B6F83823 		ldrh	r2, [r6, #824]
 134:Core/Src/NOS_16_Games/Tetris/NOS_WS2812B_TetrisGame.c ****                     }
 507              		.loc 1 134 85 view .LVU139
 508 010c 2244     		add	r2, r2, r4
 134:Core/Src/NOS_16_Games/Tetris/NOS_WS2812B_TetrisGame.c ****                     }
 509              		.loc 1 134 110 view .LVU140
 510 010e B6F83633 		ldrh	r3, [r6, #822]
 134:Core/Src/NOS_16_Games/Tetris/NOS_WS2812B_TetrisGame.c ****                     }
 511              		.loc 1 134 113 view .LVU141
 512 0112 2B44     		add	r3, r3, r5
 134:Core/Src/NOS_16_Games/Tetris/NOS_WS2812B_TetrisGame.c ****                     }
 513              		.loc 1 134 25 view .LVU142
 514 0114 03EB4303 		add	r3, r3, r3, lsl #1
 515 0118 02EB4202 		add	r2, r2, r2, lsl #1
 516 011c 03EBC200 		add	r0, r3, r2, lsl #3
 517 0120 3044     		add	r0, r0, r6
 518 0122 0023     		movs	r3, #0
 519 0124 1A46     		mov	r2, r3
 520 0126 FF21     		movs	r1, #255
 521 0128 0330     		adds	r0, r0, #3
 522 012a FFF7FEFF 		bl	NOS_WS2812B_SetPixelColor
ARM GAS  C:\Users\igorn\AppData\Local\Temp\ccVfs7HL.s 			page 14


 523              	.LVL34:
 524              	.LBE16:
 525 012e DDE7     		b	.L38
 526              	.L46:
 134:Core/Src/NOS_16_Games/Tetris/NOS_WS2812B_TetrisGame.c ****                     }
 527              		.loc 1 134 25 view .LVU143
 528              	.LBE14:
 124:Core/Src/NOS_16_Games/Tetris/NOS_WS2812B_TetrisGame.c ****             {
 529              		.loc 1 124 36 is_stmt 1 discriminator 2 view .LVU144
 530 0130 0135     		adds	r5, r5, #1
 531              	.LVL35:
 532              	.L34:
 124:Core/Src/NOS_16_Games/Tetris/NOS_WS2812B_TetrisGame.c ****             {
 533              		.loc 1 124 30 discriminator 1 view .LVU145
 534 0132 012D     		cmp	r5, #1
 535 0134 94DC     		bgt	.L21
 126:Core/Src/NOS_16_Games/Tetris/NOS_WS2812B_TetrisGame.c **** 
 536              		.loc 1 126 17 view .LVU146
 126:Core/Src/NOS_16_Games/Tetris/NOS_WS2812B_TetrisGame.c **** 
 537              		.loc 1 126 26 is_stmt 0 view .LVU147
 538 0136 05F10803 		add	r3, r5, #8
 539 013a 6B44     		add	r3, sp, r3
 540 013c 13F8047C 		ldrb	r7, [r3, #-4]	@ zero_extendqisi2
 541              	.LVL36:
 128:Core/Src/NOS_16_Games/Tetris/NOS_WS2812B_TetrisGame.c ****                 {
 542              		.loc 1 128 17 is_stmt 1 view .LVU148
 543              	.LBB17:
 128:Core/Src/NOS_16_Games/Tetris/NOS_WS2812B_TetrisGame.c ****                 {
 544              		.loc 1 128 21 view .LVU149
 128:Core/Src/NOS_16_Games/Tetris/NOS_WS2812B_TetrisGame.c ****                 {
 545              		.loc 1 128 25 is_stmt 0 view .LVU150
 546 0140 0024     		movs	r4, #0
 128:Core/Src/NOS_16_Games/Tetris/NOS_WS2812B_TetrisGame.c ****                 {
 547              		.loc 1 128 17 view .LVU151
 548 0142 D4E7     		b	.L36
 549              	.LVL37:
 550              	.L42:
 128:Core/Src/NOS_16_Games/Tetris/NOS_WS2812B_TetrisGame.c ****                 {
 551              		.loc 1 128 17 view .LVU152
 552              	.LBE17:
 124:Core/Src/NOS_16_Games/Tetris/NOS_WS2812B_TetrisGame.c ****             {
 553              		.loc 1 124 21 view .LVU153
 554 0144 0025     		movs	r5, #0
 555              	.LVL38:
 124:Core/Src/NOS_16_Games/Tetris/NOS_WS2812B_TetrisGame.c ****             {
 556              		.loc 1 124 21 view .LVU154
 557              	.LBE13:
  68:Core/Src/NOS_16_Games/Tetris/NOS_WS2812B_TetrisGame.c **** 
 558              		.loc 1 68 10 view .LVU155
 559 0146 A846     		mov	r8, r5
 560 0148 F3E7     		b	.L34
 561              	.L48:
 562 014a 00BF     		.align	2
 563              	.L47:
 564 014c 00000000 		.word	figureI_Sprite
 565 0150 00000000 		.word	figureJ_Sprite
 566 0154 00000000 		.word	figureL_Sprite
ARM GAS  C:\Users\igorn\AppData\Local\Temp\ccVfs7HL.s 			page 15


 567 0158 00000000 		.word	figureO_Sprite
 568 015c 00000000 		.word	figureS_Sprite
 569 0160 00000000 		.word	figureT_Sprite
 570 0164 00000000 		.word	figureZ_Sprite
 571              		.cfi_endproc
 572              	.LFE134:
 574              		.section	.text.NOS_Tetris_Game_DoNextStep,"ax",%progbits
 575              		.align	1
 576              		.global	NOS_Tetris_Game_DoNextStep
 577              		.syntax unified
 578              		.thumb
 579              		.thumb_func
 581              	NOS_Tetris_Game_DoNextStep:
 582              	.LVL39:
 583              	.LFB135:
 149:Core/Src/NOS_16_Games/Tetris/NOS_WS2812B_TetrisGame.c **** 
 150:Core/Src/NOS_16_Games/Tetris/NOS_WS2812B_TetrisGame.c **** void NOS_Tetris_Game_DoNextStep(NOS_Tetris_Game* game)
 151:Core/Src/NOS_16_Games/Tetris/NOS_WS2812B_TetrisGame.c **** {
 584              		.loc 1 151 1 is_stmt 1 view -0
 585              		.cfi_startproc
 586              		@ args = 0, pretend = 0, frame = 0
 587              		@ frame_needed = 0, uses_anonymous_args = 0
 588              		@ link register save eliminated.
 152:Core/Src/NOS_16_Games/Tetris/NOS_WS2812B_TetrisGame.c ****     game->referencePoint.y--;
 589              		.loc 1 152 5 view .LVU157
 590              		.loc 1 152 25 is_stmt 0 view .LVU158
 591 0000 B0F83833 		ldrh	r3, [r0, #824]
 592              		.loc 1 152 27 view .LVU159
 593 0004 5A1E     		subs	r2, r3, #1
 594 0006 A0F83823 		strh	r2, [r0, #824]	@ movhi
 153:Core/Src/NOS_16_Games/Tetris/NOS_WS2812B_TetrisGame.c ****     if(game->referencePoint.y < 1 || game->referencePoint.y > 28)
 595              		.loc 1 153 5 is_stmt 1 view .LVU160
 596              		.loc 1 153 35 is_stmt 0 view .LVU161
 597 000a 023B     		subs	r3, r3, #2
 598 000c 9BB2     		uxth	r3, r3
 599              		.loc 1 153 7 view .LVU162
 600 000e 1B2B     		cmp	r3, #27
 601 0010 02D9     		bls	.L49
 154:Core/Src/NOS_16_Games/Tetris/NOS_WS2812B_TetrisGame.c ****     {
 155:Core/Src/NOS_16_Games/Tetris/NOS_WS2812B_TetrisGame.c ****         game->referencePoint.y = 28;
 602              		.loc 1 155 9 is_stmt 1 view .LVU163
 603              		.loc 1 155 32 is_stmt 0 view .LVU164
 604 0012 1C23     		movs	r3, #28
 605 0014 A0F83833 		strh	r3, [r0, #824]	@ movhi
 606              	.L49:
 156:Core/Src/NOS_16_Games/Tetris/NOS_WS2812B_TetrisGame.c ****     }
 157:Core/Src/NOS_16_Games/Tetris/NOS_WS2812B_TetrisGame.c **** }
 607              		.loc 1 157 1 view .LVU165
 608 0018 7047     		bx	lr
 609              		.cfi_endproc
 610              	.LFE135:
 612              		.section	.text.NOS_Tetris_Game_Draw,"ax",%progbits
 613              		.align	1
 614              		.global	NOS_Tetris_Game_Draw
 615              		.syntax unified
 616              		.thumb
 617              		.thumb_func
ARM GAS  C:\Users\igorn\AppData\Local\Temp\ccVfs7HL.s 			page 16


 619              	NOS_Tetris_Game_Draw:
 620              	.LVL40:
 621              	.LFB136:
 158:Core/Src/NOS_16_Games/Tetris/NOS_WS2812B_TetrisGame.c **** 
 159:Core/Src/NOS_16_Games/Tetris/NOS_WS2812B_TetrisGame.c **** void NOS_Tetris_Game_Draw(WS2812B_Matrix* matrix,NOS_Tetris_Game* game)
 160:Core/Src/NOS_16_Games/Tetris/NOS_WS2812B_TetrisGame.c **** {
 622              		.loc 1 160 1 is_stmt 1 view -0
 623              		.cfi_startproc
 624              		@ args = 0, pretend = 0, frame = 8
 625              		@ frame_needed = 0, uses_anonymous_args = 0
 626              		.loc 1 160 1 is_stmt 0 view .LVU167
 627 0000 F0B5     		push	{r4, r5, r6, r7, lr}
 628              		.cfi_def_cfa_offset 20
 629              		.cfi_offset 4, -20
 630              		.cfi_offset 5, -16
 631              		.cfi_offset 6, -12
 632              		.cfi_offset 7, -8
 633              		.cfi_offset 14, -4
 634 0002 83B0     		sub	sp, sp, #12
 635              		.cfi_def_cfa_offset 32
 636 0004 0746     		mov	r7, r0
 637 0006 0E46     		mov	r6, r1
 161:Core/Src/NOS_16_Games/Tetris/NOS_WS2812B_TetrisGame.c ****     PixelColor curr = {0,0,0};
 638              		.loc 1 161 5 is_stmt 1 view .LVU168
 639              		.loc 1 161 16 is_stmt 0 view .LVU169
 640 0008 0023     		movs	r3, #0
 641 000a 8DF80430 		strb	r3, [sp, #4]
 642 000e 8DF80530 		strb	r3, [sp, #5]
 643 0012 8DF80630 		strb	r3, [sp, #6]
 162:Core/Src/NOS_16_Games/Tetris/NOS_WS2812B_TetrisGame.c ****     uint8_t x,y = 1;
 644              		.loc 1 162 5 is_stmt 1 view .LVU170
 645              	.LVL41:
 163:Core/Src/NOS_16_Games/Tetris/NOS_WS2812B_TetrisGame.c **** 
 164:Core/Src/NOS_16_Games/Tetris/NOS_WS2812B_TetrisGame.c ****     for(y = 1; y < mapSize_Y; y++)
 646              		.loc 1 164 5 view .LVU171
 647              		.loc 1 164 11 is_stmt 0 view .LVU172
 648 0016 0125     		movs	r5, #1
 649              		.loc 1 164 5 view .LVU173
 650 0018 1EE0     		b	.L52
 651              	.LVL42:
 652              	.L53:
 653              	.LBB18:
 165:Core/Src/NOS_16_Games/Tetris/NOS_WS2812B_TetrisGame.c ****     {
 166:Core/Src/NOS_16_Games/Tetris/NOS_WS2812B_TetrisGame.c ****         for(x = 1; x < mapSize_X; x++)
 167:Core/Src/NOS_16_Games/Tetris/NOS_WS2812B_TetrisGame.c ****         {
 168:Core/Src/NOS_16_Games/Tetris/NOS_WS2812B_TetrisGame.c ****             curr = game->map[y - 1][x - 1];
 654              		.loc 1 168 13 is_stmt 1 discriminator 3 view .LVU174
 655              		.loc 1 168 32 is_stmt 0 discriminator 3 view .LVU175
 656 001a 6A1E     		subs	r2, r5, #1
 657              		.loc 1 168 39 discriminator 3 view .LVU176
 658 001c 631E     		subs	r3, r4, #1
 659              		.loc 1 168 18 discriminator 3 view .LVU177
 660 001e 03EB4303 		add	r3, r3, r3, lsl #1
 661 0022 02EB4202 		add	r2, r2, r2, lsl #1
 662 0026 03EBC203 		add	r3, r3, r2, lsl #3
 663 002a 3344     		add	r3, r3, r6
 664 002c B3F80320 		ldrh	r2, [r3, #3]	@ unaligned
ARM GAS  C:\Users\igorn\AppData\Local\Temp\ccVfs7HL.s 			page 17


 665 0030 5B79     		ldrb	r3, [r3, #5]	@ zero_extendqisi2
 666 0032 ADF80420 		strh	r2, [sp, #4]	@ unaligned
 667 0036 8DF80630 		strb	r3, [sp, #6]
 169:Core/Src/NOS_16_Games/Tetris/NOS_WS2812B_TetrisGame.c ****             NOS_WS2812B_Matrix_SetPixel(matrix,&curr,Test_GetPixelPos(y,x));
 668              		.loc 1 169 13 is_stmt 1 discriminator 3 view .LVU178
 669 003a 2146     		mov	r1, r4
 670 003c 2846     		mov	r0, r5
 671 003e FFF7FEFF 		bl	Test_GetPixelPos
 672              	.LVL43:
 673 0042 0246     		mov	r2, r0
 674 0044 01A9     		add	r1, sp, #4
 675 0046 3846     		mov	r0, r7
 676 0048 FFF7FEFF 		bl	NOS_WS2812B_Matrix_SetPixel
 677              	.LVL44:
 678              	.LBE18:
 166:Core/Src/NOS_16_Games/Tetris/NOS_WS2812B_TetrisGame.c ****         {
 679              		.loc 1 166 36 discriminator 3 view .LVU179
 680 004c 0134     		adds	r4, r4, #1
 681              	.LVL45:
 166:Core/Src/NOS_16_Games/Tetris/NOS_WS2812B_TetrisGame.c ****         {
 682              		.loc 1 166 36 is_stmt 0 discriminator 3 view .LVU180
 683 004e E4B2     		uxtb	r4, r4
 684              	.LVL46:
 685              	.L54:
 166:Core/Src/NOS_16_Games/Tetris/NOS_WS2812B_TetrisGame.c ****         {
 686              		.loc 1 166 22 is_stmt 1 discriminator 1 view .LVU181
 687 0050 072C     		cmp	r4, #7
 688 0052 E2D9     		bls	.L53
 164:Core/Src/NOS_16_Games/Tetris/NOS_WS2812B_TetrisGame.c ****     {
 689              		.loc 1 164 32 discriminator 2 view .LVU182
 690 0054 0135     		adds	r5, r5, #1
 691              	.LVL47:
 164:Core/Src/NOS_16_Games/Tetris/NOS_WS2812B_TetrisGame.c ****     {
 692              		.loc 1 164 32 is_stmt 0 discriminator 2 view .LVU183
 693 0056 EDB2     		uxtb	r5, r5
 694              	.LVL48:
 695              	.L52:
 164:Core/Src/NOS_16_Games/Tetris/NOS_WS2812B_TetrisGame.c ****     {
 696              		.loc 1 164 18 is_stmt 1 discriminator 1 view .LVU184
 697 0058 1F2D     		cmp	r5, #31
 698 005a 01D8     		bhi	.L57
 166:Core/Src/NOS_16_Games/Tetris/NOS_WS2812B_TetrisGame.c ****         {
 699              		.loc 1 166 15 is_stmt 0 view .LVU185
 700 005c 0124     		movs	r4, #1
 701 005e F7E7     		b	.L54
 702              	.L57:
 170:Core/Src/NOS_16_Games/Tetris/NOS_WS2812B_TetrisGame.c ****         }
 171:Core/Src/NOS_16_Games/Tetris/NOS_WS2812B_TetrisGame.c ****     }
 172:Core/Src/NOS_16_Games/Tetris/NOS_WS2812B_TetrisGame.c **** }
 703              		.loc 1 172 1 view .LVU186
 704 0060 03B0     		add	sp, sp, #12
 705              		.cfi_def_cfa_offset 20
 706              		@ sp needed
 707 0062 F0BD     		pop	{r4, r5, r6, r7, pc}
 708              		.loc 1 172 1 view .LVU187
 709              		.cfi_endproc
 710              	.LFE136:
ARM GAS  C:\Users\igorn\AppData\Local\Temp\ccVfs7HL.s 			page 18


 712              		.global	figureL_Sprite
 713              		.section	.data.figureL_Sprite,"aw"
 714              		.align	2
 717              	figureL_Sprite:
 718 0000 0701     		.ascii	"\007\001"
 719              		.global	figureJ_Sprite
 720              		.section	.data.figureJ_Sprite,"aw"
 721              		.align	2
 724              	figureJ_Sprite:
 725 0000 0704     		.ascii	"\007\004"
 726              		.global	figureZ_Sprite
 727              		.section	.data.figureZ_Sprite,"aw"
 728              		.align	2
 731              	figureZ_Sprite:
 732 0000 0306     		.ascii	"\003\006"
 733              		.global	figureS_Sprite
 734              		.section	.data.figureS_Sprite,"aw"
 735              		.align	2
 738              	figureS_Sprite:
 739 0000 0603     		.ascii	"\006\003"
 740              		.global	figureT_Sprite
 741              		.section	.data.figureT_Sprite,"aw"
 742              		.align	2
 745              	figureT_Sprite:
 746 0000 0702     		.ascii	"\007\002"
 747              		.global	figureO_Sprite
 748              		.section	.data.figureO_Sprite,"aw"
 749              		.align	2
 752              	figureO_Sprite:
 753 0000 0606     		.ascii	"\006\006"
 754              		.global	figureI_Sprite
 755              		.section	.data.figureI_Sprite,"aw"
 756              		.align	2
 759              	figureI_Sprite:
 760 0000 0F00     		.ascii	"\017\000"
 761              		.text
 762              	.Letext0:
 763              		.file 2 "c:\\users\\igorn\\appdata\\roaming\\code\\user\\globalstorage\\bmd.stm32-for-vscode\\@xpa
 764              		.file 3 "c:\\users\\igorn\\appdata\\roaming\\code\\user\\globalstorage\\bmd.stm32-for-vscode\\@xpa
 765              		.file 4 "Core/Src/NOS_LIB_Driver/Inc/NOS_Typedefs.h"
 766              		.file 5 "Core/Src/NOS_16_Games/Tetris/NOS_WS2812B_TetrisGame.h"
ARM GAS  C:\Users\igorn\AppData\Local\Temp\ccVfs7HL.s 			page 19

