ARM GAS  C:\Users\igorn\AppData\Local\Temp\ccHqPtul.s 			page 1


   1              		.cpu cortex-m4
   2              		.arch armv7e-m
   3              		.fpu fpv4-sp-d16
   4              		.eabi_attribute 27, 1
   5              		.eabi_attribute 28, 1
   6              		.eabi_attribute 20, 1
   7              		.eabi_attribute 21, 1
   8              		.eabi_attribute 23, 3
   9              		.eabi_attribute 24, 1
  10              		.eabi_attribute 25, 1
  11              		.eabi_attribute 26, 1
  12              		.eabi_attribute 30, 1
  13              		.eabi_attribute 34, 1
  14              		.eabi_attribute 18, 4
  15              		.file	"WS2812B.c"
  16              		.text
  17              	.Ltext0:
  18              		.cfi_sections	.debug_frame
  19              		.file 1 "Core/Src/NOS_LIB_Driver/Src/WS2812B.c"
  20              		.section	.text.NOS_WS2812B_Matrix_BaseInit,"ax",%progbits
  21              		.align	1
  22              		.global	NOS_WS2812B_Matrix_BaseInit
  23              		.syntax unified
  24              		.thumb
  25              		.thumb_func
  27              	NOS_WS2812B_Matrix_BaseInit:
  28              	.LVL0:
  29              	.LFB130:
   1:Core/Src/NOS_LIB_Driver/Src/WS2812B.c **** #include "WS2812B.h"
   2:Core/Src/NOS_LIB_Driver/Src/WS2812B.c **** #include "CharLib(7x5).h"
   3:Core/Src/NOS_LIB_Driver/Src/WS2812B.c **** #include <stdbool.h>
   4:Core/Src/NOS_LIB_Driver/Src/WS2812B.c **** #include <stdlib.h>
   5:Core/Src/NOS_LIB_Driver/Src/WS2812B.c **** #include "NOS_Math.h"
   6:Core/Src/NOS_LIB_Driver/Src/WS2812B.c **** #include "locale.h"
   7:Core/Src/NOS_LIB_Driver/Src/WS2812B.c **** 
   8:Core/Src/NOS_LIB_Driver/Src/WS2812B.c **** /// @brief
   9:Core/Src/NOS_LIB_Driver/Src/WS2812B.c **** 
  10:Core/Src/NOS_LIB_Driver/Src/WS2812B.c **** void NOS_WS2812B_Matrix_BaseInit(WS2812B_Matrix *matrix, uint8_t *buff, uint16_t ledsCount)
  11:Core/Src/NOS_LIB_Driver/Src/WS2812B.c **** {
  30              		.loc 1 11 1 view -0
  31              		.cfi_startproc
  32              		@ args = 0, pretend = 0, frame = 0
  33              		@ frame_needed = 0, uses_anonymous_args = 0
  34              		@ link register save eliminated.
  12:Core/Src/NOS_LIB_Driver/Src/WS2812B.c ****     matrix->buffer = buff;
  35              		.loc 1 12 5 view .LVU1
  36              		.loc 1 12 20 is_stmt 0 view .LVU2
  37 0000 0160     		str	r1, [r0]
  13:Core/Src/NOS_LIB_Driver/Src/WS2812B.c ****     matrix->ledsCount.data = ledsCount;
  38              		.loc 1 13 5 is_stmt 1 view .LVU3
  39              		.loc 1 13 28 is_stmt 0 view .LVU4
  40 0002 C280     		strh	r2, [r0, #6]	@ movhi
  14:Core/Src/NOS_LIB_Driver/Src/WS2812B.c **** }
  41              		.loc 1 14 1 view .LVU5
  42 0004 7047     		bx	lr
  43              		.cfi_endproc
  44              	.LFE130:
ARM GAS  C:\Users\igorn\AppData\Local\Temp\ccHqPtul.s 			page 2


  46              		.section	.text.NOS_WS2812B_Matrix_FullInit,"ax",%progbits
  47              		.align	1
  48              		.global	NOS_WS2812B_Matrix_FullInit
  49              		.syntax unified
  50              		.thumb
  51              		.thumb_func
  53              	NOS_WS2812B_Matrix_FullInit:
  54              	.LVL1:
  55              	.LFB131:
  15:Core/Src/NOS_LIB_Driver/Src/WS2812B.c **** 
  16:Core/Src/NOS_LIB_Driver/Src/WS2812B.c **** void NOS_WS2812B_Matrix_FullInit(WS2812B_Matrix *matrix, uint8_t *buff, MatrixSize *size, PixelColo
  17:Core/Src/NOS_LIB_Driver/Src/WS2812B.c **** {
  56              		.loc 1 17 1 is_stmt 1 view -0
  57              		.cfi_startproc
  58              		@ args = 12, pretend = 0, frame = 0
  59              		@ frame_needed = 0, uses_anonymous_args = 0
  60              		@ link register save eliminated.
  18:Core/Src/NOS_LIB_Driver/Src/WS2812B.c ****     matrix->buffer = buff;
  61              		.loc 1 18 5 view .LVU7
  62              		.loc 1 18 20 is_stmt 0 view .LVU8
  63 0000 0160     		str	r1, [r0]
  19:Core/Src/NOS_LIB_Driver/Src/WS2812B.c ****     matrix->symvols = symvols;
  64              		.loc 1 19 5 is_stmt 1 view .LVU9
  65              		.loc 1 19 21 is_stmt 0 view .LVU10
  66 0002 0199     		ldr	r1, [sp, #4]
  67              	.LVL2:
  68              		.loc 1 19 21 view .LVU11
  69 0004 4161     		str	r1, [r0, #20]
  20:Core/Src/NOS_LIB_Driver/Src/WS2812B.c ****     matrix->textColor = text;
  70              		.loc 1 20 5 is_stmt 1 view .LVU12
  71              		.loc 1 20 23 is_stmt 0 view .LVU13
  72 0006 C360     		str	r3, [r0, #12]
  21:Core/Src/NOS_LIB_Driver/Src/WS2812B.c ****     matrix->foneColor = fone;
  73              		.loc 1 21 5 is_stmt 1 view .LVU14
  74              		.loc 1 21 23 is_stmt 0 view .LVU15
  75 0008 009B     		ldr	r3, [sp]
  76              	.LVL3:
  77              		.loc 1 21 23 view .LVU16
  78 000a 0361     		str	r3, [r0, #16]
  22:Core/Src/NOS_LIB_Driver/Src/WS2812B.c ****     matrix->size = size;
  79              		.loc 1 22 5 is_stmt 1 view .LVU17
  80              		.loc 1 22 18 is_stmt 0 view .LVU18
  81 000c 8260     		str	r2, [r0, #8]
  23:Core/Src/NOS_LIB_Driver/Src/WS2812B.c ****     matrix->bright = bright;
  82              		.loc 1 23 5 is_stmt 1 view .LVU19
  83              		.loc 1 23 20 is_stmt 0 view .LVU20
  84 000e 9DF80830 		ldrb	r3, [sp, #8]	@ zero_extendqisi2
  85 0012 0371     		strb	r3, [r0, #4]
  24:Core/Src/NOS_LIB_Driver/Src/WS2812B.c **** }
  86              		.loc 1 24 1 view .LVU21
  87 0014 7047     		bx	lr
  88              		.cfi_endproc
  89              	.LFE131:
  91              		.section	.text.NOS_WS2812B_Matrix_SetPixel,"ax",%progbits
  92              		.align	1
  93              		.global	NOS_WS2812B_Matrix_SetPixel
  94              		.syntax unified
ARM GAS  C:\Users\igorn\AppData\Local\Temp\ccHqPtul.s 			page 3


  95              		.thumb
  96              		.thumb_func
  98              	NOS_WS2812B_Matrix_SetPixel:
  99              	.LVL4:
 100              	.LFB132:
  25:Core/Src/NOS_LIB_Driver/Src/WS2812B.c **** 
  26:Core/Src/NOS_LIB_Driver/Src/WS2812B.c **** void NOS_WS2812B_Matrix_SetPixel(WS2812B_Matrix *matrix, PixelColor *color, uint16_t pixelPos)
  27:Core/Src/NOS_LIB_Driver/Src/WS2812B.c **** {
 101              		.loc 1 27 1 is_stmt 1 view -0
 102              		.cfi_startproc
 103              		@ args = 0, pretend = 0, frame = 0
 104              		@ frame_needed = 0, uses_anonymous_args = 0
 105              		@ link register save eliminated.
 106              		.loc 1 27 1 is_stmt 0 view .LVU23
 107 0000 10B4     		push	{r4}
 108              		.cfi_def_cfa_offset 4
 109              		.cfi_offset 4, -4
  28:Core/Src/NOS_LIB_Driver/Src/WS2812B.c ****     matrix->buffer[pixelPos * 3] = color->R;
 110              		.loc 1 28 5 is_stmt 1 view .LVU24
 111              		.loc 1 28 11 is_stmt 0 view .LVU25
 112 0002 0368     		ldr	r3, [r0]
 113              		.loc 1 28 29 view .LVU26
 114 0004 02EB4202 		add	r2, r2, r2, lsl #1
 115              	.LVL5:
 116              		.loc 1 28 41 view .LVU27
 117 0008 91F800C0 		ldrb	ip, [r1]	@ zero_extendqisi2
 118              		.loc 1 28 34 view .LVU28
 119 000c 03F802C0 		strb	ip, [r3, r2]
  29:Core/Src/NOS_LIB_Driver/Src/WS2812B.c ****     matrix->buffer[pixelPos * 3 + 1] = color->G;
 120              		.loc 1 29 5 is_stmt 1 view .LVU29
 121              		.loc 1 29 19 is_stmt 0 view .LVU30
 122 0010 531C     		adds	r3, r2, #1
 123              		.loc 1 29 45 view .LVU31
 124 0012 91F801C0 		ldrb	ip, [r1, #1]	@ zero_extendqisi2
 125              		.loc 1 29 38 view .LVU32
 126 0016 0468     		ldr	r4, [r0]
 127 0018 04F803C0 		strb	ip, [r4, r3]
  30:Core/Src/NOS_LIB_Driver/Src/WS2812B.c ****     matrix->buffer[pixelPos * 3 + 2] = color->B;
 128              		.loc 1 30 5 is_stmt 1 view .LVU33
 129              		.loc 1 30 11 is_stmt 0 view .LVU34
 130 001c 0368     		ldr	r3, [r0]
 131              		.loc 1 30 19 view .LVU35
 132 001e 0232     		adds	r2, r2, #2
 133              		.loc 1 30 45 view .LVU36
 134 0020 8978     		ldrb	r1, [r1, #2]	@ zero_extendqisi2
 135              	.LVL6:
 136              		.loc 1 30 38 view .LVU37
 137 0022 9954     		strb	r1, [r3, r2]
  31:Core/Src/NOS_LIB_Driver/Src/WS2812B.c **** }
 138              		.loc 1 31 1 view .LVU38
 139 0024 5DF8044B 		ldr	r4, [sp], #4
 140              		.cfi_restore 4
 141              		.cfi_def_cfa_offset 0
 142 0028 7047     		bx	lr
 143              		.cfi_endproc
 144              	.LFE132:
 146              		.section	.text.GetPixelPos,"ax",%progbits
ARM GAS  C:\Users\igorn\AppData\Local\Temp\ccHqPtul.s 			page 4


 147              		.align	1
 148              		.global	GetPixelPos
 149              		.syntax unified
 150              		.thumb
 151              		.thumb_func
 153              	GetPixelPos:
 154              	.LVL7:
 155              	.LFB133:
  32:Core/Src/NOS_LIB_Driver/Src/WS2812B.c **** 
  33:Core/Src/NOS_LIB_Driver/Src/WS2812B.c **** uint16_t GetPixelPos(uint8_t x, uint8_t y)
  34:Core/Src/NOS_LIB_Driver/Src/WS2812B.c **** {
 156              		.loc 1 34 1 is_stmt 1 view -0
 157              		.cfi_startproc
 158              		@ args = 0, pretend = 0, frame = 0
 159              		@ frame_needed = 0, uses_anonymous_args = 0
 160              		@ link register save eliminated.
  35:Core/Src/NOS_LIB_Driver/Src/WS2812B.c ****     if (x % 2 == 0)
 161              		.loc 1 35 5 view .LVU40
 162              		.loc 1 35 8 is_stmt 0 view .LVU41
 163 0000 10F0010F 		tst	r0, #1
 164 0004 02D1     		bne	.L6
  36:Core/Src/NOS_LIB_Driver/Src/WS2812B.c ****     {
  37:Core/Src/NOS_LIB_Driver/Src/WS2812B.c ****         return (x * 8) + y;
 165              		.loc 1 37 9 is_stmt 1 view .LVU42
 166              		.loc 1 37 24 is_stmt 0 view .LVU43
 167 0006 01EBC000 		add	r0, r1, r0, lsl #3
 168              	.LVL8:
 169              		.loc 1 37 24 view .LVU44
 170 000a 7047     		bx	lr
 171              	.LVL9:
 172              	.L6:
  38:Core/Src/NOS_LIB_Driver/Src/WS2812B.c ****     }
  39:Core/Src/NOS_LIB_Driver/Src/WS2812B.c ****     else
  40:Core/Src/NOS_LIB_Driver/Src/WS2812B.c ****     {
  41:Core/Src/NOS_LIB_Driver/Src/WS2812B.c ****         return (x * 8) + (8 - y);
 173              		.loc 1 41 9 is_stmt 1 view .LVU45
 174              		.loc 1 41 24 is_stmt 0 view .LVU46
 175 000c C1EBC000 		rsb	r0, r1, r0, lsl #3
 176              	.LVL10:
 177              		.loc 1 41 24 view .LVU47
 178 0010 0830     		adds	r0, r0, #8
 179 0012 80B2     		uxth	r0, r0
  42:Core/Src/NOS_LIB_Driver/Src/WS2812B.c ****     }
  43:Core/Src/NOS_LIB_Driver/Src/WS2812B.c **** }
 180              		.loc 1 43 1 view .LVU48
 181 0014 7047     		bx	lr
 182              		.cfi_endproc
 183              	.LFE133:
 185              		.section	.text.NOS_WS2812B_SetPixelColor,"ax",%progbits
 186              		.align	1
 187              		.global	NOS_WS2812B_SetPixelColor
 188              		.syntax unified
 189              		.thumb
 190              		.thumb_func
 192              	NOS_WS2812B_SetPixelColor:
 193              	.LVL11:
 194              	.LFB142:
ARM GAS  C:\Users\igorn\AppData\Local\Temp\ccHqPtul.s 			page 5


  44:Core/Src/NOS_LIB_Driver/Src/WS2812B.c **** 
  45:Core/Src/NOS_LIB_Driver/Src/WS2812B.c **** void NOS_WS2812B_Matrix_Update(WS2812B_Matrix *matrix, uint16_t offset, uint32_t counter)
  46:Core/Src/NOS_LIB_Driver/Src/WS2812B.c **** {
  47:Core/Src/NOS_LIB_Driver/Src/WS2812B.c ****     uint16_t currColumn = offset;
  48:Core/Src/NOS_LIB_Driver/Src/WS2812B.c ****     uint8_t symvolCount = matrix->size->col / 6;
  49:Core/Src/NOS_LIB_Driver/Src/WS2812B.c ****     uint8_t colls = matrix->size->col;
  50:Core/Src/NOS_LIB_Driver/Src/WS2812B.c **** 
  51:Core/Src/NOS_LIB_Driver/Src/WS2812B.c ****     for (int currSymvol = 0; currSymvol < symvolCount; currSymvol++)
  52:Core/Src/NOS_LIB_Driver/Src/WS2812B.c ****     {
  53:Core/Src/NOS_LIB_Driver/Src/WS2812B.c ****         NOS_WS2812B_Matrix_PrintSymvol(matrix, currSymvol, currColumn, colls, counter);
  54:Core/Src/NOS_LIB_Driver/Src/WS2812B.c ****         currColumn += 6;
  55:Core/Src/NOS_LIB_Driver/Src/WS2812B.c ****         counter += matrix->bright / 4;
  56:Core/Src/NOS_LIB_Driver/Src/WS2812B.c ****     }
  57:Core/Src/NOS_LIB_Driver/Src/WS2812B.c **** }
  58:Core/Src/NOS_LIB_Driver/Src/WS2812B.c **** 
  59:Core/Src/NOS_LIB_Driver/Src/WS2812B.c **** void NOS_WS2812B_Matrix_PrintSymvol(WS2812B_Matrix *matrix, uint8_t currSymvol, uint8_t currColumn,
  60:Core/Src/NOS_LIB_Driver/Src/WS2812B.c **** {
  61:Core/Src/NOS_LIB_Driver/Src/WS2812B.c ****     uint8_t currByte = 0;
  62:Core/Src/NOS_LIB_Driver/Src/WS2812B.c ****     bool bit = false;
  63:Core/Src/NOS_LIB_Driver/Src/WS2812B.c ****     uint8_t currX = 0;
  64:Core/Src/NOS_LIB_Driver/Src/WS2812B.c **** 
  65:Core/Src/NOS_LIB_Driver/Src/WS2812B.c ****     for (int Column = 0; Column < 5; Column++)
  66:Core/Src/NOS_LIB_Driver/Src/WS2812B.c ****     {
  67:Core/Src/NOS_LIB_Driver/Src/WS2812B.c ****         currByte = matrix->symvols[currSymvol].data[Column];
  68:Core/Src/NOS_LIB_Driver/Src/WS2812B.c ****         NOS_WS2812B_EffectRainbow(matrix, counter);
  69:Core/Src/NOS_LIB_Driver/Src/WS2812B.c **** 
  70:Core/Src/NOS_LIB_Driver/Src/WS2812B.c ****         if (currColumn % 2 == 0)
  71:Core/Src/NOS_LIB_Driver/Src/WS2812B.c ****         {
  72:Core/Src/NOS_LIB_Driver/Src/WS2812B.c ****             currX = 0;
  73:Core/Src/NOS_LIB_Driver/Src/WS2812B.c ****         }
  74:Core/Src/NOS_LIB_Driver/Src/WS2812B.c ****         else
  75:Core/Src/NOS_LIB_Driver/Src/WS2812B.c ****         {
  76:Core/Src/NOS_LIB_Driver/Src/WS2812B.c ****             currX = 1;
  77:Core/Src/NOS_LIB_Driver/Src/WS2812B.c ****         }
  78:Core/Src/NOS_LIB_Driver/Src/WS2812B.c **** 
  79:Core/Src/NOS_LIB_Driver/Src/WS2812B.c ****         for (int currBit = 0; currBit < 8; currBit++)
  80:Core/Src/NOS_LIB_Driver/Src/WS2812B.c ****         {
  81:Core/Src/NOS_LIB_Driver/Src/WS2812B.c ****             bit = ((1 << currBit) & currByte);
  82:Core/Src/NOS_LIB_Driver/Src/WS2812B.c ****             if (bit)
  83:Core/Src/NOS_LIB_Driver/Src/WS2812B.c ****             {
  84:Core/Src/NOS_LIB_Driver/Src/WS2812B.c ****                 NOS_WS2812B_Matrix_SetPixel(matrix, matrix->textColor, GetPixelPos(NOS_Math_Normali
  85:Core/Src/NOS_LIB_Driver/Src/WS2812B.c ****             }
  86:Core/Src/NOS_LIB_Driver/Src/WS2812B.c ****             else
  87:Core/Src/NOS_LIB_Driver/Src/WS2812B.c ****             {
  88:Core/Src/NOS_LIB_Driver/Src/WS2812B.c ****                 NOS_WS2812B_Matrix_SetPixel(matrix, matrix->foneColor, GetPixelPos(NOS_Math_Normali
  89:Core/Src/NOS_LIB_Driver/Src/WS2812B.c ****             }
  90:Core/Src/NOS_LIB_Driver/Src/WS2812B.c ****             currX++;
  91:Core/Src/NOS_LIB_Driver/Src/WS2812B.c ****         }
  92:Core/Src/NOS_LIB_Driver/Src/WS2812B.c ****         currColumn++;
  93:Core/Src/NOS_LIB_Driver/Src/WS2812B.c ****     }
  94:Core/Src/NOS_LIB_Driver/Src/WS2812B.c ****     for (int i = 1; i < 9; i++)
  95:Core/Src/NOS_LIB_Driver/Src/WS2812B.c ****     {
  96:Core/Src/NOS_LIB_Driver/Src/WS2812B.c ****         NOS_WS2812B_Matrix_SetPixel(matrix, matrix->foneColor, GetPixelPos(NOS_Math_NormalizeValue(
  97:Core/Src/NOS_LIB_Driver/Src/WS2812B.c ****     }
  98:Core/Src/NOS_LIB_Driver/Src/WS2812B.c ****     currColumn++;
  99:Core/Src/NOS_LIB_Driver/Src/WS2812B.c **** }
 100:Core/Src/NOS_LIB_Driver/Src/WS2812B.c **** 
ARM GAS  C:\Users\igorn\AppData\Local\Temp\ccHqPtul.s 			page 6


 101:Core/Src/NOS_LIB_Driver/Src/WS2812B.c **** void NOS_WS2812B_Matrix_SetSymvol(WS2812B_Matrix *matrix, char sym, uint8_t pos)
 102:Core/Src/NOS_LIB_Driver/Src/WS2812B.c **** {
 103:Core/Src/NOS_LIB_Driver/Src/WS2812B.c ****     uint8_t *buff = Symvol_GetBitMap(sym);
 104:Core/Src/NOS_LIB_Driver/Src/WS2812B.c ****     for (int i = 0; i < 5; i++)
 105:Core/Src/NOS_LIB_Driver/Src/WS2812B.c ****     {
 106:Core/Src/NOS_LIB_Driver/Src/WS2812B.c ****         matrix->symvols[pos].data[i] = buff[i];
 107:Core/Src/NOS_LIB_Driver/Src/WS2812B.c ****     }
 108:Core/Src/NOS_LIB_Driver/Src/WS2812B.c **** }
 109:Core/Src/NOS_LIB_Driver/Src/WS2812B.c **** 
 110:Core/Src/NOS_LIB_Driver/Src/WS2812B.c **** void NOS_WS2812B_Matrix_PrintStaticString(WS2812B_Matrix *matrix, char *string, uint8_t startpos, u
 111:Core/Src/NOS_LIB_Driver/Src/WS2812B.c **** {
 112:Core/Src/NOS_LIB_Driver/Src/WS2812B.c ****     for (int i = startpos; i < startpos + lenght; i++)
 113:Core/Src/NOS_LIB_Driver/Src/WS2812B.c ****     {
 114:Core/Src/NOS_LIB_Driver/Src/WS2812B.c ****         NOS_WS2812B_Matrix_SetSymvol(matrix, string[i - startpos], i);
 115:Core/Src/NOS_LIB_Driver/Src/WS2812B.c ****     }
 116:Core/Src/NOS_LIB_Driver/Src/WS2812B.c **** }
 117:Core/Src/NOS_LIB_Driver/Src/WS2812B.c **** 
 118:Core/Src/NOS_LIB_Driver/Src/WS2812B.c **** void NOS_WS2812B_Matrix_PrintDynamicString(WS2812B_Matrix *matrix, char *string, uint8_t lenght, ui
 119:Core/Src/NOS_LIB_Driver/Src/WS2812B.c **** {
 120:Core/Src/NOS_LIB_Driver/Src/WS2812B.c **** 
 121:Core/Src/NOS_LIB_Driver/Src/WS2812B.c ****     for (int i = 0; i < lenght; i++)
 122:Core/Src/NOS_LIB_Driver/Src/WS2812B.c ****     {
 123:Core/Src/NOS_LIB_Driver/Src/WS2812B.c ****         NOS_WS2812B_Matrix_SetSymvol(matrix, string[i + symPosCounter], i);
 124:Core/Src/NOS_LIB_Driver/Src/WS2812B.c ****     }
 125:Core/Src/NOS_LIB_Driver/Src/WS2812B.c **** 
 126:Core/Src/NOS_LIB_Driver/Src/WS2812B.c ****     // NOS_WS2812B_Matrix_Update(matrix,counter,0);
 127:Core/Src/NOS_LIB_Driver/Src/WS2812B.c **** }
 128:Core/Src/NOS_LIB_Driver/Src/WS2812B.c **** 
 129:Core/Src/NOS_LIB_Driver/Src/WS2812B.c **** void NOS_WS2812B_Matrix_PrintIntNumber(WS2812B_Matrix *matrix, uint32_t num, uint8_t startpos, uint
 130:Core/Src/NOS_LIB_Driver/Src/WS2812B.c **** {
 131:Core/Src/NOS_LIB_Driver/Src/WS2812B.c **** 
 132:Core/Src/NOS_LIB_Driver/Src/WS2812B.c ****     int a = 0;
 133:Core/Src/NOS_LIB_Driver/Src/WS2812B.c ****     int power = NOS_Math_GetNumberPower(num);
 134:Core/Src/NOS_LIB_Driver/Src/WS2812B.c ****     char buff[16];
 135:Core/Src/NOS_LIB_Driver/Src/WS2812B.c **** 
 136:Core/Src/NOS_LIB_Driver/Src/WS2812B.c ****     for (int i = power - 1; i > 0; i--)
 137:Core/Src/NOS_LIB_Driver/Src/WS2812B.c ****     {
 138:Core/Src/NOS_LIB_Driver/Src/WS2812B.c ****         buff[a] = num / pow(10, i);
 139:Core/Src/NOS_LIB_Driver/Src/WS2812B.c ****         num = num - (buff[a] * pow(10, i));
 140:Core/Src/NOS_LIB_Driver/Src/WS2812B.c ****         a++;
 141:Core/Src/NOS_LIB_Driver/Src/WS2812B.c ****     }
 142:Core/Src/NOS_LIB_Driver/Src/WS2812B.c **** 
 143:Core/Src/NOS_LIB_Driver/Src/WS2812B.c ****     buff[a] = num % 10;
 144:Core/Src/NOS_LIB_Driver/Src/WS2812B.c **** 
 145:Core/Src/NOS_LIB_Driver/Src/WS2812B.c ****     for (int i = 0; i < a + 1; i++)
 146:Core/Src/NOS_LIB_Driver/Src/WS2812B.c ****     {
 147:Core/Src/NOS_LIB_Driver/Src/WS2812B.c ****         buff[i] += 48;
 148:Core/Src/NOS_LIB_Driver/Src/WS2812B.c ****         NOS_WS2812B_Matrix_SetSymvol(matrix, buff[i], i + startpos);
 149:Core/Src/NOS_LIB_Driver/Src/WS2812B.c ****     }
 150:Core/Src/NOS_LIB_Driver/Src/WS2812B.c **** }
 151:Core/Src/NOS_LIB_Driver/Src/WS2812B.c **** 
 152:Core/Src/NOS_LIB_Driver/Src/WS2812B.c **** void NOS_WS2812B_Matrix_PrintFloatNumber(WS2812B_Matrix *matrix, float num, uint8_t startpos)
 153:Core/Src/NOS_LIB_Driver/Src/WS2812B.c **** {
 154:Core/Src/NOS_LIB_Driver/Src/WS2812B.c ****     if (num > 0.0f)
 155:Core/Src/NOS_LIB_Driver/Src/WS2812B.c ****     {
 156:Core/Src/NOS_LIB_Driver/Src/WS2812B.c ****         int before = num;
 157:Core/Src/NOS_LIB_Driver/Src/WS2812B.c ****         float after = num - (float)before;
ARM GAS  C:\Users\igorn\AppData\Local\Temp\ccHqPtul.s 			page 7


 158:Core/Src/NOS_LIB_Driver/Src/WS2812B.c ****         int af = after * 100;
 159:Core/Src/NOS_LIB_Driver/Src/WS2812B.c ****         int pow = NOS_Math_GetNumberPower(before);
 160:Core/Src/NOS_LIB_Driver/Src/WS2812B.c ****         NOS_WS2812B_Matrix_PrintIntNumber(matrix, before, startpos, pow);
 161:Core/Src/NOS_LIB_Driver/Src/WS2812B.c ****         NOS_WS2812B_Matrix_PrintStaticString(matrix, ".", startpos + pow, 1);
 162:Core/Src/NOS_LIB_Driver/Src/WS2812B.c ****         NOS_WS2812B_Matrix_PrintIntNumber(matrix, af, startpos + pow + 1, 2);
 163:Core/Src/NOS_LIB_Driver/Src/WS2812B.c ****     }
 164:Core/Src/NOS_LIB_Driver/Src/WS2812B.c **** }
 165:Core/Src/NOS_LIB_Driver/Src/WS2812B.c **** 
 166:Core/Src/NOS_LIB_Driver/Src/WS2812B.c **** void NOS_WS2812B_Matrix_PrintRealTime(WS2812B_Matrix *matrix, RealTime rt)
 167:Core/Src/NOS_LIB_Driver/Src/WS2812B.c **** {
 168:Core/Src/NOS_LIB_Driver/Src/WS2812B.c ****     int startpos = 0;
 169:Core/Src/NOS_LIB_Driver/Src/WS2812B.c ****     if (rt.format == Hour24)
 170:Core/Src/NOS_LIB_Driver/Src/WS2812B.c ****     {
 171:Core/Src/NOS_LIB_Driver/Src/WS2812B.c ****         startpos = 1;
 172:Core/Src/NOS_LIB_Driver/Src/WS2812B.c ****     }
 173:Core/Src/NOS_LIB_Driver/Src/WS2812B.c **** 
 174:Core/Src/NOS_LIB_Driver/Src/WS2812B.c ****     if (rt.format == Hour12)
 175:Core/Src/NOS_LIB_Driver/Src/WS2812B.c ****     {
 176:Core/Src/NOS_LIB_Driver/Src/WS2812B.c ****         if (rt.hour > 12)
 177:Core/Src/NOS_LIB_Driver/Src/WS2812B.c ****         {
 178:Core/Src/NOS_LIB_Driver/Src/WS2812B.c ****             NOS_WS2812B_Matrix_SetSymvol(matrix, (char)(rt.hour - 12) / 10 + 48, startpos);
 179:Core/Src/NOS_LIB_Driver/Src/WS2812B.c ****             NOS_WS2812B_Matrix_SetSymvol(matrix, (char)(rt.hour - 12) % 10 + 48, startpos + 1);
 180:Core/Src/NOS_LIB_Driver/Src/WS2812B.c ****             NOS_WS2812B_Matrix_SetSymvol(matrix, 'P', startpos + 8);
 181:Core/Src/NOS_LIB_Driver/Src/WS2812B.c ****             NOS_WS2812B_Matrix_SetSymvol(matrix, 'M', startpos + 9);
 182:Core/Src/NOS_LIB_Driver/Src/WS2812B.c ****         }
 183:Core/Src/NOS_LIB_Driver/Src/WS2812B.c ****         else
 184:Core/Src/NOS_LIB_Driver/Src/WS2812B.c ****         {
 185:Core/Src/NOS_LIB_Driver/Src/WS2812B.c ****             NOS_WS2812B_Matrix_SetSymvol(matrix, (char)(rt.hour) / 10 + 48, startpos);
 186:Core/Src/NOS_LIB_Driver/Src/WS2812B.c ****             NOS_WS2812B_Matrix_SetSymvol(matrix, (char)(rt.hour) % 10 + 48, startpos + 1);
 187:Core/Src/NOS_LIB_Driver/Src/WS2812B.c ****             NOS_WS2812B_Matrix_SetSymvol(matrix, 'A', startpos + 8);
 188:Core/Src/NOS_LIB_Driver/Src/WS2812B.c ****             NOS_WS2812B_Matrix_SetSymvol(matrix, 'M', startpos + 9);
 189:Core/Src/NOS_LIB_Driver/Src/WS2812B.c ****         }
 190:Core/Src/NOS_LIB_Driver/Src/WS2812B.c ****     }
 191:Core/Src/NOS_LIB_Driver/Src/WS2812B.c ****     else
 192:Core/Src/NOS_LIB_Driver/Src/WS2812B.c ****     {
 193:Core/Src/NOS_LIB_Driver/Src/WS2812B.c ****         NOS_WS2812B_Matrix_SetSymvol(matrix, (char)(rt.hour) / 10 + 48, startpos);
 194:Core/Src/NOS_LIB_Driver/Src/WS2812B.c ****         NOS_WS2812B_Matrix_SetSymvol(matrix, (char)(rt.hour) % 10 + 48, startpos + 1);
 195:Core/Src/NOS_LIB_Driver/Src/WS2812B.c ****         NOS_WS2812B_Matrix_SetSymvol(matrix, ' ', startpos + 8);
 196:Core/Src/NOS_LIB_Driver/Src/WS2812B.c ****     }
 197:Core/Src/NOS_LIB_Driver/Src/WS2812B.c **** 
 198:Core/Src/NOS_LIB_Driver/Src/WS2812B.c ****     NOS_WS2812B_Matrix_SetSymvol(matrix, (char)(rt.min / 10) + 48, startpos + 3);
 199:Core/Src/NOS_LIB_Driver/Src/WS2812B.c ****     NOS_WS2812B_Matrix_SetSymvol(matrix, (char)(rt.min % 10) + 48, startpos + 4);
 200:Core/Src/NOS_LIB_Driver/Src/WS2812B.c **** 
 201:Core/Src/NOS_LIB_Driver/Src/WS2812B.c ****     NOS_WS2812B_Matrix_SetSymvol(matrix, (char)rt.sec / 10 + 48, startpos + 6);
 202:Core/Src/NOS_LIB_Driver/Src/WS2812B.c ****     NOS_WS2812B_Matrix_SetSymvol(matrix, (char)rt.sec % 10 + 48, startpos + 7);
 203:Core/Src/NOS_LIB_Driver/Src/WS2812B.c **** 
 204:Core/Src/NOS_LIB_Driver/Src/WS2812B.c ****     if (rt.sec % 2 == 0)
 205:Core/Src/NOS_LIB_Driver/Src/WS2812B.c ****     {
 206:Core/Src/NOS_LIB_Driver/Src/WS2812B.c ****         NOS_WS2812B_Matrix_SetSymvol(matrix, ':', startpos + 2);
 207:Core/Src/NOS_LIB_Driver/Src/WS2812B.c ****         NOS_WS2812B_Matrix_SetSymvol(matrix, ':', startpos + 5);
 208:Core/Src/NOS_LIB_Driver/Src/WS2812B.c ****     }
 209:Core/Src/NOS_LIB_Driver/Src/WS2812B.c ****     else
 210:Core/Src/NOS_LIB_Driver/Src/WS2812B.c ****     {
 211:Core/Src/NOS_LIB_Driver/Src/WS2812B.c ****         NOS_WS2812B_Matrix_SetSymvol(matrix, ' ', startpos + 2);
 212:Core/Src/NOS_LIB_Driver/Src/WS2812B.c ****         NOS_WS2812B_Matrix_SetSymvol(matrix, ' ', startpos + 5);
 213:Core/Src/NOS_LIB_Driver/Src/WS2812B.c ****     }
 214:Core/Src/NOS_LIB_Driver/Src/WS2812B.c **** }
ARM GAS  C:\Users\igorn\AppData\Local\Temp\ccHqPtul.s 			page 8


 215:Core/Src/NOS_LIB_Driver/Src/WS2812B.c **** 
 216:Core/Src/NOS_LIB_Driver/Src/WS2812B.c **** void NOS_WS2812B_SetPixelColor(PixelColor *color, uint8_t R, uint8_t G, uint8_t B)
 217:Core/Src/NOS_LIB_Driver/Src/WS2812B.c **** {
 195              		.loc 1 217 1 is_stmt 1 view -0
 196              		.cfi_startproc
 197              		@ args = 0, pretend = 0, frame = 0
 198              		@ frame_needed = 0, uses_anonymous_args = 0
 199              		@ link register save eliminated.
 218:Core/Src/NOS_LIB_Driver/Src/WS2812B.c ****     color->R = R;
 200              		.loc 1 218 5 view .LVU50
 201              		.loc 1 218 14 is_stmt 0 view .LVU51
 202 0000 0170     		strb	r1, [r0]
 219:Core/Src/NOS_LIB_Driver/Src/WS2812B.c ****     color->G = G;
 203              		.loc 1 219 5 is_stmt 1 view .LVU52
 204              		.loc 1 219 14 is_stmt 0 view .LVU53
 205 0002 4270     		strb	r2, [r0, #1]
 220:Core/Src/NOS_LIB_Driver/Src/WS2812B.c ****     color->B = B;
 206              		.loc 1 220 5 is_stmt 1 view .LVU54
 207              		.loc 1 220 14 is_stmt 0 view .LVU55
 208 0004 8370     		strb	r3, [r0, #2]
 221:Core/Src/NOS_LIB_Driver/Src/WS2812B.c **** }
 209              		.loc 1 221 1 view .LVU56
 210 0006 7047     		bx	lr
 211              		.cfi_endproc
 212              	.LFE142:
 214              		.section	.text.NOS_WS2812B_EffectRainbow,"ax",%progbits
 215              		.align	1
 216              		.global	NOS_WS2812B_EffectRainbow
 217              		.syntax unified
 218              		.thumb
 219              		.thumb_func
 221              	NOS_WS2812B_EffectRainbow:
 222              	.LVL12:
 223              	.LFB143:
 222:Core/Src/NOS_LIB_Driver/Src/WS2812B.c **** 
 223:Core/Src/NOS_LIB_Driver/Src/WS2812B.c **** void NOS_WS2812B_EffectRainbow(WS2812B_Matrix *matrix, uint32_t counter)
 224:Core/Src/NOS_LIB_Driver/Src/WS2812B.c **** {
 224              		.loc 1 224 1 is_stmt 1 view -0
 225              		.cfi_startproc
 226              		@ args = 0, pretend = 0, frame = 0
 227              		@ frame_needed = 0, uses_anonymous_args = 0
 228              		.loc 1 224 1 is_stmt 0 view .LVU58
 229 0000 38B5     		push	{r3, r4, r5, lr}
 230              		.cfi_def_cfa_offset 16
 231              		.cfi_offset 3, -16
 232              		.cfi_offset 4, -12
 233              		.cfi_offset 5, -8
 234              		.cfi_offset 14, -4
 235 0002 0546     		mov	r5, r0
 225:Core/Src/NOS_LIB_Driver/Src/WS2812B.c ****     if (counter > 0 && counter <= matrix->bright)
 236              		.loc 1 225 5 is_stmt 1 view .LVU59
 237              		.loc 1 225 8 is_stmt 0 view .LVU60
 238 0004 0C46     		mov	r4, r1
 239 0006 41B1     		cbz	r1, .L10
 240              		.loc 1 225 41 discriminator 1 view .LVU61
 241 0008 0379     		ldrb	r3, [r0, #4]	@ zero_extendqisi2
 242              		.loc 1 225 21 discriminator 1 view .LVU62
ARM GAS  C:\Users\igorn\AppData\Local\Temp\ccHqPtul.s 			page 9


 243 000a 8B42     		cmp	r3, r1
 244 000c 3DD2     		bcs	.L19
 245              	.LVL13:
 246              	.L11:
 226:Core/Src/NOS_LIB_Driver/Src/WS2812B.c ****     {
 227:Core/Src/NOS_LIB_Driver/Src/WS2812B.c ****         NOS_WS2812B_SetPixelColor(matrix->textColor, 0, counter, matrix->bright);
 228:Core/Src/NOS_LIB_Driver/Src/WS2812B.c ****     }
 229:Core/Src/NOS_LIB_Driver/Src/WS2812B.c **** 
 230:Core/Src/NOS_LIB_Driver/Src/WS2812B.c ****     if (counter > matrix->bright && counter <= matrix->bright * 2)
 247              		.loc 1 230 5 is_stmt 1 view .LVU63
 248              		.loc 1 230 25 is_stmt 0 view .LVU64
 249 000e 2A79     		ldrb	r2, [r5, #4]	@ zero_extendqisi2
 250              		.loc 1 230 8 view .LVU65
 251 0010 A242     		cmp	r2, r4
 252 0012 02D2     		bcs	.L10
 253              		.loc 1 230 34 discriminator 1 view .LVU66
 254 0014 B4EB420F 		cmp	r4, r2, lsl #1
 255 0018 3DD9     		bls	.L20
 256              	.L10:
 231:Core/Src/NOS_LIB_Driver/Src/WS2812B.c ****     {
 232:Core/Src/NOS_LIB_Driver/Src/WS2812B.c ****         counter = counter - matrix->bright;
 233:Core/Src/NOS_LIB_Driver/Src/WS2812B.c ****         NOS_WS2812B_SetPixelColor(matrix->textColor, 0, matrix->bright, matrix->bright - counter);
 234:Core/Src/NOS_LIB_Driver/Src/WS2812B.c ****     }
 235:Core/Src/NOS_LIB_Driver/Src/WS2812B.c **** 
 236:Core/Src/NOS_LIB_Driver/Src/WS2812B.c ****     if (counter > matrix->bright * 2 && counter <= matrix->bright * 3)
 257              		.loc 1 236 5 is_stmt 1 view .LVU67
 258              		.loc 1 236 25 is_stmt 0 view .LVU68
 259 001a 2A79     		ldrb	r2, [r5, #4]	@ zero_extendqisi2
 260              		.loc 1 236 34 view .LVU69
 261 001c 5300     		lsls	r3, r2, #1
 262              		.loc 1 236 8 view .LVU70
 263 001e B4EB420F 		cmp	r4, r2, lsl #1
 264 0022 03D9     		bls	.L12
 265              		.loc 1 236 67 discriminator 1 view .LVU71
 266 0024 02EB4201 		add	r1, r2, r2, lsl #1
 267              		.loc 1 236 38 discriminator 1 view .LVU72
 268 0028 A142     		cmp	r1, r4
 269 002a 3CD2     		bcs	.L21
 270              	.L12:
 237:Core/Src/NOS_LIB_Driver/Src/WS2812B.c ****     {
 238:Core/Src/NOS_LIB_Driver/Src/WS2812B.c ****         counter = counter - matrix->bright * 2;
 239:Core/Src/NOS_LIB_Driver/Src/WS2812B.c ****         NOS_WS2812B_SetPixelColor(matrix->textColor, counter, matrix->bright, 0);
 240:Core/Src/NOS_LIB_Driver/Src/WS2812B.c ****     }
 241:Core/Src/NOS_LIB_Driver/Src/WS2812B.c **** 
 242:Core/Src/NOS_LIB_Driver/Src/WS2812B.c ****     if (counter > matrix->bright * 3 && counter <= matrix->bright * 4)
 271              		.loc 1 242 5 is_stmt 1 view .LVU73
 272              		.loc 1 242 25 is_stmt 0 view .LVU74
 273 002c 2979     		ldrb	r1, [r5, #4]	@ zero_extendqisi2
 274              		.loc 1 242 34 view .LVU75
 275 002e 01EB4103 		add	r3, r1, r1, lsl #1
 276              		.loc 1 242 8 view .LVU76
 277 0032 A342     		cmp	r3, r4
 278 0034 02D2     		bcs	.L13
 279              		.loc 1 242 38 discriminator 1 view .LVU77
 280 0036 B4EB810F 		cmp	r4, r1, lsl #2
 281 003a 3BD9     		bls	.L22
 282              	.L13:
ARM GAS  C:\Users\igorn\AppData\Local\Temp\ccHqPtul.s 			page 10


 243:Core/Src/NOS_LIB_Driver/Src/WS2812B.c ****     {
 244:Core/Src/NOS_LIB_Driver/Src/WS2812B.c ****         counter = counter - matrix->bright * 3;
 245:Core/Src/NOS_LIB_Driver/Src/WS2812B.c ****         NOS_WS2812B_SetPixelColor(matrix->textColor, matrix->bright, matrix->bright - counter, 0);
 246:Core/Src/NOS_LIB_Driver/Src/WS2812B.c ****     }
 247:Core/Src/NOS_LIB_Driver/Src/WS2812B.c **** 
 248:Core/Src/NOS_LIB_Driver/Src/WS2812B.c ****     if (counter > matrix->bright * 4 && counter <= matrix->bright * 5)
 283              		.loc 1 248 5 is_stmt 1 view .LVU78
 284              		.loc 1 248 25 is_stmt 0 view .LVU79
 285 003c 2979     		ldrb	r1, [r5, #4]	@ zero_extendqisi2
 286              		.loc 1 248 34 view .LVU80
 287 003e 8B00     		lsls	r3, r1, #2
 288              		.loc 1 248 8 view .LVU81
 289 0040 B4EB810F 		cmp	r4, r1, lsl #2
 290 0044 03D9     		bls	.L14
 291              		.loc 1 248 67 discriminator 1 view .LVU82
 292 0046 01EB8102 		add	r2, r1, r1, lsl #2
 293              		.loc 1 248 38 discriminator 1 view .LVU83
 294 004a A242     		cmp	r2, r4
 295 004c 3AD2     		bcs	.L23
 296              	.L14:
 249:Core/Src/NOS_LIB_Driver/Src/WS2812B.c ****     {
 250:Core/Src/NOS_LIB_Driver/Src/WS2812B.c ****         counter = counter - matrix->bright * 4;
 251:Core/Src/NOS_LIB_Driver/Src/WS2812B.c ****         NOS_WS2812B_SetPixelColor(matrix->textColor, matrix->bright, counter, 0);
 252:Core/Src/NOS_LIB_Driver/Src/WS2812B.c ****     }
 253:Core/Src/NOS_LIB_Driver/Src/WS2812B.c **** 
 254:Core/Src/NOS_LIB_Driver/Src/WS2812B.c ****     if (counter > matrix->bright * 5 && counter <= matrix->bright * 6)
 297              		.loc 1 254 5 is_stmt 1 view .LVU84
 298              		.loc 1 254 25 is_stmt 0 view .LVU85
 299 004e 2A79     		ldrb	r2, [r5, #4]	@ zero_extendqisi2
 300              		.loc 1 254 34 view .LVU86
 301 0050 02EB8203 		add	r3, r2, r2, lsl #2
 302              		.loc 1 254 8 view .LVU87
 303 0054 A342     		cmp	r3, r4
 304 0056 04D2     		bcs	.L15
 305              		.loc 1 254 67 discriminator 1 view .LVU88
 306 0058 02EB4201 		add	r1, r2, r2, lsl #1
 307              		.loc 1 254 38 discriminator 1 view .LVU89
 308 005c B4EB410F 		cmp	r4, r1, lsl #1
 309 0060 37D9     		bls	.L24
 310              	.L15:
 255:Core/Src/NOS_LIB_Driver/Src/WS2812B.c ****     {
 256:Core/Src/NOS_LIB_Driver/Src/WS2812B.c ****         counter = counter - matrix->bright * 5;
 257:Core/Src/NOS_LIB_Driver/Src/WS2812B.c ****         NOS_WS2812B_SetPixelColor(matrix->textColor, matrix->bright - counter, matrix->bright, 0);
 258:Core/Src/NOS_LIB_Driver/Src/WS2812B.c ****     }
 259:Core/Src/NOS_LIB_Driver/Src/WS2812B.c **** 
 260:Core/Src/NOS_LIB_Driver/Src/WS2812B.c ****     if (counter > matrix->bright * 6 && counter <= matrix->bright * 7)
 311              		.loc 1 260 5 is_stmt 1 view .LVU90
 312              		.loc 1 260 25 is_stmt 0 view .LVU91
 313 0062 2A79     		ldrb	r2, [r5, #4]	@ zero_extendqisi2
 314              		.loc 1 260 34 view .LVU92
 315 0064 02EB4203 		add	r3, r2, r2, lsl #1
 316 0068 5900     		lsls	r1, r3, #1
 317              		.loc 1 260 8 view .LVU93
 318 006a B4EB430F 		cmp	r4, r3, lsl #1
 319 006e 03D9     		bls	.L16
 320              		.loc 1 260 67 discriminator 1 view .LVU94
 321 0070 C2EBC203 		rsb	r3, r2, r2, lsl #3
ARM GAS  C:\Users\igorn\AppData\Local\Temp\ccHqPtul.s 			page 11


 322              		.loc 1 260 38 discriminator 1 view .LVU95
 323 0074 A342     		cmp	r3, r4
 324 0076 34D2     		bcs	.L25
 325              	.L16:
 261:Core/Src/NOS_LIB_Driver/Src/WS2812B.c ****     {
 262:Core/Src/NOS_LIB_Driver/Src/WS2812B.c ****         counter = counter - matrix->bright * 6;
 263:Core/Src/NOS_LIB_Driver/Src/WS2812B.c ****         NOS_WS2812B_SetPixelColor(matrix->textColor, 0, matrix->bright, counter);
 264:Core/Src/NOS_LIB_Driver/Src/WS2812B.c ****     }
 265:Core/Src/NOS_LIB_Driver/Src/WS2812B.c **** 
 266:Core/Src/NOS_LIB_Driver/Src/WS2812B.c ****     if (counter > matrix->bright * 7 && counter <= matrix->bright * 8)
 326              		.loc 1 266 5 is_stmt 1 view .LVU96
 327              		.loc 1 266 25 is_stmt 0 view .LVU97
 328 0078 2B79     		ldrb	r3, [r5, #4]	@ zero_extendqisi2
 329              		.loc 1 266 34 view .LVU98
 330 007a C3EBC302 		rsb	r2, r3, r3, lsl #3
 331              		.loc 1 266 8 view .LVU99
 332 007e A242     		cmp	r2, r4
 333 0080 02D2     		bcs	.L9
 334              		.loc 1 266 38 discriminator 1 view .LVU100
 335 0082 B4EBC30F 		cmp	r4, r3, lsl #3
 336 0086 33D9     		bls	.L26
 337              	.LVL14:
 338              	.L9:
 267:Core/Src/NOS_LIB_Driver/Src/WS2812B.c ****     {
 268:Core/Src/NOS_LIB_Driver/Src/WS2812B.c ****         counter = counter - matrix->bright * 7;
 269:Core/Src/NOS_LIB_Driver/Src/WS2812B.c ****         NOS_WS2812B_SetPixelColor(matrix->textColor, 0, matrix->bright - counter, matrix->bright);
 270:Core/Src/NOS_LIB_Driver/Src/WS2812B.c ****     }
 271:Core/Src/NOS_LIB_Driver/Src/WS2812B.c **** }
 339              		.loc 1 271 1 view .LVU101
 340 0088 38BD     		pop	{r3, r4, r5, pc}
 341              	.LVL15:
 342              	.L19:
 227:Core/Src/NOS_LIB_Driver/Src/WS2812B.c ****     }
 343              		.loc 1 227 9 is_stmt 1 view .LVU102
 344 008a CAB2     		uxtb	r2, r1
 345 008c 0021     		movs	r1, #0
 346              	.LVL16:
 227:Core/Src/NOS_LIB_Driver/Src/WS2812B.c ****     }
 347              		.loc 1 227 9 is_stmt 0 view .LVU103
 348 008e C068     		ldr	r0, [r0, #12]
 349              	.LVL17:
 227:Core/Src/NOS_LIB_Driver/Src/WS2812B.c ****     }
 350              		.loc 1 227 9 view .LVU104
 351 0090 FFF7FEFF 		bl	NOS_WS2812B_SetPixelColor
 352              	.LVL18:
 353 0094 BBE7     		b	.L11
 354              	.L20:
 232:Core/Src/NOS_LIB_Driver/Src/WS2812B.c ****         NOS_WS2812B_SetPixelColor(matrix->textColor, 0, matrix->bright, matrix->bright - counter);
 355              		.loc 1 232 9 is_stmt 1 view .LVU105
 232:Core/Src/NOS_LIB_Driver/Src/WS2812B.c ****         NOS_WS2812B_SetPixelColor(matrix->textColor, 0, matrix->bright, matrix->bright - counter);
 356              		.loc 1 232 17 is_stmt 0 view .LVU106
 357 0096 A41A     		subs	r4, r4, r2
 358              	.LVL19:
 233:Core/Src/NOS_LIB_Driver/Src/WS2812B.c ****     }
 359              		.loc 1 233 9 is_stmt 1 view .LVU107
 360 0098 131B     		subs	r3, r2, r4
 361 009a DBB2     		uxtb	r3, r3
ARM GAS  C:\Users\igorn\AppData\Local\Temp\ccHqPtul.s 			page 12


 362 009c 0021     		movs	r1, #0
 363 009e E868     		ldr	r0, [r5, #12]
 364 00a0 FFF7FEFF 		bl	NOS_WS2812B_SetPixelColor
 365              	.LVL20:
 366 00a4 B9E7     		b	.L10
 367              	.L21:
 238:Core/Src/NOS_LIB_Driver/Src/WS2812B.c ****         NOS_WS2812B_SetPixelColor(matrix->textColor, counter, matrix->bright, 0);
 368              		.loc 1 238 9 view .LVU108
 238:Core/Src/NOS_LIB_Driver/Src/WS2812B.c ****         NOS_WS2812B_SetPixelColor(matrix->textColor, counter, matrix->bright, 0);
 369              		.loc 1 238 17 is_stmt 0 view .LVU109
 370 00a6 E41A     		subs	r4, r4, r3
 371              	.LVL21:
 239:Core/Src/NOS_LIB_Driver/Src/WS2812B.c ****     }
 372              		.loc 1 239 9 is_stmt 1 view .LVU110
 373 00a8 0023     		movs	r3, #0
 374 00aa E1B2     		uxtb	r1, r4
 375 00ac E868     		ldr	r0, [r5, #12]
 376 00ae FFF7FEFF 		bl	NOS_WS2812B_SetPixelColor
 377              	.LVL22:
 378 00b2 BBE7     		b	.L12
 379              	.L22:
 244:Core/Src/NOS_LIB_Driver/Src/WS2812B.c ****         NOS_WS2812B_SetPixelColor(matrix->textColor, matrix->bright, matrix->bright - counter, 0);
 380              		.loc 1 244 9 view .LVU111
 244:Core/Src/NOS_LIB_Driver/Src/WS2812B.c ****         NOS_WS2812B_SetPixelColor(matrix->textColor, matrix->bright, matrix->bright - counter, 0);
 381              		.loc 1 244 17 is_stmt 0 view .LVU112
 382 00b4 E41A     		subs	r4, r4, r3
 383              	.LVL23:
 245:Core/Src/NOS_LIB_Driver/Src/WS2812B.c ****     }
 384              		.loc 1 245 9 is_stmt 1 view .LVU113
 385 00b6 0A1B     		subs	r2, r1, r4
 386 00b8 0023     		movs	r3, #0
 387 00ba D2B2     		uxtb	r2, r2
 388 00bc E868     		ldr	r0, [r5, #12]
 389 00be FFF7FEFF 		bl	NOS_WS2812B_SetPixelColor
 390              	.LVL24:
 391 00c2 BBE7     		b	.L13
 392              	.L23:
 250:Core/Src/NOS_LIB_Driver/Src/WS2812B.c ****         NOS_WS2812B_SetPixelColor(matrix->textColor, matrix->bright, counter, 0);
 393              		.loc 1 250 9 view .LVU114
 250:Core/Src/NOS_LIB_Driver/Src/WS2812B.c ****         NOS_WS2812B_SetPixelColor(matrix->textColor, matrix->bright, counter, 0);
 394              		.loc 1 250 17 is_stmt 0 view .LVU115
 395 00c4 E41A     		subs	r4, r4, r3
 396              	.LVL25:
 251:Core/Src/NOS_LIB_Driver/Src/WS2812B.c ****     }
 397              		.loc 1 251 9 is_stmt 1 view .LVU116
 398 00c6 0023     		movs	r3, #0
 399 00c8 E2B2     		uxtb	r2, r4
 400 00ca E868     		ldr	r0, [r5, #12]
 401 00cc FFF7FEFF 		bl	NOS_WS2812B_SetPixelColor
 402              	.LVL26:
 403 00d0 BDE7     		b	.L14
 404              	.L24:
 256:Core/Src/NOS_LIB_Driver/Src/WS2812B.c ****         NOS_WS2812B_SetPixelColor(matrix->textColor, matrix->bright - counter, matrix->bright, 0);
 405              		.loc 1 256 9 view .LVU117
 256:Core/Src/NOS_LIB_Driver/Src/WS2812B.c ****         NOS_WS2812B_SetPixelColor(matrix->textColor, matrix->bright - counter, matrix->bright, 0);
 406              		.loc 1 256 17 is_stmt 0 view .LVU118
 407 00d2 E41A     		subs	r4, r4, r3
ARM GAS  C:\Users\igorn\AppData\Local\Temp\ccHqPtul.s 			page 13


 408              	.LVL27:
 257:Core/Src/NOS_LIB_Driver/Src/WS2812B.c ****     }
 409              		.loc 1 257 9 is_stmt 1 view .LVU119
 410 00d4 111B     		subs	r1, r2, r4
 411 00d6 0023     		movs	r3, #0
 412 00d8 C9B2     		uxtb	r1, r1
 413 00da E868     		ldr	r0, [r5, #12]
 414 00dc FFF7FEFF 		bl	NOS_WS2812B_SetPixelColor
 415              	.LVL28:
 416 00e0 BFE7     		b	.L15
 417              	.L25:
 262:Core/Src/NOS_LIB_Driver/Src/WS2812B.c ****         NOS_WS2812B_SetPixelColor(matrix->textColor, 0, matrix->bright, counter);
 418              		.loc 1 262 9 view .LVU120
 262:Core/Src/NOS_LIB_Driver/Src/WS2812B.c ****         NOS_WS2812B_SetPixelColor(matrix->textColor, 0, matrix->bright, counter);
 419              		.loc 1 262 17 is_stmt 0 view .LVU121
 420 00e2 641A     		subs	r4, r4, r1
 421              	.LVL29:
 263:Core/Src/NOS_LIB_Driver/Src/WS2812B.c ****     }
 422              		.loc 1 263 9 is_stmt 1 view .LVU122
 423 00e4 E3B2     		uxtb	r3, r4
 424 00e6 0021     		movs	r1, #0
 425 00e8 E868     		ldr	r0, [r5, #12]
 426 00ea FFF7FEFF 		bl	NOS_WS2812B_SetPixelColor
 427              	.LVL30:
 428 00ee C3E7     		b	.L16
 429              	.L26:
 268:Core/Src/NOS_LIB_Driver/Src/WS2812B.c ****         NOS_WS2812B_SetPixelColor(matrix->textColor, 0, matrix->bright - counter, matrix->bright);
 430              		.loc 1 268 9 view .LVU123
 268:Core/Src/NOS_LIB_Driver/Src/WS2812B.c ****         NOS_WS2812B_SetPixelColor(matrix->textColor, 0, matrix->bright - counter, matrix->bright);
 431              		.loc 1 268 17 is_stmt 0 view .LVU124
 432 00f0 A21A     		subs	r2, r4, r2
 433              	.LVL31:
 269:Core/Src/NOS_LIB_Driver/Src/WS2812B.c ****     }
 434              		.loc 1 269 9 is_stmt 1 view .LVU125
 435 00f2 9A1A     		subs	r2, r3, r2
 436              	.LVL32:
 269:Core/Src/NOS_LIB_Driver/Src/WS2812B.c ****     }
 437              		.loc 1 269 9 is_stmt 0 view .LVU126
 438 00f4 D2B2     		uxtb	r2, r2
 439 00f6 0021     		movs	r1, #0
 440 00f8 E868     		ldr	r0, [r5, #12]
 441 00fa FFF7FEFF 		bl	NOS_WS2812B_SetPixelColor
 442              	.LVL33:
 443              		.loc 1 271 1 view .LVU127
 444 00fe C3E7     		b	.L9
 445              		.cfi_endproc
 446              	.LFE143:
 448              		.section	.text.NOS_WS2812B_Matrix_PrintSymvol,"ax",%progbits
 449              		.align	1
 450              		.global	NOS_WS2812B_Matrix_PrintSymvol
 451              		.syntax unified
 452              		.thumb
 453              		.thumb_func
 455              	NOS_WS2812B_Matrix_PrintSymvol:
 456              	.LVL34:
 457              	.LFB135:
  60:Core/Src/NOS_LIB_Driver/Src/WS2812B.c ****     uint8_t currByte = 0;
ARM GAS  C:\Users\igorn\AppData\Local\Temp\ccHqPtul.s 			page 14


 458              		.loc 1 60 1 is_stmt 1 view -0
 459              		.cfi_startproc
 460              		@ args = 4, pretend = 0, frame = 8
 461              		@ frame_needed = 0, uses_anonymous_args = 0
  60:Core/Src/NOS_LIB_Driver/Src/WS2812B.c ****     uint8_t currByte = 0;
 462              		.loc 1 60 1 is_stmt 0 view .LVU129
 463 0000 2DE9F04F 		push	{r4, r5, r6, r7, r8, r9, r10, fp, lr}
 464              		.cfi_def_cfa_offset 36
 465              		.cfi_offset 4, -36
 466              		.cfi_offset 5, -32
 467              		.cfi_offset 6, -28
 468              		.cfi_offset 7, -24
 469              		.cfi_offset 8, -20
 470              		.cfi_offset 9, -16
 471              		.cfi_offset 10, -12
 472              		.cfi_offset 11, -8
 473              		.cfi_offset 14, -4
 474 0004 83B0     		sub	sp, sp, #12
 475              		.cfi_def_cfa_offset 48
 476 0006 0646     		mov	r6, r0
 477 0008 0191     		str	r1, [sp, #4]
 478 000a 1746     		mov	r7, r2
 479 000c 9846     		mov	r8, r3
  61:Core/Src/NOS_LIB_Driver/Src/WS2812B.c ****     bool bit = false;
 480              		.loc 1 61 5 is_stmt 1 view .LVU130
 481              	.LVL35:
  62:Core/Src/NOS_LIB_Driver/Src/WS2812B.c ****     uint8_t currX = 0;
 482              		.loc 1 62 5 view .LVU131
  63:Core/Src/NOS_LIB_Driver/Src/WS2812B.c **** 
 483              		.loc 1 63 5 view .LVU132
  65:Core/Src/NOS_LIB_Driver/Src/WS2812B.c ****     {
 484              		.loc 1 65 5 view .LVU133
 485              	.LBB2:
  65:Core/Src/NOS_LIB_Driver/Src/WS2812B.c ****     {
 486              		.loc 1 65 10 view .LVU134
  65:Core/Src/NOS_LIB_Driver/Src/WS2812B.c ****     {
 487              		.loc 1 65 14 is_stmt 0 view .LVU135
 488 000e 4FF0000B 		mov	fp, #0
  65:Core/Src/NOS_LIB_Driver/Src/WS2812B.c ****     {
 489              		.loc 1 65 5 view .LVU136
 490 0012 2CE0     		b	.L28
 491              	.LVL36:
 492              	.L31:
 493              	.LBB3:
  88:Core/Src/NOS_LIB_Driver/Src/WS2812B.c ****             }
 494              		.loc 1 88 17 is_stmt 1 view .LVU137
 495 0014 D6F810A0 		ldr	r10, [r6, #16]
  88:Core/Src/NOS_LIB_Driver/Src/WS2812B.c ****             }
 496              		.loc 1 88 84 is_stmt 0 view .LVU138
 497 0018 4146     		mov	r1, r8
 498 001a 3846     		mov	r0, r7
 499 001c FFF7FEFF 		bl	NOS_Math_NormalizeValue
 500              	.LVL37:
  88:Core/Src/NOS_LIB_Driver/Src/WS2812B.c ****             }
 501              		.loc 1 88 17 view .LVU139
 502 0020 2146     		mov	r1, r4
 503 0022 C0B2     		uxtb	r0, r0
ARM GAS  C:\Users\igorn\AppData\Local\Temp\ccHqPtul.s 			page 15


 504 0024 FFF7FEFF 		bl	GetPixelPos
 505              	.LVL38:
 506 0028 0246     		mov	r2, r0
 507 002a 5146     		mov	r1, r10
 508 002c 3046     		mov	r0, r6
 509 002e FFF7FEFF 		bl	NOS_WS2812B_Matrix_SetPixel
 510              	.LVL39:
 511              	.L32:
  90:Core/Src/NOS_LIB_Driver/Src/WS2812B.c ****         }
 512              		.loc 1 90 13 is_stmt 1 discriminator 2 view .LVU140
  90:Core/Src/NOS_LIB_Driver/Src/WS2812B.c ****         }
 513              		.loc 1 90 18 is_stmt 0 discriminator 2 view .LVU141
 514 0032 0134     		adds	r4, r4, #1
 515              	.LVL40:
  90:Core/Src/NOS_LIB_Driver/Src/WS2812B.c ****         }
 516              		.loc 1 90 18 discriminator 2 view .LVU142
 517 0034 E4B2     		uxtb	r4, r4
 518              	.LVL41:
  79:Core/Src/NOS_LIB_Driver/Src/WS2812B.c ****         {
 519              		.loc 1 79 51 is_stmt 1 discriminator 2 view .LVU143
 520 0036 0135     		adds	r5, r5, #1
 521              	.LVL42:
 522              	.L33:
  79:Core/Src/NOS_LIB_Driver/Src/WS2812B.c ****         {
 523              		.loc 1 79 39 discriminator 1 view .LVU144
 524 0038 072D     		cmp	r5, #7
 525 003a 14DC     		bgt	.L39
  81:Core/Src/NOS_LIB_Driver/Src/WS2812B.c ****             if (bit)
 526              		.loc 1 81 13 view .LVU145
  81:Core/Src/NOS_LIB_Driver/Src/WS2812B.c ****             if (bit)
 527              		.loc 1 81 23 is_stmt 0 view .LVU146
 528 003c 0123     		movs	r3, #1
 529 003e AB40     		lsls	r3, r3, r5
 530              	.LVL43:
  82:Core/Src/NOS_LIB_Driver/Src/WS2812B.c ****             {
 531              		.loc 1 82 13 is_stmt 1 view .LVU147
  82:Core/Src/NOS_LIB_Driver/Src/WS2812B.c ****             {
 532              		.loc 1 82 16 is_stmt 0 view .LVU148
 533 0040 19EA030F 		tst	r9, r3
 534 0044 E6D0     		beq	.L31
  84:Core/Src/NOS_LIB_Driver/Src/WS2812B.c ****             }
 535              		.loc 1 84 17 is_stmt 1 view .LVU149
 536 0046 D6F80CA0 		ldr	r10, [r6, #12]
  84:Core/Src/NOS_LIB_Driver/Src/WS2812B.c ****             }
 537              		.loc 1 84 84 is_stmt 0 view .LVU150
 538 004a 4146     		mov	r1, r8
 539 004c 3846     		mov	r0, r7
 540 004e FFF7FEFF 		bl	NOS_Math_NormalizeValue
 541              	.LVL44:
  84:Core/Src/NOS_LIB_Driver/Src/WS2812B.c ****             }
 542              		.loc 1 84 17 view .LVU151
 543 0052 2146     		mov	r1, r4
 544 0054 C0B2     		uxtb	r0, r0
 545 0056 FFF7FEFF 		bl	GetPixelPos
 546              	.LVL45:
 547 005a 0246     		mov	r2, r0
 548 005c 5146     		mov	r1, r10
ARM GAS  C:\Users\igorn\AppData\Local\Temp\ccHqPtul.s 			page 16


 549 005e 3046     		mov	r0, r6
 550 0060 FFF7FEFF 		bl	NOS_WS2812B_Matrix_SetPixel
 551              	.LVL46:
 552 0064 E5E7     		b	.L32
 553              	.LVL47:
 554              	.L39:
  84:Core/Src/NOS_LIB_Driver/Src/WS2812B.c ****             }
 555              		.loc 1 84 17 view .LVU152
 556              	.LBE3:
  92:Core/Src/NOS_LIB_Driver/Src/WS2812B.c ****     }
 557              		.loc 1 92 9 is_stmt 1 discriminator 2 view .LVU153
  92:Core/Src/NOS_LIB_Driver/Src/WS2812B.c ****     }
 558              		.loc 1 92 19 is_stmt 0 discriminator 2 view .LVU154
 559 0066 0137     		adds	r7, r7, #1
 560              	.LVL48:
  92:Core/Src/NOS_LIB_Driver/Src/WS2812B.c ****     }
 561              		.loc 1 92 19 discriminator 2 view .LVU155
 562 0068 FFB2     		uxtb	r7, r7
  65:Core/Src/NOS_LIB_Driver/Src/WS2812B.c ****     {
 563              		.loc 1 65 44 is_stmt 1 discriminator 2 view .LVU156
 564 006a 0BF1010B 		add	fp, fp, #1
 565              	.LVL49:
 566              	.L28:
  65:Core/Src/NOS_LIB_Driver/Src/WS2812B.c ****     {
 567              		.loc 1 65 33 discriminator 1 view .LVU157
 568 006e BBF1040F 		cmp	fp, #4
 569 0072 10DC     		bgt	.L40
  67:Core/Src/NOS_LIB_Driver/Src/WS2812B.c ****         NOS_WS2812B_EffectRainbow(matrix, counter);
 570              		.loc 1 67 9 view .LVU158
  67:Core/Src/NOS_LIB_Driver/Src/WS2812B.c ****         NOS_WS2812B_EffectRainbow(matrix, counter);
 571              		.loc 1 67 26 is_stmt 0 view .LVU159
 572 0074 7369     		ldr	r3, [r6, #20]
  67:Core/Src/NOS_LIB_Driver/Src/WS2812B.c ****         NOS_WS2812B_EffectRainbow(matrix, counter);
 573              		.loc 1 67 35 view .LVU160
 574 0076 019A     		ldr	r2, [sp, #4]
 575 0078 02EB8202 		add	r2, r2, r2, lsl #2
 576 007c 1344     		add	r3, r3, r2
  67:Core/Src/NOS_LIB_Driver/Src/WS2812B.c ****         NOS_WS2812B_EffectRainbow(matrix, counter);
 577              		.loc 1 67 18 view .LVU161
 578 007e 13F80B90 		ldrb	r9, [r3, fp]	@ zero_extendqisi2
 579              	.LVL50:
  68:Core/Src/NOS_LIB_Driver/Src/WS2812B.c **** 
 580              		.loc 1 68 9 is_stmt 1 view .LVU162
 581 0082 0C99     		ldr	r1, [sp, #48]
 582 0084 3046     		mov	r0, r6
 583 0086 FFF7FEFF 		bl	NOS_WS2812B_EffectRainbow
 584              	.LVL51:
  70:Core/Src/NOS_LIB_Driver/Src/WS2812B.c ****         {
 585              		.loc 1 70 9 view .LVU163
  70:Core/Src/NOS_LIB_Driver/Src/WS2812B.c ****         {
 586              		.loc 1 70 12 is_stmt 0 view .LVU164
 587 008a 17F00104 		ands	r4, r7, #1
 588 008e 00D0     		beq	.L30
  76:Core/Src/NOS_LIB_Driver/Src/WS2812B.c ****         }
 589              		.loc 1 76 19 view .LVU165
 590 0090 0124     		movs	r4, #1
 591              	.L30:
ARM GAS  C:\Users\igorn\AppData\Local\Temp\ccHqPtul.s 			page 17


  76:Core/Src/NOS_LIB_Driver/Src/WS2812B.c ****         }
 592              		.loc 1 76 19 discriminator 1 view .LVU166
 593 0092 0025     		movs	r5, #0
 594 0094 D0E7     		b	.L33
 595              	.LVL52:
 596              	.L40:
  76:Core/Src/NOS_LIB_Driver/Src/WS2812B.c ****         }
 597              		.loc 1 76 19 discriminator 1 view .LVU167
 598              	.LBE2:
 599              	.LBB4:
  94:Core/Src/NOS_LIB_Driver/Src/WS2812B.c ****     {
 600              		.loc 1 94 14 view .LVU168
 601 0096 0124     		movs	r4, #1
 602 0098 0EE0     		b	.L36
 603              	.LVL53:
 604              	.L37:
  96:Core/Src/NOS_LIB_Driver/Src/WS2812B.c ****     }
 605              		.loc 1 96 9 is_stmt 1 discriminator 3 view .LVU169
 606 009a 3569     		ldr	r5, [r6, #16]
  96:Core/Src/NOS_LIB_Driver/Src/WS2812B.c ****     }
 607              		.loc 1 96 76 is_stmt 0 discriminator 3 view .LVU170
 608 009c 4146     		mov	r1, r8
 609 009e 3846     		mov	r0, r7
 610 00a0 FFF7FEFF 		bl	NOS_Math_NormalizeValue
 611              	.LVL54:
  96:Core/Src/NOS_LIB_Driver/Src/WS2812B.c ****     }
 612              		.loc 1 96 9 discriminator 3 view .LVU171
 613 00a4 E1B2     		uxtb	r1, r4
 614 00a6 C0B2     		uxtb	r0, r0
 615 00a8 FFF7FEFF 		bl	GetPixelPos
 616              	.LVL55:
 617 00ac 0246     		mov	r2, r0
 618 00ae 2946     		mov	r1, r5
 619 00b0 3046     		mov	r0, r6
 620 00b2 FFF7FEFF 		bl	NOS_WS2812B_Matrix_SetPixel
 621              	.LVL56:
  94:Core/Src/NOS_LIB_Driver/Src/WS2812B.c ****     {
 622              		.loc 1 94 29 is_stmt 1 discriminator 3 view .LVU172
 623 00b6 0134     		adds	r4, r4, #1
 624              	.LVL57:
 625              	.L36:
  94:Core/Src/NOS_LIB_Driver/Src/WS2812B.c ****     {
 626              		.loc 1 94 23 discriminator 1 view .LVU173
 627 00b8 082C     		cmp	r4, #8
 628 00ba EEDD     		ble	.L37
 629              	.LBE4:
  99:Core/Src/NOS_LIB_Driver/Src/WS2812B.c **** 
 630              		.loc 1 99 1 is_stmt 0 view .LVU174
 631 00bc 03B0     		add	sp, sp, #12
 632              		.cfi_def_cfa_offset 36
 633              		@ sp needed
 634 00be BDE8F08F 		pop	{r4, r5, r6, r7, r8, r9, r10, fp, pc}
  99:Core/Src/NOS_LIB_Driver/Src/WS2812B.c **** 
 635              		.loc 1 99 1 view .LVU175
 636              		.cfi_endproc
 637              	.LFE135:
 639              		.section	.text.NOS_WS2812B_Matrix_Update,"ax",%progbits
ARM GAS  C:\Users\igorn\AppData\Local\Temp\ccHqPtul.s 			page 18


 640              		.align	1
 641              		.global	NOS_WS2812B_Matrix_Update
 642              		.syntax unified
 643              		.thumb
 644              		.thumb_func
 646              	NOS_WS2812B_Matrix_Update:
 647              	.LVL58:
 648              	.LFB134:
  46:Core/Src/NOS_LIB_Driver/Src/WS2812B.c ****     uint16_t currColumn = offset;
 649              		.loc 1 46 1 is_stmt 1 view -0
 650              		.cfi_startproc
 651              		@ args = 0, pretend = 0, frame = 0
 652              		@ frame_needed = 0, uses_anonymous_args = 0
  46:Core/Src/NOS_LIB_Driver/Src/WS2812B.c ****     uint16_t currColumn = offset;
 653              		.loc 1 46 1 is_stmt 0 view .LVU177
 654 0000 2DE9F043 		push	{r4, r5, r6, r7, r8, r9, lr}
 655              		.cfi_def_cfa_offset 28
 656              		.cfi_offset 4, -28
 657              		.cfi_offset 5, -24
 658              		.cfi_offset 6, -20
 659              		.cfi_offset 7, -16
 660              		.cfi_offset 8, -12
 661              		.cfi_offset 9, -8
 662              		.cfi_offset 14, -4
 663 0004 83B0     		sub	sp, sp, #12
 664              		.cfi_def_cfa_offset 40
 665 0006 0746     		mov	r7, r0
 666 0008 0C46     		mov	r4, r1
 667 000a 1646     		mov	r6, r2
  47:Core/Src/NOS_LIB_Driver/Src/WS2812B.c ****     uint8_t symvolCount = matrix->size->col / 6;
 668              		.loc 1 47 5 is_stmt 1 view .LVU178
 669              	.LVL59:
  48:Core/Src/NOS_LIB_Driver/Src/WS2812B.c ****     uint8_t colls = matrix->size->col;
 670              		.loc 1 48 5 view .LVU179
  48:Core/Src/NOS_LIB_Driver/Src/WS2812B.c ****     uint8_t colls = matrix->size->col;
 671              		.loc 1 48 33 is_stmt 0 view .LVU180
 672 000c 8368     		ldr	r3, [r0, #8]
  48:Core/Src/NOS_LIB_Driver/Src/WS2812B.c ****     uint8_t colls = matrix->size->col;
 673              		.loc 1 48 39 view .LVU181
 674 000e 93F80090 		ldrb	r9, [r3]	@ zero_extendqisi2
  48:Core/Src/NOS_LIB_Driver/Src/WS2812B.c ****     uint8_t colls = matrix->size->col;
 675              		.loc 1 48 13 view .LVU182
 676 0012 0C4B     		ldr	r3, .L45
 677 0014 A3FB0938 		umull	r3, r8, r3, r9
 678 0018 4FEA9808 		lsr	r8, r8, #2
 679              	.LVL60:
  49:Core/Src/NOS_LIB_Driver/Src/WS2812B.c **** 
 680              		.loc 1 49 5 is_stmt 1 view .LVU183
  51:Core/Src/NOS_LIB_Driver/Src/WS2812B.c ****     {
 681              		.loc 1 51 5 view .LVU184
 682              	.LBB5:
  51:Core/Src/NOS_LIB_Driver/Src/WS2812B.c ****     {
 683              		.loc 1 51 10 view .LVU185
  51:Core/Src/NOS_LIB_Driver/Src/WS2812B.c ****     {
 684              		.loc 1 51 14 is_stmt 0 view .LVU186
 685 001c 0025     		movs	r5, #0
  51:Core/Src/NOS_LIB_Driver/Src/WS2812B.c ****     {
ARM GAS  C:\Users\igorn\AppData\Local\Temp\ccHqPtul.s 			page 19


 686              		.loc 1 51 5 view .LVU187
 687 001e 0CE0     		b	.L42
 688              	.LVL61:
 689              	.L43:
  53:Core/Src/NOS_LIB_Driver/Src/WS2812B.c ****         currColumn += 6;
 690              		.loc 1 53 9 is_stmt 1 discriminator 3 view .LVU188
 691 0020 0096     		str	r6, [sp]
 692 0022 4B46     		mov	r3, r9
 693 0024 E2B2     		uxtb	r2, r4
 694 0026 E9B2     		uxtb	r1, r5
 695 0028 3846     		mov	r0, r7
 696 002a FFF7FEFF 		bl	NOS_WS2812B_Matrix_PrintSymvol
 697              	.LVL62:
  54:Core/Src/NOS_LIB_Driver/Src/WS2812B.c ****         counter += matrix->bright / 4;
 698              		.loc 1 54 9 discriminator 3 view .LVU189
  54:Core/Src/NOS_LIB_Driver/Src/WS2812B.c ****         counter += matrix->bright / 4;
 699              		.loc 1 54 20 is_stmt 0 discriminator 3 view .LVU190
 700 002e 0634     		adds	r4, r4, #6
 701              	.LVL63:
  54:Core/Src/NOS_LIB_Driver/Src/WS2812B.c ****         counter += matrix->bright / 4;
 702              		.loc 1 54 20 discriminator 3 view .LVU191
 703 0030 A4B2     		uxth	r4, r4
 704              	.LVL64:
  55:Core/Src/NOS_LIB_Driver/Src/WS2812B.c ****     }
 705              		.loc 1 55 9 is_stmt 1 discriminator 3 view .LVU192
  55:Core/Src/NOS_LIB_Driver/Src/WS2812B.c ****     }
 706              		.loc 1 55 26 is_stmt 0 discriminator 3 view .LVU193
 707 0032 3B79     		ldrb	r3, [r7, #4]	@ zero_extendqisi2
  55:Core/Src/NOS_LIB_Driver/Src/WS2812B.c ****     }
 708              		.loc 1 55 17 discriminator 3 view .LVU194
 709 0034 06EB9306 		add	r6, r6, r3, lsr #2
 710              	.LVL65:
  51:Core/Src/NOS_LIB_Driver/Src/WS2812B.c ****     {
 711              		.loc 1 51 66 is_stmt 1 discriminator 3 view .LVU195
 712 0038 0135     		adds	r5, r5, #1
 713              	.LVL66:
 714              	.L42:
  51:Core/Src/NOS_LIB_Driver/Src/WS2812B.c ****     {
 715              		.loc 1 51 41 discriminator 1 view .LVU196
 716 003a A845     		cmp	r8, r5
 717 003c F0DC     		bgt	.L43
  51:Core/Src/NOS_LIB_Driver/Src/WS2812B.c ****     {
 718              		.loc 1 51 41 is_stmt 0 discriminator 1 view .LVU197
 719              	.LBE5:
  57:Core/Src/NOS_LIB_Driver/Src/WS2812B.c **** 
 720              		.loc 1 57 1 view .LVU198
 721 003e 03B0     		add	sp, sp, #12
 722              		.cfi_def_cfa_offset 28
 723              		@ sp needed
 724 0040 BDE8F083 		pop	{r4, r5, r6, r7, r8, r9, pc}
 725              	.LVL67:
 726              	.L46:
  57:Core/Src/NOS_LIB_Driver/Src/WS2812B.c **** 
 727              		.loc 1 57 1 view .LVU199
 728              		.align	2
 729              	.L45:
 730 0044 ABAAAAAA 		.word	-1431655765
ARM GAS  C:\Users\igorn\AppData\Local\Temp\ccHqPtul.s 			page 20


 731              		.cfi_endproc
 732              	.LFE134:
 734              		.section	.text.NOS_WS2812B_Matrix_Clear,"ax",%progbits
 735              		.align	1
 736              		.global	NOS_WS2812B_Matrix_Clear
 737              		.syntax unified
 738              		.thumb
 739              		.thumb_func
 741              	NOS_WS2812B_Matrix_Clear:
 742              	.LVL68:
 743              	.LFB146:
 272:Core/Src/NOS_LIB_Driver/Src/WS2812B.c **** 
 273:Core/Src/NOS_LIB_Driver/Src/WS2812B.c **** void NOS_WS2812B_Matrix_PrintTemperature(WS2812B_Matrix *matrix, int16_t temperature)
 274:Core/Src/NOS_LIB_Driver/Src/WS2812B.c **** {
 275:Core/Src/NOS_LIB_Driver/Src/WS2812B.c ****     if (temperature > 0)
 276:Core/Src/NOS_LIB_Driver/Src/WS2812B.c ****     {
 277:Core/Src/NOS_LIB_Driver/Src/WS2812B.c ****         NOS_WS2812B_Matrix_SetSymvol(matrix, '+', 0);
 278:Core/Src/NOS_LIB_Driver/Src/WS2812B.c ****     }
 279:Core/Src/NOS_LIB_Driver/Src/WS2812B.c ****     else
 280:Core/Src/NOS_LIB_Driver/Src/WS2812B.c ****     {
 281:Core/Src/NOS_LIB_Driver/Src/WS2812B.c ****         NOS_WS2812B_Matrix_SetSymvol(matrix, '-', 0);
 282:Core/Src/NOS_LIB_Driver/Src/WS2812B.c ****     }
 283:Core/Src/NOS_LIB_Driver/Src/WS2812B.c **** 
 284:Core/Src/NOS_LIB_Driver/Src/WS2812B.c ****     NOS_WS2812B_Matrix_SetSymvol(matrix, '*', 3);
 285:Core/Src/NOS_LIB_Driver/Src/WS2812B.c ****     NOS_WS2812B_Matrix_SetSymvol(matrix, 'C', 4);
 286:Core/Src/NOS_LIB_Driver/Src/WS2812B.c **** 
 287:Core/Src/NOS_LIB_Driver/Src/WS2812B.c ****     uint8_t counter = 0;
 288:Core/Src/NOS_LIB_Driver/Src/WS2812B.c ****     if (temperature < 0)
 289:Core/Src/NOS_LIB_Driver/Src/WS2812B.c ****     {
 290:Core/Src/NOS_LIB_Driver/Src/WS2812B.c ****         while (temperature < 0)
 291:Core/Src/NOS_LIB_Driver/Src/WS2812B.c ****         {
 292:Core/Src/NOS_LIB_Driver/Src/WS2812B.c ****             temperature++;
 293:Core/Src/NOS_LIB_Driver/Src/WS2812B.c ****             counter++;
 294:Core/Src/NOS_LIB_Driver/Src/WS2812B.c ****         }
 295:Core/Src/NOS_LIB_Driver/Src/WS2812B.c ****     }
 296:Core/Src/NOS_LIB_Driver/Src/WS2812B.c ****     else
 297:Core/Src/NOS_LIB_Driver/Src/WS2812B.c ****     {
 298:Core/Src/NOS_LIB_Driver/Src/WS2812B.c ****         counter = (uint8_t)temperature;
 299:Core/Src/NOS_LIB_Driver/Src/WS2812B.c ****     }
 300:Core/Src/NOS_LIB_Driver/Src/WS2812B.c **** 
 301:Core/Src/NOS_LIB_Driver/Src/WS2812B.c ****     NOS_WS2812B_Matrix_PrintIntNumber(matrix, (uint32_t)counter, 1, 2);
 302:Core/Src/NOS_LIB_Driver/Src/WS2812B.c **** }
 303:Core/Src/NOS_LIB_Driver/Src/WS2812B.c **** 
 304:Core/Src/NOS_LIB_Driver/Src/WS2812B.c **** void NOS_WS2812B_Matrix_PrintDetectorValue(WS2812B_Matrix *matrix, URE_Detector *detector, Language
 305:Core/Src/NOS_LIB_Driver/Src/WS2812B.c **** {
 306:Core/Src/NOS_LIB_Driver/Src/WS2812B.c ****     if (detector->value.data < 10.0f)
 307:Core/Src/NOS_LIB_Driver/Src/WS2812B.c ****     {
 308:Core/Src/NOS_LIB_Driver/Src/WS2812B.c ****         NOS_WS2812B_Matrix_SetSymvol(matrix, ' ', 1);
 309:Core/Src/NOS_LIB_Driver/Src/WS2812B.c ****         NOS_WS2812B_Matrix_PrintFloatNumber(matrix, detector->value.data, 2);
 310:Core/Src/NOS_LIB_Driver/Src/WS2812B.c ****     }
 311:Core/Src/NOS_LIB_Driver/Src/WS2812B.c ****     else
 312:Core/Src/NOS_LIB_Driver/Src/WS2812B.c ****     {
 313:Core/Src/NOS_LIB_Driver/Src/WS2812B.c ****         NOS_WS2812B_Matrix_PrintFloatNumber(matrix, detector->value.data, 1);
 314:Core/Src/NOS_LIB_Driver/Src/WS2812B.c ****     }
 315:Core/Src/NOS_LIB_Driver/Src/WS2812B.c **** 
 316:Core/Src/NOS_LIB_Driver/Src/WS2812B.c ****     switch (language)
 317:Core/Src/NOS_LIB_Driver/Src/WS2812B.c ****     {
ARM GAS  C:\Users\igorn\AppData\Local\Temp\ccHqPtul.s 			page 21


 318:Core/Src/NOS_LIB_Driver/Src/WS2812B.c ****     case English:
 319:Core/Src/NOS_LIB_Driver/Src/WS2812B.c ****         NOS_WS2812B_Matrix_PrintStaticString(matrix, "uSv/Hour", 7, 8);
 320:Core/Src/NOS_LIB_Driver/Src/WS2812B.c ****         break;
 321:Core/Src/NOS_LIB_Driver/Src/WS2812B.c ****     case Ukrainian:
 322:Core/Src/NOS_LIB_Driver/Src/WS2812B.c ****         NOS_WS2812B_Matrix_PrintStaticString(matrix, "mk3B/god", 7, 8);
 323:Core/Src/NOS_LIB_Driver/Src/WS2812B.c ****         break;
 324:Core/Src/NOS_LIB_Driver/Src/WS2812B.c **** 
 325:Core/Src/NOS_LIB_Driver/Src/WS2812B.c ****     default:
 326:Core/Src/NOS_LIB_Driver/Src/WS2812B.c ****         break;
 327:Core/Src/NOS_LIB_Driver/Src/WS2812B.c ****     }
 328:Core/Src/NOS_LIB_Driver/Src/WS2812B.c **** 
 329:Core/Src/NOS_LIB_Driver/Src/WS2812B.c ****     if (detector->value.data >= detector->first_danger.data && detector->value.data < detector->sec
 330:Core/Src/NOS_LIB_Driver/Src/WS2812B.c ****     {
 331:Core/Src/NOS_LIB_Driver/Src/WS2812B.c ****         matrix->textColor = yellow;
 332:Core/Src/NOS_LIB_Driver/Src/WS2812B.c ****     }
 333:Core/Src/NOS_LIB_Driver/Src/WS2812B.c ****     else if (detector->value.data >= detector->second_danger.data)
 334:Core/Src/NOS_LIB_Driver/Src/WS2812B.c ****     {
 335:Core/Src/NOS_LIB_Driver/Src/WS2812B.c ****         matrix->textColor = red;
 336:Core/Src/NOS_LIB_Driver/Src/WS2812B.c ****     }
 337:Core/Src/NOS_LIB_Driver/Src/WS2812B.c ****     else
 338:Core/Src/NOS_LIB_Driver/Src/WS2812B.c ****     {
 339:Core/Src/NOS_LIB_Driver/Src/WS2812B.c ****         matrix->textColor = green;
 340:Core/Src/NOS_LIB_Driver/Src/WS2812B.c ****     }
 341:Core/Src/NOS_LIB_Driver/Src/WS2812B.c **** }
 342:Core/Src/NOS_LIB_Driver/Src/WS2812B.c **** 
 343:Core/Src/NOS_LIB_Driver/Src/WS2812B.c **** void NOS_WS2812B_Matrix_Clear(WS2812B_Matrix *matrix)
 344:Core/Src/NOS_LIB_Driver/Src/WS2812B.c **** {
 744              		.loc 1 344 1 is_stmt 1 view -0
 745              		.cfi_startproc
 746              		@ args = 0, pretend = 0, frame = 0
 747              		@ frame_needed = 0, uses_anonymous_args = 0
 748              		@ link register save eliminated.
 345:Core/Src/NOS_LIB_Driver/Src/WS2812B.c ****     for (int i = 0; i < matrix->size->col * matrix->size->row * 3; i++)
 749              		.loc 1 345 5 view .LVU201
 750              	.LBB6:
 751              		.loc 1 345 10 view .LVU202
 752              		.loc 1 345 14 is_stmt 0 view .LVU203
 753 0000 0022     		movs	r2, #0
 754              		.loc 1 345 5 view .LVU204
 755 0002 03E0     		b	.L48
 756              	.LVL69:
 757              	.L49:
 346:Core/Src/NOS_LIB_Driver/Src/WS2812B.c ****     {
 347:Core/Src/NOS_LIB_Driver/Src/WS2812B.c ****         matrix->buffer[i] = 0;
 758              		.loc 1 347 9 is_stmt 1 discriminator 3 view .LVU205
 759              		.loc 1 347 15 is_stmt 0 discriminator 3 view .LVU206
 760 0004 0368     		ldr	r3, [r0]
 761              		.loc 1 347 27 discriminator 3 view .LVU207
 762 0006 0021     		movs	r1, #0
 763 0008 9954     		strb	r1, [r3, r2]
 345:Core/Src/NOS_LIB_Driver/Src/WS2812B.c ****     for (int i = 0; i < matrix->size->col * matrix->size->row * 3; i++)
 764              		.loc 1 345 69 is_stmt 1 discriminator 3 view .LVU208
 765 000a 0132     		adds	r2, r2, #1
 766              	.LVL70:
 767              	.L48:
 345:Core/Src/NOS_LIB_Driver/Src/WS2812B.c ****     for (int i = 0; i < matrix->size->col * matrix->size->row * 3; i++)
 768              		.loc 1 345 23 discriminator 1 view .LVU209
ARM GAS  C:\Users\igorn\AppData\Local\Temp\ccHqPtul.s 			page 22


 345:Core/Src/NOS_LIB_Driver/Src/WS2812B.c ****     for (int i = 0; i < matrix->size->col * matrix->size->row * 3; i++)
 769              		.loc 1 345 31 is_stmt 0 discriminator 1 view .LVU210
 770 000c 8168     		ldr	r1, [r0, #8]
 345:Core/Src/NOS_LIB_Driver/Src/WS2812B.c ****     for (int i = 0; i < matrix->size->col * matrix->size->row * 3; i++)
 771              		.loc 1 345 37 discriminator 1 view .LVU211
 772 000e 0B78     		ldrb	r3, [r1]	@ zero_extendqisi2
 345:Core/Src/NOS_LIB_Driver/Src/WS2812B.c ****     for (int i = 0; i < matrix->size->col * matrix->size->row * 3; i++)
 773              		.loc 1 345 57 discriminator 1 view .LVU212
 774 0010 4978     		ldrb	r1, [r1, #1]	@ zero_extendqisi2
 345:Core/Src/NOS_LIB_Driver/Src/WS2812B.c ****     for (int i = 0; i < matrix->size->col * matrix->size->row * 3; i++)
 775              		.loc 1 345 43 discriminator 1 view .LVU213
 776 0012 01FB03F3 		mul	r3, r1, r3
 345:Core/Src/NOS_LIB_Driver/Src/WS2812B.c ****     for (int i = 0; i < matrix->size->col * matrix->size->row * 3; i++)
 777              		.loc 1 345 63 discriminator 1 view .LVU214
 778 0016 03EB4303 		add	r3, r3, r3, lsl #1
 345:Core/Src/NOS_LIB_Driver/Src/WS2812B.c ****     for (int i = 0; i < matrix->size->col * matrix->size->row * 3; i++)
 779              		.loc 1 345 23 discriminator 1 view .LVU215
 780 001a 9342     		cmp	r3, r2
 781 001c F2DC     		bgt	.L49
 782              	.LBE6:
 348:Core/Src/NOS_LIB_Driver/Src/WS2812B.c ****     }
 349:Core/Src/NOS_LIB_Driver/Src/WS2812B.c **** }
 783              		.loc 1 349 1 view .LVU216
 784 001e 7047     		bx	lr
 785              		.cfi_endproc
 786              	.LFE146:
 788              		.section	.text.NOS_WS2812B_EffectEngineHandler,"ax",%progbits
 789              		.align	1
 790              		.global	NOS_WS2812B_EffectEngineHandler
 791              		.syntax unified
 792              		.thumb
 793              		.thumb_func
 795              	NOS_WS2812B_EffectEngineHandler:
 796              	.LVL71:
 797              	.LFB148:
 350:Core/Src/NOS_LIB_Driver/Src/WS2812B.c **** 
 351:Core/Src/NOS_LIB_Driver/Src/WS2812B.c **** void NOS_WS2812B_Matrix_FillColor(WS2812B_Matrix *matrix, PixelColor *color)
 352:Core/Src/NOS_LIB_Driver/Src/WS2812B.c **** {
 353:Core/Src/NOS_LIB_Driver/Src/WS2812B.c ****     uint8_t symvolCount = matrix->size->col / 6;
 354:Core/Src/NOS_LIB_Driver/Src/WS2812B.c ****     for (int i = 0; i < symvolCount; i++)
 355:Core/Src/NOS_LIB_Driver/Src/WS2812B.c ****     {
 356:Core/Src/NOS_LIB_Driver/Src/WS2812B.c ****         NOS_WS2812B_Matrix_SetSymvol(matrix, '{', i);
 357:Core/Src/NOS_LIB_Driver/Src/WS2812B.c ****     }
 358:Core/Src/NOS_LIB_Driver/Src/WS2812B.c ****     matrix->textColor = color;
 359:Core/Src/NOS_LIB_Driver/Src/WS2812B.c **** }
 360:Core/Src/NOS_LIB_Driver/Src/WS2812B.c **** 
 361:Core/Src/NOS_LIB_Driver/Src/WS2812B.c **** void NOS_WS2812B_EffectEngineHandler(WS2812B_EffectEngine *engine)
 362:Core/Src/NOS_LIB_Driver/Src/WS2812B.c **** {
 798              		.loc 1 362 1 is_stmt 1 view -0
 799              		.cfi_startproc
 800              		@ args = 0, pretend = 0, frame = 0
 801              		@ frame_needed = 0, uses_anonymous_args = 0
 802              		@ link register save eliminated.
 363:Core/Src/NOS_LIB_Driver/Src/WS2812B.c **** 
 364:Core/Src/NOS_LIB_Driver/Src/WS2812B.c ****     engine->counter++;
 803              		.loc 1 364 5 view .LVU218
 804              		.loc 1 364 11 is_stmt 0 view .LVU219
ARM GAS  C:\Users\igorn\AppData\Local\Temp\ccHqPtul.s 			page 23


 805 0000 8368     		ldr	r3, [r0, #8]
 806              		.loc 1 364 20 view .LVU220
 807 0002 0133     		adds	r3, r3, #1
 808 0004 8360     		str	r3, [r0, #8]
 365:Core/Src/NOS_LIB_Driver/Src/WS2812B.c **** }
 809              		.loc 1 365 1 view .LVU221
 810 0006 7047     		bx	lr
 811              		.cfi_endproc
 812              	.LFE148:
 814              		.section	.text.Test_GetPixelPos,"ax",%progbits
 815              		.align	1
 816              		.global	Test_GetPixelPos
 817              		.syntax unified
 818              		.thumb
 819              		.thumb_func
 821              	Test_GetPixelPos:
 822              	.LVL72:
 823              	.LFB149:
 366:Core/Src/NOS_LIB_Driver/Src/WS2812B.c **** 
 367:Core/Src/NOS_LIB_Driver/Src/WS2812B.c **** uint16_t Test_GetPixelPos(uint8_t x, uint8_t y)
 368:Core/Src/NOS_LIB_Driver/Src/WS2812B.c **** {
 824              		.loc 1 368 1 is_stmt 1 view -0
 825              		.cfi_startproc
 826              		@ args = 0, pretend = 0, frame = 0
 827              		@ frame_needed = 0, uses_anonymous_args = 0
 828              		@ link register save eliminated.
 369:Core/Src/NOS_LIB_Driver/Src/WS2812B.c ****     uint16_t result = 0;
 829              		.loc 1 369 5 view .LVU223
 370:Core/Src/NOS_LIB_Driver/Src/WS2812B.c **** 
 371:Core/Src/NOS_LIB_Driver/Src/WS2812B.c ****     x--;
 830              		.loc 1 371 5 view .LVU224
 831              		.loc 1 371 6 is_stmt 0 view .LVU225
 832 0000 0138     		subs	r0, r0, #1
 833              	.LVL73:
 834              		.loc 1 371 6 view .LVU226
 835 0002 C3B2     		uxtb	r3, r0
 836              	.LVL74:
 372:Core/Src/NOS_LIB_Driver/Src/WS2812B.c ****     y--;
 837              		.loc 1 372 5 is_stmt 1 view .LVU227
 838              		.loc 1 372 6 is_stmt 0 view .LVU228
 839 0004 0139     		subs	r1, r1, #1
 840              	.LVL75:
 841              		.loc 1 372 6 view .LVU229
 842 0006 C9B2     		uxtb	r1, r1
 843              	.LVL76:
 373:Core/Src/NOS_LIB_Driver/Src/WS2812B.c **** 
 374:Core/Src/NOS_LIB_Driver/Src/WS2812B.c ****     if (x >= 0 && y >= 0)
 844              		.loc 1 374 5 is_stmt 1 view .LVU230
 375:Core/Src/NOS_LIB_Driver/Src/WS2812B.c ****     {
 376:Core/Src/NOS_LIB_Driver/Src/WS2812B.c **** 
 377:Core/Src/NOS_LIB_Driver/Src/WS2812B.c ****         if (x % 2 == 0)
 845              		.loc 1 377 9 view .LVU231
 846              		.loc 1 377 12 is_stmt 0 view .LVU232
 847 0008 10F0010F 		tst	r0, #1
 848 000c 02D1     		bne	.L52
 378:Core/Src/NOS_LIB_Driver/Src/WS2812B.c ****         {
 379:Core/Src/NOS_LIB_Driver/Src/WS2812B.c ****             result = (x * 8) + y;
ARM GAS  C:\Users\igorn\AppData\Local\Temp\ccHqPtul.s 			page 24


 849              		.loc 1 379 13 is_stmt 1 view .LVU233
 850              		.loc 1 379 20 is_stmt 0 view .LVU234
 851 000e 01EBC300 		add	r0, r1, r3, lsl #3
 852              	.LVL77:
 853              		.loc 1 379 20 view .LVU235
 854 0012 7047     		bx	lr
 855              	.LVL78:
 856              	.L52:
 380:Core/Src/NOS_LIB_Driver/Src/WS2812B.c ****         }
 381:Core/Src/NOS_LIB_Driver/Src/WS2812B.c ****         else
 382:Core/Src/NOS_LIB_Driver/Src/WS2812B.c ****         {
 383:Core/Src/NOS_LIB_Driver/Src/WS2812B.c ****             result = (x * 8) + (8 - y) - 1;
 857              		.loc 1 383 13 is_stmt 1 view .LVU236
 858              		.loc 1 383 30 is_stmt 0 view .LVU237
 859 0014 C1EBC300 		rsb	r0, r1, r3, lsl #3
 860 0018 80B2     		uxth	r0, r0
 861              		.loc 1 383 20 view .LVU238
 862 001a 0730     		adds	r0, r0, #7
 863 001c 80B2     		uxth	r0, r0
 864              	.LVL79:
 384:Core/Src/NOS_LIB_Driver/Src/WS2812B.c ****         }
 385:Core/Src/NOS_LIB_Driver/Src/WS2812B.c ****     }
 386:Core/Src/NOS_LIB_Driver/Src/WS2812B.c ****     return result;
 865              		.loc 1 386 5 is_stmt 1 view .LVU239
 387:Core/Src/NOS_LIB_Driver/Src/WS2812B.c **** }
 866              		.loc 1 387 1 is_stmt 0 view .LVU240
 867 001e 7047     		bx	lr
 868              		.cfi_endproc
 869              	.LFE149:
 871              		.section	.rodata.Symvol_GetBitMap.str1.4,"aMS",%progbits,1
 872              		.align	2
 873              	.LC0:
 874 0000 52757300 		.ascii	"Rus\000"
 875              		.section	.text.Symvol_GetBitMap,"ax",%progbits
 876              		.align	1
 877              		.global	Symvol_GetBitMap
 878              		.syntax unified
 879              		.thumb
 880              		.thumb_func
 882              	Symvol_GetBitMap:
 883              	.LVL80:
 884              	.LFB150:
 388:Core/Src/NOS_LIB_Driver/Src/WS2812B.c **** 
 389:Core/Src/NOS_LIB_Driver/Src/WS2812B.c **** uint8_t *Symvol_GetBitMap(char sym /*, uint8_t languageIdentificator*/)
 390:Core/Src/NOS_LIB_Driver/Src/WS2812B.c **** {
 885              		.loc 1 390 1 is_stmt 1 view -0
 886              		.cfi_startproc
 887              		@ args = 0, pretend = 0, frame = 0
 888              		@ frame_needed = 0, uses_anonymous_args = 0
 889              		.loc 1 390 1 is_stmt 0 view .LVU242
 890 0000 10B5     		push	{r4, lr}
 891              		.cfi_def_cfa_offset 8
 892              		.cfi_offset 4, -8
 893              		.cfi_offset 14, -4
 894 0002 0446     		mov	r4, r0
 391:Core/Src/NOS_LIB_Driver/Src/WS2812B.c ****     setlocale(LC_ALL, "Rus");
 895              		.loc 1 391 5 is_stmt 1 view .LVU243
ARM GAS  C:\Users\igorn\AppData\Local\Temp\ccHqPtul.s 			page 25


 896 0004 5449     		ldr	r1, .L114
 897 0006 0020     		movs	r0, #0
 898              	.LVL81:
 899              		.loc 1 391 5 is_stmt 0 view .LVU244
 900 0008 FFF7FEFF 		bl	setlocale
 901              	.LVL82:
 392:Core/Src/NOS_LIB_Driver/Src/WS2812B.c ****     switch (sym)
 902              		.loc 1 392 5 is_stmt 1 view .LVU245
 903 000c A4F12000 		sub	r0, r4, #32
 904 0010 5B28     		cmp	r0, #91
 905 0012 00F29C80 		bhi	.L55
 906 0016 DFE800F0 		tbb	[pc, r0]
 907              	.L57:
 908 001a 74       		.byte	(.L111-.L57)/2
 909 001b 84       		.byte	(.L110-.L57)/2
 910 001c 9A       		.byte	(.L55-.L57)/2
 911 001d 9A       		.byte	(.L55-.L57)/2
 912 001e 9A       		.byte	(.L55-.L57)/2
 913 001f 9A       		.byte	(.L55-.L57)/2
 914 0020 9A       		.byte	(.L55-.L57)/2
 915 0021 9A       		.byte	(.L55-.L57)/2
 916 0022 9A       		.byte	(.L55-.L57)/2
 917 0023 9A       		.byte	(.L55-.L57)/2
 918 0024 7C       		.byte	(.L109-.L57)/2
 919 0025 76       		.byte	(.L108-.L57)/2
 920 0026 9A       		.byte	(.L55-.L57)/2
 921 0027 78       		.byte	(.L107-.L57)/2
 922 0028 7E       		.byte	(.L106-.L57)/2
 923 0029 7A       		.byte	(.L105-.L57)/2
 924 002a 86       		.byte	(.L104-.L57)/2
 925 002b 88       		.byte	(.L103-.L57)/2
 926 002c 8A       		.byte	(.L102-.L57)/2
 927 002d 8C       		.byte	(.L101-.L57)/2
 928 002e 8E       		.byte	(.L100-.L57)/2
 929 002f 90       		.byte	(.L99-.L57)/2
 930 0030 92       		.byte	(.L98-.L57)/2
 931 0031 94       		.byte	(.L97-.L57)/2
 932 0032 96       		.byte	(.L96-.L57)/2
 933 0033 98       		.byte	(.L95-.L57)/2
 934 0034 80       		.byte	(.L94-.L57)/2
 935 0035 9A       		.byte	(.L55-.L57)/2
 936 0036 9A       		.byte	(.L55-.L57)/2
 937 0037 9A       		.byte	(.L55-.L57)/2
 938 0038 9A       		.byte	(.L55-.L57)/2
 939 0039 9A       		.byte	(.L55-.L57)/2
 940 003a 9A       		.byte	(.L55-.L57)/2
 941 003b 2E       		.byte	(.L93-.L57)/2
 942 003c 9C       		.byte	(.L112-.L57)/2
 943 003d 30       		.byte	(.L91-.L57)/2
 944 003e 32       		.byte	(.L90-.L57)/2
 945 003f 34       		.byte	(.L89-.L57)/2
 946 0040 36       		.byte	(.L88-.L57)/2
 947 0041 38       		.byte	(.L87-.L57)/2
 948 0042 3A       		.byte	(.L86-.L57)/2
 949 0043 3C       		.byte	(.L85-.L57)/2
 950 0044 3E       		.byte	(.L84-.L57)/2
 951 0045 40       		.byte	(.L83-.L57)/2
ARM GAS  C:\Users\igorn\AppData\Local\Temp\ccHqPtul.s 			page 26


 952 0046 42       		.byte	(.L82-.L57)/2
 953 0047 44       		.byte	(.L81-.L57)/2
 954 0048 46       		.byte	(.L80-.L57)/2
 955 0049 48       		.byte	(.L79-.L57)/2
 956 004a 4A       		.byte	(.L78-.L57)/2
 957 004b 4C       		.byte	(.L77-.L57)/2
 958 004c 4E       		.byte	(.L76-.L57)/2
 959 004d 50       		.byte	(.L75-.L57)/2
 960 004e 52       		.byte	(.L74-.L57)/2
 961 004f 54       		.byte	(.L73-.L57)/2
 962 0050 56       		.byte	(.L72-.L57)/2
 963 0051 58       		.byte	(.L71-.L57)/2
 964 0052 5A       		.byte	(.L70-.L57)/2
 965 0053 5C       		.byte	(.L69-.L57)/2
 966 0054 5E       		.byte	(.L68-.L57)/2
 967 0055 9A       		.byte	(.L55-.L57)/2
 968 0056 9A       		.byte	(.L55-.L57)/2
 969 0057 9A       		.byte	(.L55-.L57)/2
 970 0058 9A       		.byte	(.L55-.L57)/2
 971 0059 9A       		.byte	(.L55-.L57)/2
 972 005a 9A       		.byte	(.L55-.L57)/2
 973 005b 64       		.byte	(.L67-.L57)/2
 974 005c 9A       		.byte	(.L55-.L57)/2
 975 005d 66       		.byte	(.L66-.L57)/2
 976 005e 6C       		.byte	(.L65-.L57)/2
 977 005f 9A       		.byte	(.L55-.L57)/2
 978 0060 9A       		.byte	(.L55-.L57)/2
 979 0061 70       		.byte	(.L64-.L57)/2
 980 0062 9A       		.byte	(.L55-.L57)/2
 981 0063 9A       		.byte	(.L55-.L57)/2
 982 0064 9A       		.byte	(.L55-.L57)/2
 983 0065 6A       		.byte	(.L63-.L57)/2
 984 0066 9A       		.byte	(.L55-.L57)/2
 985 0067 9A       		.byte	(.L55-.L57)/2
 986 0068 9A       		.byte	(.L55-.L57)/2
 987 0069 6E       		.byte	(.L62-.L57)/2
 988 006a 9A       		.byte	(.L55-.L57)/2
 989 006b 9A       		.byte	(.L55-.L57)/2
 990 006c 68       		.byte	(.L61-.L57)/2
 991 006d 9A       		.byte	(.L55-.L57)/2
 992 006e 9A       		.byte	(.L55-.L57)/2
 993 006f 60       		.byte	(.L60-.L57)/2
 994 0070 62       		.byte	(.L59-.L57)/2
 995 0071 9A       		.byte	(.L55-.L57)/2
 996 0072 9A       		.byte	(.L55-.L57)/2
 997 0073 72       		.byte	(.L58-.L57)/2
 998 0074 9A       		.byte	(.L55-.L57)/2
 999 0075 82       		.byte	(.L56-.L57)/2
 1000              		.p2align 1
 1001              	.L93:
 1002 0076 3948     		ldr	r0, .L114+4
 1003 0078 00E0     		b	.L54
 1004              	.L91:
 393:Core/Src/NOS_LIB_Driver/Src/WS2812B.c ****     {
 394:Core/Src/NOS_LIB_Driver/Src/WS2812B.c ****     /* English upper case */
 395:Core/Src/NOS_LIB_Driver/Src/WS2812B.c ****     case 'A':
 396:Core/Src/NOS_LIB_Driver/Src/WS2812B.c ****         return Eng_A;
ARM GAS  C:\Users\igorn\AppData\Local\Temp\ccHqPtul.s 			page 27


 397:Core/Src/NOS_LIB_Driver/Src/WS2812B.c ****         break;
 398:Core/Src/NOS_LIB_Driver/Src/WS2812B.c ****     case 'B':
 399:Core/Src/NOS_LIB_Driver/Src/WS2812B.c ****         return Eng_B;
 400:Core/Src/NOS_LIB_Driver/Src/WS2812B.c ****         break;
 1005              		.loc 1 400 9 view .LVU246
 401:Core/Src/NOS_LIB_Driver/Src/WS2812B.c ****     case 'C':
 402:Core/Src/NOS_LIB_Driver/Src/WS2812B.c ****         return Eng_C;
 1006              		.loc 1 402 9 view .LVU247
 1007              		.loc 1 402 16 is_stmt 0 view .LVU248
 1008 007a 3948     		ldr	r0, .L114+8
 1009              	.L54:
 403:Core/Src/NOS_LIB_Driver/Src/WS2812B.c ****         break;
 404:Core/Src/NOS_LIB_Driver/Src/WS2812B.c ****     case 'D':
 405:Core/Src/NOS_LIB_Driver/Src/WS2812B.c ****         return Eng_D;
 406:Core/Src/NOS_LIB_Driver/Src/WS2812B.c ****         break;
 407:Core/Src/NOS_LIB_Driver/Src/WS2812B.c ****     case 'E':
 408:Core/Src/NOS_LIB_Driver/Src/WS2812B.c ****         return Eng_E;
 409:Core/Src/NOS_LIB_Driver/Src/WS2812B.c ****         break;
 410:Core/Src/NOS_LIB_Driver/Src/WS2812B.c ****     case 'F':
 411:Core/Src/NOS_LIB_Driver/Src/WS2812B.c ****         return Eng_F;
 412:Core/Src/NOS_LIB_Driver/Src/WS2812B.c ****         break;
 413:Core/Src/NOS_LIB_Driver/Src/WS2812B.c ****     case 'G':
 414:Core/Src/NOS_LIB_Driver/Src/WS2812B.c ****         return Eng_G;
 415:Core/Src/NOS_LIB_Driver/Src/WS2812B.c ****         break;
 416:Core/Src/NOS_LIB_Driver/Src/WS2812B.c ****     case 'H':
 417:Core/Src/NOS_LIB_Driver/Src/WS2812B.c ****         return Eng_H;
 418:Core/Src/NOS_LIB_Driver/Src/WS2812B.c ****         break;
 419:Core/Src/NOS_LIB_Driver/Src/WS2812B.c ****     case 'I':
 420:Core/Src/NOS_LIB_Driver/Src/WS2812B.c ****         return Eng_I;
 421:Core/Src/NOS_LIB_Driver/Src/WS2812B.c ****         break;
 422:Core/Src/NOS_LIB_Driver/Src/WS2812B.c ****     case 'J':
 423:Core/Src/NOS_LIB_Driver/Src/WS2812B.c ****         return Eng_J;
 424:Core/Src/NOS_LIB_Driver/Src/WS2812B.c ****         break;
 425:Core/Src/NOS_LIB_Driver/Src/WS2812B.c ****     case 'K':
 426:Core/Src/NOS_LIB_Driver/Src/WS2812B.c ****         return Eng_K;
 427:Core/Src/NOS_LIB_Driver/Src/WS2812B.c ****         break;
 428:Core/Src/NOS_LIB_Driver/Src/WS2812B.c ****     case 'L':
 429:Core/Src/NOS_LIB_Driver/Src/WS2812B.c ****         return Eng_L;
 430:Core/Src/NOS_LIB_Driver/Src/WS2812B.c ****         break;
 431:Core/Src/NOS_LIB_Driver/Src/WS2812B.c ****     case 'M':
 432:Core/Src/NOS_LIB_Driver/Src/WS2812B.c ****         return Eng_M;
 433:Core/Src/NOS_LIB_Driver/Src/WS2812B.c ****         break;
 434:Core/Src/NOS_LIB_Driver/Src/WS2812B.c ****     case 'N':
 435:Core/Src/NOS_LIB_Driver/Src/WS2812B.c ****         return Eng_N;
 436:Core/Src/NOS_LIB_Driver/Src/WS2812B.c ****         break;
 437:Core/Src/NOS_LIB_Driver/Src/WS2812B.c ****     case 'O':
 438:Core/Src/NOS_LIB_Driver/Src/WS2812B.c ****         return Eng_O;
 439:Core/Src/NOS_LIB_Driver/Src/WS2812B.c ****         break;
 440:Core/Src/NOS_LIB_Driver/Src/WS2812B.c ****     case 'P':
 441:Core/Src/NOS_LIB_Driver/Src/WS2812B.c ****         return Eng_P;
 442:Core/Src/NOS_LIB_Driver/Src/WS2812B.c ****         break;
 443:Core/Src/NOS_LIB_Driver/Src/WS2812B.c ****     case 'Q':
 444:Core/Src/NOS_LIB_Driver/Src/WS2812B.c ****         return Eng_Q;
 445:Core/Src/NOS_LIB_Driver/Src/WS2812B.c ****         break;
 446:Core/Src/NOS_LIB_Driver/Src/WS2812B.c ****     case 'R':
 447:Core/Src/NOS_LIB_Driver/Src/WS2812B.c ****         return Eng_R;
 448:Core/Src/NOS_LIB_Driver/Src/WS2812B.c ****         break;
ARM GAS  C:\Users\igorn\AppData\Local\Temp\ccHqPtul.s 			page 28


 449:Core/Src/NOS_LIB_Driver/Src/WS2812B.c ****     case 'S':
 450:Core/Src/NOS_LIB_Driver/Src/WS2812B.c ****         return Eng_S;
 451:Core/Src/NOS_LIB_Driver/Src/WS2812B.c ****         break;
 452:Core/Src/NOS_LIB_Driver/Src/WS2812B.c ****     case 'T':
 453:Core/Src/NOS_LIB_Driver/Src/WS2812B.c ****         return Eng_T;
 454:Core/Src/NOS_LIB_Driver/Src/WS2812B.c ****         break;
 455:Core/Src/NOS_LIB_Driver/Src/WS2812B.c ****     case 'U':
 456:Core/Src/NOS_LIB_Driver/Src/WS2812B.c ****         return Eng_U;
 457:Core/Src/NOS_LIB_Driver/Src/WS2812B.c ****         break;
 458:Core/Src/NOS_LIB_Driver/Src/WS2812B.c ****     case 'V':
 459:Core/Src/NOS_LIB_Driver/Src/WS2812B.c ****         return Eng_V;
 460:Core/Src/NOS_LIB_Driver/Src/WS2812B.c ****         break;
 461:Core/Src/NOS_LIB_Driver/Src/WS2812B.c ****     case 'W':
 462:Core/Src/NOS_LIB_Driver/Src/WS2812B.c ****         return Eng_W;
 463:Core/Src/NOS_LIB_Driver/Src/WS2812B.c ****         break;
 464:Core/Src/NOS_LIB_Driver/Src/WS2812B.c ****     case 'X':
 465:Core/Src/NOS_LIB_Driver/Src/WS2812B.c ****         return Eng_X;
 466:Core/Src/NOS_LIB_Driver/Src/WS2812B.c ****         break;
 467:Core/Src/NOS_LIB_Driver/Src/WS2812B.c ****     case 'Y':
 468:Core/Src/NOS_LIB_Driver/Src/WS2812B.c ****         return Eng_Y;
 469:Core/Src/NOS_LIB_Driver/Src/WS2812B.c ****         break;
 470:Core/Src/NOS_LIB_Driver/Src/WS2812B.c ****     case 'Z':
 471:Core/Src/NOS_LIB_Driver/Src/WS2812B.c ****         return Eng_Z;
 472:Core/Src/NOS_LIB_Driver/Src/WS2812B.c ****         break;
 473:Core/Src/NOS_LIB_Driver/Src/WS2812B.c ****     /* English upper case */
 474:Core/Src/NOS_LIB_Driver/Src/WS2812B.c **** 
 475:Core/Src/NOS_LIB_Driver/Src/WS2812B.c ****     /* English lower case */
 476:Core/Src/NOS_LIB_Driver/Src/WS2812B.c ****     case 'u':
 477:Core/Src/NOS_LIB_Driver/Src/WS2812B.c ****         return Eng_u;
 478:Core/Src/NOS_LIB_Driver/Src/WS2812B.c ****         break;
 479:Core/Src/NOS_LIB_Driver/Src/WS2812B.c ****     case 'v':
 480:Core/Src/NOS_LIB_Driver/Src/WS2812B.c ****         return Eng_v;
 481:Core/Src/NOS_LIB_Driver/Src/WS2812B.c ****         break;
 482:Core/Src/NOS_LIB_Driver/Src/WS2812B.c ****     case 'a':
 483:Core/Src/NOS_LIB_Driver/Src/WS2812B.c ****         return Eng_a;
 484:Core/Src/NOS_LIB_Driver/Src/WS2812B.c ****         break;
 485:Core/Src/NOS_LIB_Driver/Src/WS2812B.c ****     case 'c':
 486:Core/Src/NOS_LIB_Driver/Src/WS2812B.c ****         return Eng_c;
 487:Core/Src/NOS_LIB_Driver/Src/WS2812B.c ****         break;
 488:Core/Src/NOS_LIB_Driver/Src/WS2812B.c ****     case 'r':
 489:Core/Src/NOS_LIB_Driver/Src/WS2812B.c ****         return Eng_r;
 490:Core/Src/NOS_LIB_Driver/Src/WS2812B.c ****         break;
 491:Core/Src/NOS_LIB_Driver/Src/WS2812B.c ****         /* English lower case */
 492:Core/Src/NOS_LIB_Driver/Src/WS2812B.c **** 
 493:Core/Src/NOS_LIB_Driver/Src/WS2812B.c ****     case '':
 494:Core/Src/NOS_LIB_Driver/Src/WS2812B.c ****         return Ukr_m;
 495:Core/Src/NOS_LIB_Driver/Src/WS2812B.c ****         break;
 496:Core/Src/NOS_LIB_Driver/Src/WS2812B.c ****     case 'k':
 497:Core/Src/NOS_LIB_Driver/Src/WS2812B.c ****         return Ukr_k;
 498:Core/Src/NOS_LIB_Driver/Src/WS2812B.c ****         break;
 499:Core/Src/NOS_LIB_Driver/Src/WS2812B.c ****     case 'd':
 500:Core/Src/NOS_LIB_Driver/Src/WS2812B.c ****         return Ukr_d;
 501:Core/Src/NOS_LIB_Driver/Src/WS2812B.c ****         break;
 502:Core/Src/NOS_LIB_Driver/Src/WS2812B.c ****     case 'o':
 503:Core/Src/NOS_LIB_Driver/Src/WS2812B.c ****         return Eng_o;
 504:Core/Src/NOS_LIB_Driver/Src/WS2812B.c ****         break;
 505:Core/Src/NOS_LIB_Driver/Src/WS2812B.c ****     case 'g':
ARM GAS  C:\Users\igorn\AppData\Local\Temp\ccHqPtul.s 			page 29


 506:Core/Src/NOS_LIB_Driver/Src/WS2812B.c ****         return Ukr_g;
 507:Core/Src/NOS_LIB_Driver/Src/WS2812B.c ****         break;
 508:Core/Src/NOS_LIB_Driver/Src/WS2812B.c ****     case 'y':
 509:Core/Src/NOS_LIB_Driver/Src/WS2812B.c ****         return Ukr_ch;
 510:Core/Src/NOS_LIB_Driver/Src/WS2812B.c ****         break;
 511:Core/Src/NOS_LIB_Driver/Src/WS2812B.c **** 
 512:Core/Src/NOS_LIB_Driver/Src/WS2812B.c ****     /* Special symvols */
 513:Core/Src/NOS_LIB_Driver/Src/WS2812B.c ****     case ' ':
 514:Core/Src/NOS_LIB_Driver/Src/WS2812B.c ****         return Space;
 515:Core/Src/NOS_LIB_Driver/Src/WS2812B.c ****         break;
 516:Core/Src/NOS_LIB_Driver/Src/WS2812B.c ****     case '+':
 517:Core/Src/NOS_LIB_Driver/Src/WS2812B.c ****         return Plus;
 518:Core/Src/NOS_LIB_Driver/Src/WS2812B.c ****         break;
 519:Core/Src/NOS_LIB_Driver/Src/WS2812B.c ****     case '-':
 520:Core/Src/NOS_LIB_Driver/Src/WS2812B.c ****         return Minus;
 521:Core/Src/NOS_LIB_Driver/Src/WS2812B.c ****         break;
 522:Core/Src/NOS_LIB_Driver/Src/WS2812B.c ****     case '/':
 523:Core/Src/NOS_LIB_Driver/Src/WS2812B.c ****         return Slash;
 524:Core/Src/NOS_LIB_Driver/Src/WS2812B.c ****         break;
 525:Core/Src/NOS_LIB_Driver/Src/WS2812B.c ****     case '*':
 526:Core/Src/NOS_LIB_Driver/Src/WS2812B.c ****         return Celcium;
 527:Core/Src/NOS_LIB_Driver/Src/WS2812B.c ****         break;
 528:Core/Src/NOS_LIB_Driver/Src/WS2812B.c ****     case '.':
 529:Core/Src/NOS_LIB_Driver/Src/WS2812B.c ****         return Dot;
 530:Core/Src/NOS_LIB_Driver/Src/WS2812B.c ****         break;
 531:Core/Src/NOS_LIB_Driver/Src/WS2812B.c ****     case ':':
 532:Core/Src/NOS_LIB_Driver/Src/WS2812B.c ****         return DoubleDot;
 533:Core/Src/NOS_LIB_Driver/Src/WS2812B.c ****         break;
 534:Core/Src/NOS_LIB_Driver/Src/WS2812B.c ****     case '{':
 535:Core/Src/NOS_LIB_Driver/Src/WS2812B.c ****         return FullSym;
 536:Core/Src/NOS_LIB_Driver/Src/WS2812B.c ****         break;
 537:Core/Src/NOS_LIB_Driver/Src/WS2812B.c ****     case '!':
 538:Core/Src/NOS_LIB_Driver/Src/WS2812B.c ****         return Attemption;
 539:Core/Src/NOS_LIB_Driver/Src/WS2812B.c ****         break;
 540:Core/Src/NOS_LIB_Driver/Src/WS2812B.c **** 
 541:Core/Src/NOS_LIB_Driver/Src/WS2812B.c ****     /* Special symvols */
 542:Core/Src/NOS_LIB_Driver/Src/WS2812B.c **** 
 543:Core/Src/NOS_LIB_Driver/Src/WS2812B.c ****     /* Numbers */
 544:Core/Src/NOS_LIB_Driver/Src/WS2812B.c ****     case '0':
 545:Core/Src/NOS_LIB_Driver/Src/WS2812B.c ****         return Num_0;
 546:Core/Src/NOS_LIB_Driver/Src/WS2812B.c ****         break;
 547:Core/Src/NOS_LIB_Driver/Src/WS2812B.c ****     case '1':
 548:Core/Src/NOS_LIB_Driver/Src/WS2812B.c ****         return Num_1;
 549:Core/Src/NOS_LIB_Driver/Src/WS2812B.c ****         break;
 550:Core/Src/NOS_LIB_Driver/Src/WS2812B.c ****     case '2':
 551:Core/Src/NOS_LIB_Driver/Src/WS2812B.c ****         return Num_2;
 552:Core/Src/NOS_LIB_Driver/Src/WS2812B.c ****         break;
 553:Core/Src/NOS_LIB_Driver/Src/WS2812B.c ****     case '3':
 554:Core/Src/NOS_LIB_Driver/Src/WS2812B.c ****         return Num_3;
 555:Core/Src/NOS_LIB_Driver/Src/WS2812B.c ****         break;
 556:Core/Src/NOS_LIB_Driver/Src/WS2812B.c ****     case '4':
 557:Core/Src/NOS_LIB_Driver/Src/WS2812B.c ****         return Num_4;
 558:Core/Src/NOS_LIB_Driver/Src/WS2812B.c ****         break;
 559:Core/Src/NOS_LIB_Driver/Src/WS2812B.c ****     case '5':
 560:Core/Src/NOS_LIB_Driver/Src/WS2812B.c ****         return Num_5;
 561:Core/Src/NOS_LIB_Driver/Src/WS2812B.c ****         break;
 562:Core/Src/NOS_LIB_Driver/Src/WS2812B.c ****     case '6':
ARM GAS  C:\Users\igorn\AppData\Local\Temp\ccHqPtul.s 			page 30


 563:Core/Src/NOS_LIB_Driver/Src/WS2812B.c ****         return Num_6;
 564:Core/Src/NOS_LIB_Driver/Src/WS2812B.c ****         break;
 565:Core/Src/NOS_LIB_Driver/Src/WS2812B.c ****     case '7':
 566:Core/Src/NOS_LIB_Driver/Src/WS2812B.c ****         return Num_7;
 567:Core/Src/NOS_LIB_Driver/Src/WS2812B.c ****         break;
 568:Core/Src/NOS_LIB_Driver/Src/WS2812B.c ****     case '8':
 569:Core/Src/NOS_LIB_Driver/Src/WS2812B.c ****         return Num_8;
 570:Core/Src/NOS_LIB_Driver/Src/WS2812B.c ****         break;
 571:Core/Src/NOS_LIB_Driver/Src/WS2812B.c ****     case '9':
 572:Core/Src/NOS_LIB_Driver/Src/WS2812B.c ****         return Num_9;
 573:Core/Src/NOS_LIB_Driver/Src/WS2812B.c ****         break;
 574:Core/Src/NOS_LIB_Driver/Src/WS2812B.c ****         /* Numbers */
 575:Core/Src/NOS_LIB_Driver/Src/WS2812B.c **** 
 576:Core/Src/NOS_LIB_Driver/Src/WS2812B.c ****     default:
 577:Core/Src/NOS_LIB_Driver/Src/WS2812B.c ****         return Space;
 578:Core/Src/NOS_LIB_Driver/Src/WS2812B.c ****         break;
 579:Core/Src/NOS_LIB_Driver/Src/WS2812B.c ****     }
 580:Core/Src/NOS_LIB_Driver/Src/WS2812B.c **** }
 1010              		.loc 1 580 1 view .LVU249
 1011 007c 10BD     		pop	{r4, pc}
 1012              	.L90:
 403:Core/Src/NOS_LIB_Driver/Src/WS2812B.c ****         break;
 1013              		.loc 1 403 9 is_stmt 1 view .LVU250
 405:Core/Src/NOS_LIB_Driver/Src/WS2812B.c ****         break;
 1014              		.loc 1 405 9 view .LVU251
 405:Core/Src/NOS_LIB_Driver/Src/WS2812B.c ****         break;
 1015              		.loc 1 405 16 is_stmt 0 view .LVU252
 1016 007e 3948     		ldr	r0, .L114+12
 1017 0080 FCE7     		b	.L54
 1018              	.L89:
 406:Core/Src/NOS_LIB_Driver/Src/WS2812B.c ****     case 'E':
 1019              		.loc 1 406 9 is_stmt 1 view .LVU253
 408:Core/Src/NOS_LIB_Driver/Src/WS2812B.c ****         break;
 1020              		.loc 1 408 9 view .LVU254
 408:Core/Src/NOS_LIB_Driver/Src/WS2812B.c ****         break;
 1021              		.loc 1 408 16 is_stmt 0 view .LVU255
 1022 0082 3948     		ldr	r0, .L114+16
 1023 0084 FAE7     		b	.L54
 1024              	.L88:
 409:Core/Src/NOS_LIB_Driver/Src/WS2812B.c ****     case 'F':
 1025              		.loc 1 409 9 is_stmt 1 view .LVU256
 411:Core/Src/NOS_LIB_Driver/Src/WS2812B.c ****         break;
 1026              		.loc 1 411 9 view .LVU257
 411:Core/Src/NOS_LIB_Driver/Src/WS2812B.c ****         break;
 1027              		.loc 1 411 16 is_stmt 0 view .LVU258
 1028 0086 3948     		ldr	r0, .L114+20
 1029 0088 F8E7     		b	.L54
 1030              	.L87:
 412:Core/Src/NOS_LIB_Driver/Src/WS2812B.c ****     case 'G':
 1031              		.loc 1 412 9 is_stmt 1 view .LVU259
 414:Core/Src/NOS_LIB_Driver/Src/WS2812B.c ****         break;
 1032              		.loc 1 414 9 view .LVU260
 414:Core/Src/NOS_LIB_Driver/Src/WS2812B.c ****         break;
 1033              		.loc 1 414 16 is_stmt 0 view .LVU261
 1034 008a 3948     		ldr	r0, .L114+24
 1035 008c F6E7     		b	.L54
 1036              	.L86:
ARM GAS  C:\Users\igorn\AppData\Local\Temp\ccHqPtul.s 			page 31


 415:Core/Src/NOS_LIB_Driver/Src/WS2812B.c ****     case 'H':
 1037              		.loc 1 415 9 is_stmt 1 view .LVU262
 417:Core/Src/NOS_LIB_Driver/Src/WS2812B.c ****         break;
 1038              		.loc 1 417 9 view .LVU263
 417:Core/Src/NOS_LIB_Driver/Src/WS2812B.c ****         break;
 1039              		.loc 1 417 16 is_stmt 0 view .LVU264
 1040 008e 3948     		ldr	r0, .L114+28
 1041 0090 F4E7     		b	.L54
 1042              	.L85:
 418:Core/Src/NOS_LIB_Driver/Src/WS2812B.c ****     case 'I':
 1043              		.loc 1 418 9 is_stmt 1 view .LVU265
 420:Core/Src/NOS_LIB_Driver/Src/WS2812B.c ****         break;
 1044              		.loc 1 420 9 view .LVU266
 420:Core/Src/NOS_LIB_Driver/Src/WS2812B.c ****         break;
 1045              		.loc 1 420 16 is_stmt 0 view .LVU267
 1046 0092 3948     		ldr	r0, .L114+32
 1047 0094 F2E7     		b	.L54
 1048              	.L84:
 421:Core/Src/NOS_LIB_Driver/Src/WS2812B.c ****     case 'J':
 1049              		.loc 1 421 9 is_stmt 1 view .LVU268
 423:Core/Src/NOS_LIB_Driver/Src/WS2812B.c ****         break;
 1050              		.loc 1 423 9 view .LVU269
 423:Core/Src/NOS_LIB_Driver/Src/WS2812B.c ****         break;
 1051              		.loc 1 423 16 is_stmt 0 view .LVU270
 1052 0096 3948     		ldr	r0, .L114+36
 1053 0098 F0E7     		b	.L54
 1054              	.L83:
 424:Core/Src/NOS_LIB_Driver/Src/WS2812B.c ****     case 'K':
 1055              		.loc 1 424 9 is_stmt 1 view .LVU271
 426:Core/Src/NOS_LIB_Driver/Src/WS2812B.c ****         break;
 1056              		.loc 1 426 9 view .LVU272
 426:Core/Src/NOS_LIB_Driver/Src/WS2812B.c ****         break;
 1057              		.loc 1 426 16 is_stmt 0 view .LVU273
 1058 009a 3948     		ldr	r0, .L114+40
 1059 009c EEE7     		b	.L54
 1060              	.L82:
 427:Core/Src/NOS_LIB_Driver/Src/WS2812B.c ****     case 'L':
 1061              		.loc 1 427 9 is_stmt 1 view .LVU274
 429:Core/Src/NOS_LIB_Driver/Src/WS2812B.c ****         break;
 1062              		.loc 1 429 9 view .LVU275
 429:Core/Src/NOS_LIB_Driver/Src/WS2812B.c ****         break;
 1063              		.loc 1 429 16 is_stmt 0 view .LVU276
 1064 009e 3948     		ldr	r0, .L114+44
 1065 00a0 ECE7     		b	.L54
 1066              	.L81:
 430:Core/Src/NOS_LIB_Driver/Src/WS2812B.c ****     case 'M':
 1067              		.loc 1 430 9 is_stmt 1 view .LVU277
 432:Core/Src/NOS_LIB_Driver/Src/WS2812B.c ****         break;
 1068              		.loc 1 432 9 view .LVU278
 432:Core/Src/NOS_LIB_Driver/Src/WS2812B.c ****         break;
 1069              		.loc 1 432 16 is_stmt 0 view .LVU279
 1070 00a2 3948     		ldr	r0, .L114+48
 1071 00a4 EAE7     		b	.L54
 1072              	.L80:
 433:Core/Src/NOS_LIB_Driver/Src/WS2812B.c ****     case 'N':
 1073              		.loc 1 433 9 is_stmt 1 view .LVU280
 435:Core/Src/NOS_LIB_Driver/Src/WS2812B.c ****         break;
ARM GAS  C:\Users\igorn\AppData\Local\Temp\ccHqPtul.s 			page 32


 1074              		.loc 1 435 9 view .LVU281
 435:Core/Src/NOS_LIB_Driver/Src/WS2812B.c ****         break;
 1075              		.loc 1 435 16 is_stmt 0 view .LVU282
 1076 00a6 3948     		ldr	r0, .L114+52
 1077 00a8 E8E7     		b	.L54
 1078              	.L79:
 436:Core/Src/NOS_LIB_Driver/Src/WS2812B.c ****     case 'O':
 1079              		.loc 1 436 9 is_stmt 1 view .LVU283
 438:Core/Src/NOS_LIB_Driver/Src/WS2812B.c ****         break;
 1080              		.loc 1 438 9 view .LVU284
 438:Core/Src/NOS_LIB_Driver/Src/WS2812B.c ****         break;
 1081              		.loc 1 438 16 is_stmt 0 view .LVU285
 1082 00aa 3948     		ldr	r0, .L114+56
 1083 00ac E6E7     		b	.L54
 1084              	.L78:
 439:Core/Src/NOS_LIB_Driver/Src/WS2812B.c ****     case 'P':
 1085              		.loc 1 439 9 is_stmt 1 view .LVU286
 441:Core/Src/NOS_LIB_Driver/Src/WS2812B.c ****         break;
 1086              		.loc 1 441 9 view .LVU287
 441:Core/Src/NOS_LIB_Driver/Src/WS2812B.c ****         break;
 1087              		.loc 1 441 16 is_stmt 0 view .LVU288
 1088 00ae 3948     		ldr	r0, .L114+60
 1089 00b0 E4E7     		b	.L54
 1090              	.L77:
 442:Core/Src/NOS_LIB_Driver/Src/WS2812B.c ****     case 'Q':
 1091              		.loc 1 442 9 is_stmt 1 view .LVU289
 444:Core/Src/NOS_LIB_Driver/Src/WS2812B.c ****         break;
 1092              		.loc 1 444 9 view .LVU290
 444:Core/Src/NOS_LIB_Driver/Src/WS2812B.c ****         break;
 1093              		.loc 1 444 16 is_stmt 0 view .LVU291
 1094 00b2 3948     		ldr	r0, .L114+64
 1095 00b4 E2E7     		b	.L54
 1096              	.L76:
 445:Core/Src/NOS_LIB_Driver/Src/WS2812B.c ****     case 'R':
 1097              		.loc 1 445 9 is_stmt 1 view .LVU292
 447:Core/Src/NOS_LIB_Driver/Src/WS2812B.c ****         break;
 1098              		.loc 1 447 9 view .LVU293
 447:Core/Src/NOS_LIB_Driver/Src/WS2812B.c ****         break;
 1099              		.loc 1 447 16 is_stmt 0 view .LVU294
 1100 00b6 3948     		ldr	r0, .L114+68
 1101 00b8 E0E7     		b	.L54
 1102              	.L75:
 448:Core/Src/NOS_LIB_Driver/Src/WS2812B.c ****     case 'S':
 1103              		.loc 1 448 9 is_stmt 1 view .LVU295
 450:Core/Src/NOS_LIB_Driver/Src/WS2812B.c ****         break;
 1104              		.loc 1 450 9 view .LVU296
 450:Core/Src/NOS_LIB_Driver/Src/WS2812B.c ****         break;
 1105              		.loc 1 450 16 is_stmt 0 view .LVU297
 1106 00ba 3948     		ldr	r0, .L114+72
 1107 00bc DEE7     		b	.L54
 1108              	.L74:
 451:Core/Src/NOS_LIB_Driver/Src/WS2812B.c ****     case 'T':
 1109              		.loc 1 451 9 is_stmt 1 view .LVU298
 453:Core/Src/NOS_LIB_Driver/Src/WS2812B.c ****         break;
 1110              		.loc 1 453 9 view .LVU299
 453:Core/Src/NOS_LIB_Driver/Src/WS2812B.c ****         break;
 1111              		.loc 1 453 16 is_stmt 0 view .LVU300
ARM GAS  C:\Users\igorn\AppData\Local\Temp\ccHqPtul.s 			page 33


 1112 00be 3948     		ldr	r0, .L114+76
 1113 00c0 DCE7     		b	.L54
 1114              	.L73:
 454:Core/Src/NOS_LIB_Driver/Src/WS2812B.c ****     case 'U':
 1115              		.loc 1 454 9 is_stmt 1 view .LVU301
 456:Core/Src/NOS_LIB_Driver/Src/WS2812B.c ****         break;
 1116              		.loc 1 456 9 view .LVU302
 456:Core/Src/NOS_LIB_Driver/Src/WS2812B.c ****         break;
 1117              		.loc 1 456 16 is_stmt 0 view .LVU303
 1118 00c2 3948     		ldr	r0, .L114+80
 1119 00c4 DAE7     		b	.L54
 1120              	.L72:
 457:Core/Src/NOS_LIB_Driver/Src/WS2812B.c ****     case 'V':
 1121              		.loc 1 457 9 is_stmt 1 view .LVU304
 459:Core/Src/NOS_LIB_Driver/Src/WS2812B.c ****         break;
 1122              		.loc 1 459 9 view .LVU305
 459:Core/Src/NOS_LIB_Driver/Src/WS2812B.c ****         break;
 1123              		.loc 1 459 16 is_stmt 0 view .LVU306
 1124 00c6 3948     		ldr	r0, .L114+84
 1125 00c8 D8E7     		b	.L54
 1126              	.L71:
 460:Core/Src/NOS_LIB_Driver/Src/WS2812B.c ****     case 'W':
 1127              		.loc 1 460 9 is_stmt 1 view .LVU307
 462:Core/Src/NOS_LIB_Driver/Src/WS2812B.c ****         break;
 1128              		.loc 1 462 9 view .LVU308
 462:Core/Src/NOS_LIB_Driver/Src/WS2812B.c ****         break;
 1129              		.loc 1 462 16 is_stmt 0 view .LVU309
 1130 00ca 3948     		ldr	r0, .L114+88
 1131 00cc D6E7     		b	.L54
 1132              	.L70:
 463:Core/Src/NOS_LIB_Driver/Src/WS2812B.c ****     case 'X':
 1133              		.loc 1 463 9 is_stmt 1 view .LVU310
 465:Core/Src/NOS_LIB_Driver/Src/WS2812B.c ****         break;
 1134              		.loc 1 465 9 view .LVU311
 465:Core/Src/NOS_LIB_Driver/Src/WS2812B.c ****         break;
 1135              		.loc 1 465 16 is_stmt 0 view .LVU312
 1136 00ce 3948     		ldr	r0, .L114+92
 1137 00d0 D4E7     		b	.L54
 1138              	.L69:
 466:Core/Src/NOS_LIB_Driver/Src/WS2812B.c ****     case 'Y':
 1139              		.loc 1 466 9 is_stmt 1 view .LVU313
 468:Core/Src/NOS_LIB_Driver/Src/WS2812B.c ****         break;
 1140              		.loc 1 468 9 view .LVU314
 468:Core/Src/NOS_LIB_Driver/Src/WS2812B.c ****         break;
 1141              		.loc 1 468 16 is_stmt 0 view .LVU315
 1142 00d2 3948     		ldr	r0, .L114+96
 1143 00d4 D2E7     		b	.L54
 1144              	.L68:
 469:Core/Src/NOS_LIB_Driver/Src/WS2812B.c ****     case 'Z':
 1145              		.loc 1 469 9 is_stmt 1 view .LVU316
 471:Core/Src/NOS_LIB_Driver/Src/WS2812B.c ****         break;
 1146              		.loc 1 471 9 view .LVU317
 471:Core/Src/NOS_LIB_Driver/Src/WS2812B.c ****         break;
 1147              		.loc 1 471 16 is_stmt 0 view .LVU318
 1148 00d6 3948     		ldr	r0, .L114+100
 1149 00d8 D0E7     		b	.L54
 1150              	.L60:
ARM GAS  C:\Users\igorn\AppData\Local\Temp\ccHqPtul.s 			page 34


 472:Core/Src/NOS_LIB_Driver/Src/WS2812B.c ****     /* English upper case */
 1151              		.loc 1 472 9 is_stmt 1 view .LVU319
 477:Core/Src/NOS_LIB_Driver/Src/WS2812B.c ****         break;
 1152              		.loc 1 477 9 view .LVU320
 477:Core/Src/NOS_LIB_Driver/Src/WS2812B.c ****         break;
 1153              		.loc 1 477 16 is_stmt 0 view .LVU321
 1154 00da 3948     		ldr	r0, .L114+104
 1155 00dc CEE7     		b	.L54
 1156              	.L59:
 478:Core/Src/NOS_LIB_Driver/Src/WS2812B.c ****     case 'v':
 1157              		.loc 1 478 9 is_stmt 1 view .LVU322
 480:Core/Src/NOS_LIB_Driver/Src/WS2812B.c ****         break;
 1158              		.loc 1 480 9 view .LVU323
 480:Core/Src/NOS_LIB_Driver/Src/WS2812B.c ****         break;
 1159              		.loc 1 480 16 is_stmt 0 view .LVU324
 1160 00de 3948     		ldr	r0, .L114+108
 1161 00e0 CCE7     		b	.L54
 1162              	.L67:
 481:Core/Src/NOS_LIB_Driver/Src/WS2812B.c ****     case 'a':
 1163              		.loc 1 481 9 is_stmt 1 view .LVU325
 483:Core/Src/NOS_LIB_Driver/Src/WS2812B.c ****         break;
 1164              		.loc 1 483 9 view .LVU326
 483:Core/Src/NOS_LIB_Driver/Src/WS2812B.c ****         break;
 1165              		.loc 1 483 16 is_stmt 0 view .LVU327
 1166 00e2 3948     		ldr	r0, .L114+112
 1167 00e4 CAE7     		b	.L54
 1168              	.L66:
 484:Core/Src/NOS_LIB_Driver/Src/WS2812B.c ****     case 'c':
 1169              		.loc 1 484 9 is_stmt 1 view .LVU328
 486:Core/Src/NOS_LIB_Driver/Src/WS2812B.c ****         break;
 1170              		.loc 1 486 9 view .LVU329
 486:Core/Src/NOS_LIB_Driver/Src/WS2812B.c ****         break;
 1171              		.loc 1 486 16 is_stmt 0 view .LVU330
 1172 00e6 3948     		ldr	r0, .L114+116
 1173 00e8 C8E7     		b	.L54
 1174              	.L61:
 487:Core/Src/NOS_LIB_Driver/Src/WS2812B.c ****     case 'r':
 1175              		.loc 1 487 9 is_stmt 1 view .LVU331
 489:Core/Src/NOS_LIB_Driver/Src/WS2812B.c ****         break;
 1176              		.loc 1 489 9 view .LVU332
 489:Core/Src/NOS_LIB_Driver/Src/WS2812B.c ****         break;
 1177              		.loc 1 489 16 is_stmt 0 view .LVU333
 1178 00ea 3948     		ldr	r0, .L114+120
 1179 00ec C6E7     		b	.L54
 1180              	.L63:
 495:Core/Src/NOS_LIB_Driver/Src/WS2812B.c ****     case 'k':
 1181              		.loc 1 495 9 is_stmt 1 view .LVU334
 497:Core/Src/NOS_LIB_Driver/Src/WS2812B.c ****         break;
 1182              		.loc 1 497 9 view .LVU335
 497:Core/Src/NOS_LIB_Driver/Src/WS2812B.c ****         break;
 1183              		.loc 1 497 16 is_stmt 0 view .LVU336
 1184 00ee 3948     		ldr	r0, .L114+124
 1185 00f0 C4E7     		b	.L54
 1186              	.L65:
 498:Core/Src/NOS_LIB_Driver/Src/WS2812B.c ****     case 'd':
 1187              		.loc 1 498 9 is_stmt 1 view .LVU337
 500:Core/Src/NOS_LIB_Driver/Src/WS2812B.c ****         break;
ARM GAS  C:\Users\igorn\AppData\Local\Temp\ccHqPtul.s 			page 35


 1188              		.loc 1 500 9 view .LVU338
 500:Core/Src/NOS_LIB_Driver/Src/WS2812B.c ****         break;
 1189              		.loc 1 500 16 is_stmt 0 view .LVU339
 1190 00f2 3948     		ldr	r0, .L114+128
 1191 00f4 C2E7     		b	.L54
 1192              	.L62:
 501:Core/Src/NOS_LIB_Driver/Src/WS2812B.c ****     case 'o':
 1193              		.loc 1 501 9 is_stmt 1 view .LVU340
 503:Core/Src/NOS_LIB_Driver/Src/WS2812B.c ****         break;
 1194              		.loc 1 503 9 view .LVU341
 503:Core/Src/NOS_LIB_Driver/Src/WS2812B.c ****         break;
 1195              		.loc 1 503 16 is_stmt 0 view .LVU342
 1196 00f6 3948     		ldr	r0, .L114+132
 1197 00f8 C0E7     		b	.L54
 1198              	.L64:
 504:Core/Src/NOS_LIB_Driver/Src/WS2812B.c ****     case 'g':
 1199              		.loc 1 504 9 is_stmt 1 view .LVU343
 506:Core/Src/NOS_LIB_Driver/Src/WS2812B.c ****         break;
 1200              		.loc 1 506 9 view .LVU344
 506:Core/Src/NOS_LIB_Driver/Src/WS2812B.c ****         break;
 1201              		.loc 1 506 16 is_stmt 0 view .LVU345
 1202 00fa 3948     		ldr	r0, .L114+136
 1203 00fc BEE7     		b	.L54
 1204              	.L58:
 507:Core/Src/NOS_LIB_Driver/Src/WS2812B.c ****     case 'y':
 1205              		.loc 1 507 9 is_stmt 1 view .LVU346
 509:Core/Src/NOS_LIB_Driver/Src/WS2812B.c ****         break;
 1206              		.loc 1 509 9 view .LVU347
 509:Core/Src/NOS_LIB_Driver/Src/WS2812B.c ****         break;
 1207              		.loc 1 509 16 is_stmt 0 view .LVU348
 1208 00fe 3948     		ldr	r0, .L114+140
 1209 0100 BCE7     		b	.L54
 1210              	.L111:
 510:Core/Src/NOS_LIB_Driver/Src/WS2812B.c **** 
 1211              		.loc 1 510 9 is_stmt 1 view .LVU349
 514:Core/Src/NOS_LIB_Driver/Src/WS2812B.c ****         break;
 1212              		.loc 1 514 9 view .LVU350
 514:Core/Src/NOS_LIB_Driver/Src/WS2812B.c ****         break;
 1213              		.loc 1 514 16 is_stmt 0 view .LVU351
 1214 0102 3948     		ldr	r0, .L114+144
 1215 0104 BAE7     		b	.L54
 1216              	.L108:
 515:Core/Src/NOS_LIB_Driver/Src/WS2812B.c ****     case '+':
 1217              		.loc 1 515 9 is_stmt 1 view .LVU352
 517:Core/Src/NOS_LIB_Driver/Src/WS2812B.c ****         break;
 1218              		.loc 1 517 9 view .LVU353
 517:Core/Src/NOS_LIB_Driver/Src/WS2812B.c ****         break;
 1219              		.loc 1 517 16 is_stmt 0 view .LVU354
 1220 0106 3948     		ldr	r0, .L114+148
 1221 0108 B8E7     		b	.L54
 1222              	.L107:
 518:Core/Src/NOS_LIB_Driver/Src/WS2812B.c ****     case '-':
 1223              		.loc 1 518 9 is_stmt 1 view .LVU355
 520:Core/Src/NOS_LIB_Driver/Src/WS2812B.c ****         break;
 1224              		.loc 1 520 9 view .LVU356
 520:Core/Src/NOS_LIB_Driver/Src/WS2812B.c ****         break;
 1225              		.loc 1 520 16 is_stmt 0 view .LVU357
ARM GAS  C:\Users\igorn\AppData\Local\Temp\ccHqPtul.s 			page 36


 1226 010a 3948     		ldr	r0, .L114+152
 1227 010c B6E7     		b	.L54
 1228              	.L105:
 521:Core/Src/NOS_LIB_Driver/Src/WS2812B.c ****     case '/':
 1229              		.loc 1 521 9 is_stmt 1 view .LVU358
 523:Core/Src/NOS_LIB_Driver/Src/WS2812B.c ****         break;
 1230              		.loc 1 523 9 view .LVU359
 523:Core/Src/NOS_LIB_Driver/Src/WS2812B.c ****         break;
 1231              		.loc 1 523 16 is_stmt 0 view .LVU360
 1232 010e 3948     		ldr	r0, .L114+156
 1233 0110 B4E7     		b	.L54
 1234              	.L109:
 524:Core/Src/NOS_LIB_Driver/Src/WS2812B.c ****     case '*':
 1235              		.loc 1 524 9 is_stmt 1 view .LVU361
 526:Core/Src/NOS_LIB_Driver/Src/WS2812B.c ****         break;
 1236              		.loc 1 526 9 view .LVU362
 526:Core/Src/NOS_LIB_Driver/Src/WS2812B.c ****         break;
 1237              		.loc 1 526 16 is_stmt 0 view .LVU363
 1238 0112 3948     		ldr	r0, .L114+160
 1239 0114 B2E7     		b	.L54
 1240              	.L106:
 527:Core/Src/NOS_LIB_Driver/Src/WS2812B.c ****     case '.':
 1241              		.loc 1 527 9 is_stmt 1 view .LVU364
 529:Core/Src/NOS_LIB_Driver/Src/WS2812B.c ****         break;
 1242              		.loc 1 529 9 view .LVU365
 529:Core/Src/NOS_LIB_Driver/Src/WS2812B.c ****         break;
 1243              		.loc 1 529 16 is_stmt 0 view .LVU366
 1244 0116 3948     		ldr	r0, .L114+164
 1245 0118 B0E7     		b	.L54
 1246              	.L94:
 530:Core/Src/NOS_LIB_Driver/Src/WS2812B.c ****     case ':':
 1247              		.loc 1 530 9 is_stmt 1 view .LVU367
 532:Core/Src/NOS_LIB_Driver/Src/WS2812B.c ****         break;
 1248              		.loc 1 532 9 view .LVU368
 532:Core/Src/NOS_LIB_Driver/Src/WS2812B.c ****         break;
 1249              		.loc 1 532 16 is_stmt 0 view .LVU369
 1250 011a 3948     		ldr	r0, .L114+168
 1251 011c AEE7     		b	.L54
 1252              	.L56:
 533:Core/Src/NOS_LIB_Driver/Src/WS2812B.c ****     case '{':
 1253              		.loc 1 533 9 is_stmt 1 view .LVU370
 535:Core/Src/NOS_LIB_Driver/Src/WS2812B.c ****         break;
 1254              		.loc 1 535 9 view .LVU371
 535:Core/Src/NOS_LIB_Driver/Src/WS2812B.c ****         break;
 1255              		.loc 1 535 16 is_stmt 0 view .LVU372
 1256 011e 3948     		ldr	r0, .L114+172
 1257 0120 ACE7     		b	.L54
 1258              	.L110:
 536:Core/Src/NOS_LIB_Driver/Src/WS2812B.c ****     case '!':
 1259              		.loc 1 536 9 is_stmt 1 view .LVU373
 538:Core/Src/NOS_LIB_Driver/Src/WS2812B.c ****         break;
 1260              		.loc 1 538 9 view .LVU374
 538:Core/Src/NOS_LIB_Driver/Src/WS2812B.c ****         break;
 1261              		.loc 1 538 16 is_stmt 0 view .LVU375
 1262 0122 3948     		ldr	r0, .L114+176
 1263 0124 AAE7     		b	.L54
 1264              	.L104:
ARM GAS  C:\Users\igorn\AppData\Local\Temp\ccHqPtul.s 			page 37


 539:Core/Src/NOS_LIB_Driver/Src/WS2812B.c **** 
 1265              		.loc 1 539 9 is_stmt 1 view .LVU376
 545:Core/Src/NOS_LIB_Driver/Src/WS2812B.c ****         break;
 1266              		.loc 1 545 9 view .LVU377
 545:Core/Src/NOS_LIB_Driver/Src/WS2812B.c ****         break;
 1267              		.loc 1 545 16 is_stmt 0 view .LVU378
 1268 0126 3948     		ldr	r0, .L114+180
 1269 0128 A8E7     		b	.L54
 1270              	.L103:
 546:Core/Src/NOS_LIB_Driver/Src/WS2812B.c ****     case '1':
 1271              		.loc 1 546 9 is_stmt 1 view .LVU379
 548:Core/Src/NOS_LIB_Driver/Src/WS2812B.c ****         break;
 1272              		.loc 1 548 9 view .LVU380
 548:Core/Src/NOS_LIB_Driver/Src/WS2812B.c ****         break;
 1273              		.loc 1 548 16 is_stmt 0 view .LVU381
 1274 012a 3948     		ldr	r0, .L114+184
 1275 012c A6E7     		b	.L54
 1276              	.L102:
 549:Core/Src/NOS_LIB_Driver/Src/WS2812B.c ****     case '2':
 1277              		.loc 1 549 9 is_stmt 1 view .LVU382
 551:Core/Src/NOS_LIB_Driver/Src/WS2812B.c ****         break;
 1278              		.loc 1 551 9 view .LVU383
 551:Core/Src/NOS_LIB_Driver/Src/WS2812B.c ****         break;
 1279              		.loc 1 551 16 is_stmt 0 view .LVU384
 1280 012e 3948     		ldr	r0, .L114+188
 1281 0130 A4E7     		b	.L54
 1282              	.L101:
 552:Core/Src/NOS_LIB_Driver/Src/WS2812B.c ****     case '3':
 1283              		.loc 1 552 9 is_stmt 1 view .LVU385
 554:Core/Src/NOS_LIB_Driver/Src/WS2812B.c ****         break;
 1284              		.loc 1 554 9 view .LVU386
 554:Core/Src/NOS_LIB_Driver/Src/WS2812B.c ****         break;
 1285              		.loc 1 554 16 is_stmt 0 view .LVU387
 1286 0132 3948     		ldr	r0, .L114+192
 1287 0134 A2E7     		b	.L54
 1288              	.L100:
 555:Core/Src/NOS_LIB_Driver/Src/WS2812B.c ****     case '4':
 1289              		.loc 1 555 9 is_stmt 1 view .LVU388
 557:Core/Src/NOS_LIB_Driver/Src/WS2812B.c ****         break;
 1290              		.loc 1 557 9 view .LVU389
 557:Core/Src/NOS_LIB_Driver/Src/WS2812B.c ****         break;
 1291              		.loc 1 557 16 is_stmt 0 view .LVU390
 1292 0136 3948     		ldr	r0, .L114+196
 1293 0138 A0E7     		b	.L54
 1294              	.L99:
 558:Core/Src/NOS_LIB_Driver/Src/WS2812B.c ****     case '5':
 1295              		.loc 1 558 9 is_stmt 1 view .LVU391
 560:Core/Src/NOS_LIB_Driver/Src/WS2812B.c ****         break;
 1296              		.loc 1 560 9 view .LVU392
 560:Core/Src/NOS_LIB_Driver/Src/WS2812B.c ****         break;
 1297              		.loc 1 560 16 is_stmt 0 view .LVU393
 1298 013a 3948     		ldr	r0, .L114+200
 1299 013c 9EE7     		b	.L54
 1300              	.L98:
 561:Core/Src/NOS_LIB_Driver/Src/WS2812B.c ****     case '6':
 1301              		.loc 1 561 9 is_stmt 1 view .LVU394
 563:Core/Src/NOS_LIB_Driver/Src/WS2812B.c ****         break;
ARM GAS  C:\Users\igorn\AppData\Local\Temp\ccHqPtul.s 			page 38


 1302              		.loc 1 563 9 view .LVU395
 563:Core/Src/NOS_LIB_Driver/Src/WS2812B.c ****         break;
 1303              		.loc 1 563 16 is_stmt 0 view .LVU396
 1304 013e 3948     		ldr	r0, .L114+204
 1305 0140 9CE7     		b	.L54
 1306              	.L97:
 564:Core/Src/NOS_LIB_Driver/Src/WS2812B.c ****     case '7':
 1307              		.loc 1 564 9 is_stmt 1 view .LVU397
 566:Core/Src/NOS_LIB_Driver/Src/WS2812B.c ****         break;
 1308              		.loc 1 566 9 view .LVU398
 566:Core/Src/NOS_LIB_Driver/Src/WS2812B.c ****         break;
 1309              		.loc 1 566 16 is_stmt 0 view .LVU399
 1310 0142 3948     		ldr	r0, .L114+208
 1311 0144 9AE7     		b	.L54
 1312              	.L96:
 567:Core/Src/NOS_LIB_Driver/Src/WS2812B.c ****     case '8':
 1313              		.loc 1 567 9 is_stmt 1 view .LVU400
 569:Core/Src/NOS_LIB_Driver/Src/WS2812B.c ****         break;
 1314              		.loc 1 569 9 view .LVU401
 569:Core/Src/NOS_LIB_Driver/Src/WS2812B.c ****         break;
 1315              		.loc 1 569 16 is_stmt 0 view .LVU402
 1316 0146 3948     		ldr	r0, .L114+212
 1317 0148 98E7     		b	.L54
 1318              	.L95:
 570:Core/Src/NOS_LIB_Driver/Src/WS2812B.c ****     case '9':
 1319              		.loc 1 570 9 is_stmt 1 view .LVU403
 572:Core/Src/NOS_LIB_Driver/Src/WS2812B.c ****         break;
 1320              		.loc 1 572 9 view .LVU404
 572:Core/Src/NOS_LIB_Driver/Src/WS2812B.c ****         break;
 1321              		.loc 1 572 16 is_stmt 0 view .LVU405
 1322 014a 3948     		ldr	r0, .L114+216
 1323 014c 96E7     		b	.L54
 1324              	.L55:
 573:Core/Src/NOS_LIB_Driver/Src/WS2812B.c ****         /* Numbers */
 1325              		.loc 1 573 9 is_stmt 1 view .LVU406
 577:Core/Src/NOS_LIB_Driver/Src/WS2812B.c ****         break;
 1326              		.loc 1 577 9 view .LVU407
 577:Core/Src/NOS_LIB_Driver/Src/WS2812B.c ****         break;
 1327              		.loc 1 577 16 is_stmt 0 view .LVU408
 1328 014e 2648     		ldr	r0, .L114+144
 1329 0150 94E7     		b	.L54
 1330              	.L112:
 399:Core/Src/NOS_LIB_Driver/Src/WS2812B.c ****         break;
 1331              		.loc 1 399 16 view .LVU409
 1332 0152 3848     		ldr	r0, .L114+220
 578:Core/Src/NOS_LIB_Driver/Src/WS2812B.c ****     }
 1333              		.loc 1 578 9 is_stmt 1 view .LVU410
 1334 0154 92E7     		b	.L54
 1335              	.L115:
 1336 0156 00BF     		.align	2
 1337              	.L114:
 1338 0158 00000000 		.word	.LC0
 1339 015c 00000000 		.word	Eng_A
 1340 0160 00000000 		.word	Eng_C
 1341 0164 00000000 		.word	Eng_D
 1342 0168 00000000 		.word	Eng_E
 1343 016c 00000000 		.word	Eng_F
ARM GAS  C:\Users\igorn\AppData\Local\Temp\ccHqPtul.s 			page 39


 1344 0170 00000000 		.word	Eng_G
 1345 0174 00000000 		.word	Eng_H
 1346 0178 00000000 		.word	Eng_I
 1347 017c 00000000 		.word	Eng_J
 1348 0180 00000000 		.word	Eng_K
 1349 0184 00000000 		.word	Eng_L
 1350 0188 00000000 		.word	Eng_M
 1351 018c 00000000 		.word	Eng_N
 1352 0190 00000000 		.word	Eng_O
 1353 0194 00000000 		.word	Eng_P
 1354 0198 00000000 		.word	Eng_Q
 1355 019c 00000000 		.word	Eng_R
 1356 01a0 00000000 		.word	Eng_S
 1357 01a4 00000000 		.word	Eng_T
 1358 01a8 00000000 		.word	Eng_U
 1359 01ac 00000000 		.word	Eng_V
 1360 01b0 00000000 		.word	Eng_W
 1361 01b4 00000000 		.word	Eng_X
 1362 01b8 00000000 		.word	Eng_Y
 1363 01bc 00000000 		.word	Eng_Z
 1364 01c0 00000000 		.word	Eng_u
 1365 01c4 00000000 		.word	Eng_v
 1366 01c8 00000000 		.word	Eng_a
 1367 01cc 00000000 		.word	Eng_c
 1368 01d0 00000000 		.word	Eng_r
 1369 01d4 00000000 		.word	Ukr_k
 1370 01d8 00000000 		.word	Ukr_d
 1371 01dc 00000000 		.word	Eng_o
 1372 01e0 00000000 		.word	Ukr_g
 1373 01e4 00000000 		.word	Ukr_ch
 1374 01e8 00000000 		.word	Space
 1375 01ec 00000000 		.word	Plus
 1376 01f0 00000000 		.word	Minus
 1377 01f4 00000000 		.word	Slash
 1378 01f8 00000000 		.word	Celcium
 1379 01fc 00000000 		.word	Dot
 1380 0200 00000000 		.word	DoubleDot
 1381 0204 00000000 		.word	FullSym
 1382 0208 00000000 		.word	Attemption
 1383 020c 00000000 		.word	Num_0
 1384 0210 00000000 		.word	Num_1
 1385 0214 00000000 		.word	Num_2
 1386 0218 00000000 		.word	Num_3
 1387 021c 00000000 		.word	Num_4
 1388 0220 00000000 		.word	Num_5
 1389 0224 00000000 		.word	Num_6
 1390 0228 00000000 		.word	Num_7
 1391 022c 00000000 		.word	Num_8
 1392 0230 00000000 		.word	Num_9
 1393 0234 00000000 		.word	Eng_B
 1394              		.cfi_endproc
 1395              	.LFE150:
 1397              		.section	.text.NOS_WS2812B_Matrix_SetSymvol,"ax",%progbits
 1398              		.align	1
 1399              		.global	NOS_WS2812B_Matrix_SetSymvol
 1400              		.syntax unified
 1401              		.thumb
ARM GAS  C:\Users\igorn\AppData\Local\Temp\ccHqPtul.s 			page 40


 1402              		.thumb_func
 1404              	NOS_WS2812B_Matrix_SetSymvol:
 1405              	.LVL83:
 1406              	.LFB136:
 102:Core/Src/NOS_LIB_Driver/Src/WS2812B.c ****     uint8_t *buff = Symvol_GetBitMap(sym);
 1407              		.loc 1 102 1 view -0
 1408              		.cfi_startproc
 1409              		@ args = 0, pretend = 0, frame = 0
 1410              		@ frame_needed = 0, uses_anonymous_args = 0
 102:Core/Src/NOS_LIB_Driver/Src/WS2812B.c ****     uint8_t *buff = Symvol_GetBitMap(sym);
 1411              		.loc 1 102 1 is_stmt 0 view .LVU412
 1412 0000 38B5     		push	{r3, r4, r5, lr}
 1413              		.cfi_def_cfa_offset 16
 1414              		.cfi_offset 3, -16
 1415              		.cfi_offset 4, -12
 1416              		.cfi_offset 5, -8
 1417              		.cfi_offset 14, -4
 1418 0002 0546     		mov	r5, r0
 1419 0004 1446     		mov	r4, r2
 103:Core/Src/NOS_LIB_Driver/Src/WS2812B.c ****     for (int i = 0; i < 5; i++)
 1420              		.loc 1 103 5 is_stmt 1 view .LVU413
 103:Core/Src/NOS_LIB_Driver/Src/WS2812B.c ****     for (int i = 0; i < 5; i++)
 1421              		.loc 1 103 21 is_stmt 0 view .LVU414
 1422 0006 0846     		mov	r0, r1
 1423              	.LVL84:
 103:Core/Src/NOS_LIB_Driver/Src/WS2812B.c ****     for (int i = 0; i < 5; i++)
 1424              		.loc 1 103 21 view .LVU415
 1425 0008 FFF7FEFF 		bl	Symvol_GetBitMap
 1426              	.LVL85:
 104:Core/Src/NOS_LIB_Driver/Src/WS2812B.c ****     {
 1427              		.loc 1 104 5 is_stmt 1 view .LVU416
 1428              	.LBB7:
 104:Core/Src/NOS_LIB_Driver/Src/WS2812B.c ****     {
 1429              		.loc 1 104 10 view .LVU417
 104:Core/Src/NOS_LIB_Driver/Src/WS2812B.c ****     {
 1430              		.loc 1 104 14 is_stmt 0 view .LVU418
 1431 000c 0023     		movs	r3, #0
 104:Core/Src/NOS_LIB_Driver/Src/WS2812B.c ****     {
 1432              		.loc 1 104 5 view .LVU419
 1433 000e 06E0     		b	.L117
 1434              	.LVL86:
 1435              	.L118:
 106:Core/Src/NOS_LIB_Driver/Src/WS2812B.c ****     }
 1436              		.loc 1 106 9 is_stmt 1 discriminator 3 view .LVU420
 106:Core/Src/NOS_LIB_Driver/Src/WS2812B.c ****     }
 1437              		.loc 1 106 15 is_stmt 0 discriminator 3 view .LVU421
 1438 0010 6969     		ldr	r1, [r5, #20]
 106:Core/Src/NOS_LIB_Driver/Src/WS2812B.c ****     }
 1439              		.loc 1 106 24 discriminator 3 view .LVU422
 1440 0012 04EB8402 		add	r2, r4, r4, lsl #2
 1441 0016 1144     		add	r1, r1, r2
 106:Core/Src/NOS_LIB_Driver/Src/WS2812B.c ****     }
 1442              		.loc 1 106 44 discriminator 3 view .LVU423
 1443 0018 C25C     		ldrb	r2, [r0, r3]	@ zero_extendqisi2
 106:Core/Src/NOS_LIB_Driver/Src/WS2812B.c ****     }
 1444              		.loc 1 106 38 discriminator 3 view .LVU424
 1445 001a CA54     		strb	r2, [r1, r3]
ARM GAS  C:\Users\igorn\AppData\Local\Temp\ccHqPtul.s 			page 41


 104:Core/Src/NOS_LIB_Driver/Src/WS2812B.c ****     {
 1446              		.loc 1 104 29 is_stmt 1 discriminator 3 view .LVU425
 1447 001c 0133     		adds	r3, r3, #1
 1448              	.LVL87:
 1449              	.L117:
 104:Core/Src/NOS_LIB_Driver/Src/WS2812B.c ****     {
 1450              		.loc 1 104 23 discriminator 1 view .LVU426
 1451 001e 042B     		cmp	r3, #4
 1452 0020 F6DD     		ble	.L118
 1453              	.LBE7:
 108:Core/Src/NOS_LIB_Driver/Src/WS2812B.c **** 
 1454              		.loc 1 108 1 is_stmt 0 view .LVU427
 1455 0022 38BD     		pop	{r3, r4, r5, pc}
 108:Core/Src/NOS_LIB_Driver/Src/WS2812B.c **** 
 1456              		.loc 1 108 1 view .LVU428
 1457              		.cfi_endproc
 1458              	.LFE136:
 1460              		.section	.text.NOS_WS2812B_Matrix_PrintStaticString,"ax",%progbits
 1461              		.align	1
 1462              		.global	NOS_WS2812B_Matrix_PrintStaticString
 1463              		.syntax unified
 1464              		.thumb
 1465              		.thumb_func
 1467              	NOS_WS2812B_Matrix_PrintStaticString:
 1468              	.LVL88:
 1469              	.LFB137:
 111:Core/Src/NOS_LIB_Driver/Src/WS2812B.c ****     for (int i = startpos; i < startpos + lenght; i++)
 1470              		.loc 1 111 1 is_stmt 1 view -0
 1471              		.cfi_startproc
 1472              		@ args = 0, pretend = 0, frame = 0
 1473              		@ frame_needed = 0, uses_anonymous_args = 0
 111:Core/Src/NOS_LIB_Driver/Src/WS2812B.c ****     for (int i = startpos; i < startpos + lenght; i++)
 1474              		.loc 1 111 1 is_stmt 0 view .LVU430
 1475 0000 2DE9F041 		push	{r4, r5, r6, r7, r8, lr}
 1476              		.cfi_def_cfa_offset 24
 1477              		.cfi_offset 4, -24
 1478              		.cfi_offset 5, -20
 1479              		.cfi_offset 6, -16
 1480              		.cfi_offset 7, -12
 1481              		.cfi_offset 8, -8
 1482              		.cfi_offset 14, -4
 1483 0004 8046     		mov	r8, r0
 1484 0006 0F46     		mov	r7, r1
 1485 0008 1546     		mov	r5, r2
 1486 000a 1E46     		mov	r6, r3
 112:Core/Src/NOS_LIB_Driver/Src/WS2812B.c ****     {
 1487              		.loc 1 112 5 is_stmt 1 view .LVU431
 1488              	.LBB8:
 112:Core/Src/NOS_LIB_Driver/Src/WS2812B.c ****     {
 1489              		.loc 1 112 10 view .LVU432
 1490              	.LVL89:
 112:Core/Src/NOS_LIB_Driver/Src/WS2812B.c ****     {
 1491              		.loc 1 112 14 is_stmt 0 view .LVU433
 1492 000c 1446     		mov	r4, r2
 112:Core/Src/NOS_LIB_Driver/Src/WS2812B.c ****     {
 1493              		.loc 1 112 5 view .LVU434
 1494 000e 08E0     		b	.L121
ARM GAS  C:\Users\igorn\AppData\Local\Temp\ccHqPtul.s 			page 42


 1495              	.LVL90:
 1496              	.L122:
 114:Core/Src/NOS_LIB_Driver/Src/WS2812B.c ****     }
 1497              		.loc 1 114 9 is_stmt 1 discriminator 3 view .LVU435
 114:Core/Src/NOS_LIB_Driver/Src/WS2812B.c ****     }
 1498              		.loc 1 114 55 is_stmt 0 discriminator 3 view .LVU436
 1499 0010 A4EB050C 		sub	ip, r4, r5
 114:Core/Src/NOS_LIB_Driver/Src/WS2812B.c ****     }
 1500              		.loc 1 114 9 discriminator 3 view .LVU437
 1501 0014 E2B2     		uxtb	r2, r4
 1502 0016 17F80C10 		ldrb	r1, [r7, ip]	@ zero_extendqisi2
 1503 001a 4046     		mov	r0, r8
 1504 001c FFF7FEFF 		bl	NOS_WS2812B_Matrix_SetSymvol
 1505              	.LVL91:
 112:Core/Src/NOS_LIB_Driver/Src/WS2812B.c ****     {
 1506              		.loc 1 112 52 is_stmt 1 discriminator 3 view .LVU438
 1507 0020 0134     		adds	r4, r4, #1
 1508              	.LVL92:
 1509              	.L121:
 112:Core/Src/NOS_LIB_Driver/Src/WS2812B.c ****     {
 1510              		.loc 1 112 30 discriminator 1 view .LVU439
 112:Core/Src/NOS_LIB_Driver/Src/WS2812B.c ****     {
 1511              		.loc 1 112 41 is_stmt 0 discriminator 1 view .LVU440
 1512 0022 7219     		adds	r2, r6, r5
 112:Core/Src/NOS_LIB_Driver/Src/WS2812B.c ****     {
 1513              		.loc 1 112 30 discriminator 1 view .LVU441
 1514 0024 A242     		cmp	r2, r4
 1515 0026 F3DC     		bgt	.L122
 112:Core/Src/NOS_LIB_Driver/Src/WS2812B.c ****     {
 1516              		.loc 1 112 30 discriminator 1 view .LVU442
 1517              	.LBE8:
 116:Core/Src/NOS_LIB_Driver/Src/WS2812B.c **** 
 1518              		.loc 1 116 1 view .LVU443
 1519 0028 BDE8F081 		pop	{r4, r5, r6, r7, r8, pc}
 116:Core/Src/NOS_LIB_Driver/Src/WS2812B.c **** 
 1520              		.loc 1 116 1 view .LVU444
 1521              		.cfi_endproc
 1522              	.LFE137:
 1524              		.section	.text.NOS_WS2812B_Matrix_PrintDynamicString,"ax",%progbits
 1525              		.align	1
 1526              		.global	NOS_WS2812B_Matrix_PrintDynamicString
 1527              		.syntax unified
 1528              		.thumb
 1529              		.thumb_func
 1531              	NOS_WS2812B_Matrix_PrintDynamicString:
 1532              	.LVL93:
 1533              	.LFB138:
 119:Core/Src/NOS_LIB_Driver/Src/WS2812B.c **** 
 1534              		.loc 1 119 1 is_stmt 1 view -0
 1535              		.cfi_startproc
 1536              		@ args = 4, pretend = 0, frame = 0
 1537              		@ frame_needed = 0, uses_anonymous_args = 0
 119:Core/Src/NOS_LIB_Driver/Src/WS2812B.c **** 
 1538              		.loc 1 119 1 is_stmt 0 view .LVU446
 1539 0000 2DE9F041 		push	{r4, r5, r6, r7, r8, lr}
 1540              		.cfi_def_cfa_offset 24
 1541              		.cfi_offset 4, -24
ARM GAS  C:\Users\igorn\AppData\Local\Temp\ccHqPtul.s 			page 43


 1542              		.cfi_offset 5, -20
 1543              		.cfi_offset 6, -16
 1544              		.cfi_offset 7, -12
 1545              		.cfi_offset 8, -8
 1546              		.cfi_offset 14, -4
 1547 0004 0746     		mov	r7, r0
 1548 0006 0E46     		mov	r6, r1
 1549 0008 1546     		mov	r5, r2
 1550 000a 9DF81880 		ldrb	r8, [sp, #24]	@ zero_extendqisi2
 121:Core/Src/NOS_LIB_Driver/Src/WS2812B.c ****     {
 1551              		.loc 1 121 5 is_stmt 1 view .LVU447
 1552              	.LBB9:
 121:Core/Src/NOS_LIB_Driver/Src/WS2812B.c ****     {
 1553              		.loc 1 121 10 view .LVU448
 1554              	.LVL94:
 121:Core/Src/NOS_LIB_Driver/Src/WS2812B.c ****     {
 1555              		.loc 1 121 14 is_stmt 0 view .LVU449
 1556 000e 0024     		movs	r4, #0
 121:Core/Src/NOS_LIB_Driver/Src/WS2812B.c ****     {
 1557              		.loc 1 121 5 view .LVU450
 1558 0010 07E0     		b	.L125
 1559              	.LVL95:
 1560              	.L126:
 123:Core/Src/NOS_LIB_Driver/Src/WS2812B.c ****     }
 1561              		.loc 1 123 9 is_stmt 1 discriminator 3 view .LVU451
 123:Core/Src/NOS_LIB_Driver/Src/WS2812B.c ****     }
 1562              		.loc 1 123 55 is_stmt 0 discriminator 3 view .LVU452
 1563 0012 08EB0403 		add	r3, r8, r4
 123:Core/Src/NOS_LIB_Driver/Src/WS2812B.c ****     }
 1564              		.loc 1 123 9 discriminator 3 view .LVU453
 1565 0016 E2B2     		uxtb	r2, r4
 1566 0018 F15C     		ldrb	r1, [r6, r3]	@ zero_extendqisi2
 1567 001a 3846     		mov	r0, r7
 1568 001c FFF7FEFF 		bl	NOS_WS2812B_Matrix_SetSymvol
 1569              	.LVL96:
 121:Core/Src/NOS_LIB_Driver/Src/WS2812B.c ****     {
 1570              		.loc 1 121 34 is_stmt 1 discriminator 3 view .LVU454
 1571 0020 0134     		adds	r4, r4, #1
 1572              	.LVL97:
 1573              	.L125:
 121:Core/Src/NOS_LIB_Driver/Src/WS2812B.c ****     {
 1574              		.loc 1 121 23 discriminator 1 view .LVU455
 1575 0022 A542     		cmp	r5, r4
 1576 0024 F5DC     		bgt	.L126
 1577              	.LBE9:
 127:Core/Src/NOS_LIB_Driver/Src/WS2812B.c **** 
 1578              		.loc 1 127 1 is_stmt 0 view .LVU456
 1579 0026 BDE8F081 		pop	{r4, r5, r6, r7, r8, pc}
 127:Core/Src/NOS_LIB_Driver/Src/WS2812B.c **** 
 1580              		.loc 1 127 1 view .LVU457
 1581              		.cfi_endproc
 1582              	.LFE138:
 1584              		.global	__aeabi_ui2d
 1585              		.global	__aeabi_i2d
 1586              		.global	__aeabi_ddiv
 1587              		.global	__aeabi_d2uiz
 1588              		.global	__aeabi_dmul
ARM GAS  C:\Users\igorn\AppData\Local\Temp\ccHqPtul.s 			page 44


 1589              		.global	__aeabi_dsub
 1590              		.section	.text.NOS_WS2812B_Matrix_PrintIntNumber,"ax",%progbits
 1591              		.align	1
 1592              		.global	NOS_WS2812B_Matrix_PrintIntNumber
 1593              		.syntax unified
 1594              		.thumb
 1595              		.thumb_func
 1597              	NOS_WS2812B_Matrix_PrintIntNumber:
 1598              	.LVL98:
 1599              	.LFB139:
 130:Core/Src/NOS_LIB_Driver/Src/WS2812B.c **** 
 1600              		.loc 1 130 1 is_stmt 1 view -0
 1601              		.cfi_startproc
 1602              		@ args = 0, pretend = 0, frame = 24
 1603              		@ frame_needed = 0, uses_anonymous_args = 0
 130:Core/Src/NOS_LIB_Driver/Src/WS2812B.c **** 
 1604              		.loc 1 130 1 is_stmt 0 view .LVU459
 1605 0000 2DE9F04F 		push	{r4, r5, r6, r7, r8, r9, r10, fp, lr}
 1606              		.cfi_def_cfa_offset 36
 1607              		.cfi_offset 4, -36
 1608              		.cfi_offset 5, -32
 1609              		.cfi_offset 6, -28
 1610              		.cfi_offset 7, -24
 1611              		.cfi_offset 8, -20
 1612              		.cfi_offset 9, -16
 1613              		.cfi_offset 10, -12
 1614              		.cfi_offset 11, -8
 1615              		.cfi_offset 14, -4
 1616 0004 2DED048B 		vpush.64	{d8, d9}
 1617              		.cfi_def_cfa_offset 52
 1618              		.cfi_offset 80, -52
 1619              		.cfi_offset 81, -48
 1620              		.cfi_offset 82, -44
 1621              		.cfi_offset 83, -40
 1622 0008 87B0     		sub	sp, sp, #28
 1623              		.cfi_def_cfa_offset 80
 1624 000a 0190     		str	r0, [sp, #4]
 1625 000c 0C46     		mov	r4, r1
 1626 000e 9346     		mov	fp, r2
 132:Core/Src/NOS_LIB_Driver/Src/WS2812B.c ****     int power = NOS_Math_GetNumberPower(num);
 1627              		.loc 1 132 5 is_stmt 1 view .LVU460
 1628              	.LVL99:
 133:Core/Src/NOS_LIB_Driver/Src/WS2812B.c ****     char buff[16];
 1629              		.loc 1 133 5 view .LVU461
 133:Core/Src/NOS_LIB_Driver/Src/WS2812B.c ****     char buff[16];
 1630              		.loc 1 133 17 is_stmt 0 view .LVU462
 1631 0010 0846     		mov	r0, r1
 1632              	.LVL100:
 133:Core/Src/NOS_LIB_Driver/Src/WS2812B.c ****     char buff[16];
 1633              		.loc 1 133 17 view .LVU463
 1634 0012 FFF7FEFF 		bl	NOS_Math_GetNumberPower
 1635              	.LVL101:
 134:Core/Src/NOS_LIB_Driver/Src/WS2812B.c **** 
 1636              		.loc 1 134 5 is_stmt 1 view .LVU464
 136:Core/Src/NOS_LIB_Driver/Src/WS2812B.c ****     {
 1637              		.loc 1 136 5 view .LVU465
 1638              	.LBB10:
ARM GAS  C:\Users\igorn\AppData\Local\Temp\ccHqPtul.s 			page 45


 136:Core/Src/NOS_LIB_Driver/Src/WS2812B.c ****     {
 1639              		.loc 1 136 10 view .LVU466
 136:Core/Src/NOS_LIB_Driver/Src/WS2812B.c ****     {
 1640              		.loc 1 136 14 is_stmt 0 view .LVU467
 1641 0016 471E     		subs	r7, r0, #1
 1642              	.LVL102:
 136:Core/Src/NOS_LIB_Driver/Src/WS2812B.c ****     {
 1643              		.loc 1 136 14 view .LVU468
 1644              	.LBE10:
 132:Core/Src/NOS_LIB_Driver/Src/WS2812B.c ****     int power = NOS_Math_GetNumberPower(num);
 1645              		.loc 1 132 9 view .LVU469
 1646 0018 4FF0000A 		mov	r10, #0
 1647              	.LBB12:
 136:Core/Src/NOS_LIB_Driver/Src/WS2812B.c ****     {
 1648              		.loc 1 136 5 view .LVU470
 1649 001c 42E0     		b	.L129
 1650              	.LVL103:
 1651              	.L130:
 1652              	.LBB11:
 138:Core/Src/NOS_LIB_Driver/Src/WS2812B.c ****         num = num - (buff[a] * pow(10, i));
 1653              		.loc 1 138 9 is_stmt 1 discriminator 3 view .LVU471
 138:Core/Src/NOS_LIB_Driver/Src/WS2812B.c ****         num = num - (buff[a] * pow(10, i));
 1654              		.loc 1 138 23 is_stmt 0 discriminator 3 view .LVU472
 1655 001e 2046     		mov	r0, r4
 1656 0020 FFF7FEFF 		bl	__aeabi_ui2d
 1657              	.LVL104:
 1658 0024 0446     		mov	r4, r0
 1659              	.LVL105:
 138:Core/Src/NOS_LIB_Driver/Src/WS2812B.c ****         num = num - (buff[a] * pow(10, i));
 1660              		.loc 1 138 23 discriminator 3 view .LVU473
 1661 0026 0D46     		mov	r5, r1
 138:Core/Src/NOS_LIB_Driver/Src/WS2812B.c ****         num = num - (buff[a] * pow(10, i));
 1662              		.loc 1 138 25 discriminator 3 view .LVU474
 1663 0028 3846     		mov	r0, r7
 1664 002a FFF7FEFF 		bl	__aeabi_i2d
 1665              	.LVL106:
 1666 002e 41EC180B 		vmov	d8, r0, r1
 1667 0032 9FED319B 		vldr.64	d9, .L134
 1668 0036 B0EE481A 		vmov.f32	s2, s16
 1669 003a F0EE681A 		vmov.f32	s3, s17
 1670 003e B0EE490A 		vmov.f32	s0, s18
 1671 0042 F0EE690A 		vmov.f32	s1, s19
 1672 0046 FFF7FEFF 		bl	pow
 1673              	.LVL107:
 1674 004a 53EC102B 		vmov	r2, r3, d0
 138:Core/Src/NOS_LIB_Driver/Src/WS2812B.c ****         num = num - (buff[a] * pow(10, i));
 1675              		.loc 1 138 23 discriminator 3 view .LVU475
 1676 004e 2046     		mov	r0, r4
 1677 0050 2946     		mov	r1, r5
 1678 0052 FFF7FEFF 		bl	__aeabi_ddiv
 1679              	.LVL108:
 138:Core/Src/NOS_LIB_Driver/Src/WS2812B.c ****         num = num - (buff[a] * pow(10, i));
 1680              		.loc 1 138 17 discriminator 3 view .LVU476
 1681 0056 FFF7FEFF 		bl	__aeabi_d2uiz
 1682              	.LVL109:
 1683 005a C6B2     		uxtb	r6, r0
 1684 005c 0AF11803 		add	r3, r10, #24
ARM GAS  C:\Users\igorn\AppData\Local\Temp\ccHqPtul.s 			page 46


 1685 0060 6B44     		add	r3, sp, r3
 1686 0062 03F8106C 		strb	r6, [r3, #-16]
 139:Core/Src/NOS_LIB_Driver/Src/WS2812B.c ****         a++;
 1687              		.loc 1 139 9 is_stmt 1 discriminator 3 view .LVU477
 139:Core/Src/NOS_LIB_Driver/Src/WS2812B.c ****         a++;
 1688              		.loc 1 139 32 is_stmt 0 discriminator 3 view .LVU478
 1689 0066 B0EE481A 		vmov.f32	s2, s16
 1690 006a F0EE681A 		vmov.f32	s3, s17
 1691 006e B0EE490A 		vmov.f32	s0, s18
 1692 0072 F0EE690A 		vmov.f32	s1, s19
 1693 0076 FFF7FEFF 		bl	pow
 1694              	.LVL110:
 1695 007a 59EC108B 		vmov	r8, r9, d0
 139:Core/Src/NOS_LIB_Driver/Src/WS2812B.c ****         a++;
 1696              		.loc 1 139 30 discriminator 3 view .LVU479
 1697 007e 3046     		mov	r0, r6
 1698 0080 FFF7FEFF 		bl	__aeabi_i2d
 1699              	.LVL111:
 1700 0084 4246     		mov	r2, r8
 1701 0086 4B46     		mov	r3, r9
 1702 0088 FFF7FEFF 		bl	__aeabi_dmul
 1703              	.LVL112:
 1704 008c 0246     		mov	r2, r0
 1705 008e 0B46     		mov	r3, r1
 139:Core/Src/NOS_LIB_Driver/Src/WS2812B.c ****         a++;
 1706              		.loc 1 139 19 discriminator 3 view .LVU480
 1707 0090 2046     		mov	r0, r4
 1708 0092 2946     		mov	r1, r5
 1709 0094 FFF7FEFF 		bl	__aeabi_dsub
 1710              	.LVL113:
 139:Core/Src/NOS_LIB_Driver/Src/WS2812B.c ****         a++;
 1711              		.loc 1 139 13 discriminator 3 view .LVU481
 1712 0098 FFF7FEFF 		bl	__aeabi_d2uiz
 1713              	.LVL114:
 1714 009c 0446     		mov	r4, r0
 1715              	.LVL115:
 140:Core/Src/NOS_LIB_Driver/Src/WS2812B.c ****     }
 1716              		.loc 1 140 9 is_stmt 1 discriminator 3 view .LVU482
 140:Core/Src/NOS_LIB_Driver/Src/WS2812B.c ****     }
 1717              		.loc 1 140 10 is_stmt 0 discriminator 3 view .LVU483
 1718 009e 0AF1010A 		add	r10, r10, #1
 1719              	.LVL116:
 140:Core/Src/NOS_LIB_Driver/Src/WS2812B.c ****     }
 1720              		.loc 1 140 10 discriminator 3 view .LVU484
 1721              	.LBE11:
 136:Core/Src/NOS_LIB_Driver/Src/WS2812B.c ****     {
 1722              		.loc 1 136 37 is_stmt 1 discriminator 3 view .LVU485
 1723 00a2 013F     		subs	r7, r7, #1
 1724              	.LVL117:
 1725              	.L129:
 136:Core/Src/NOS_LIB_Driver/Src/WS2812B.c ****     {
 1726              		.loc 1 136 31 discriminator 1 view .LVU486
 1727 00a4 002F     		cmp	r7, #0
 1728 00a6 BADC     		bgt	.L130
 136:Core/Src/NOS_LIB_Driver/Src/WS2812B.c ****     {
 1729              		.loc 1 136 31 is_stmt 0 discriminator 1 view .LVU487
 1730              	.LBE12:
ARM GAS  C:\Users\igorn\AppData\Local\Temp\ccHqPtul.s 			page 47


 143:Core/Src/NOS_LIB_Driver/Src/WS2812B.c **** 
 1731              		.loc 1 143 5 is_stmt 1 view .LVU488
 143:Core/Src/NOS_LIB_Driver/Src/WS2812B.c **** 
 1732              		.loc 1 143 19 is_stmt 0 view .LVU489
 1733 00a8 154B     		ldr	r3, .L134+8
 1734 00aa A3FB0423 		umull	r2, r3, r3, r4
 1735 00ae DB08     		lsrs	r3, r3, #3
 1736 00b0 03EB8303 		add	r3, r3, r3, lsl #2
 1737 00b4 A4EB4303 		sub	r3, r4, r3, lsl #1
 143:Core/Src/NOS_LIB_Driver/Src/WS2812B.c **** 
 1738              		.loc 1 143 13 view .LVU490
 1739 00b8 0AF11802 		add	r2, r10, #24
 1740 00bc 6A44     		add	r2, sp, r2
 1741 00be 02F8103C 		strb	r3, [r2, #-16]
 145:Core/Src/NOS_LIB_Driver/Src/WS2812B.c ****     {
 1742              		.loc 1 145 5 is_stmt 1 view .LVU491
 1743              	.LBB13:
 145:Core/Src/NOS_LIB_Driver/Src/WS2812B.c ****     {
 1744              		.loc 1 145 10 view .LVU492
 1745              	.LVL118:
 145:Core/Src/NOS_LIB_Driver/Src/WS2812B.c ****     {
 1746              		.loc 1 145 14 is_stmt 0 view .LVU493
 1747 00c2 0024     		movs	r4, #0
 1748              	.LVL119:
 145:Core/Src/NOS_LIB_Driver/Src/WS2812B.c ****     {
 1749              		.loc 1 145 5 view .LVU494
 1750 00c4 0FE0     		b	.L131
 1751              	.LVL120:
 1752              	.L132:
 147:Core/Src/NOS_LIB_Driver/Src/WS2812B.c ****         NOS_WS2812B_Matrix_SetSymvol(matrix, buff[i], i + startpos);
 1753              		.loc 1 147 9 is_stmt 1 discriminator 3 view .LVU495
 147:Core/Src/NOS_LIB_Driver/Src/WS2812B.c ****         NOS_WS2812B_Matrix_SetSymvol(matrix, buff[i], i + startpos);
 1754              		.loc 1 147 13 is_stmt 0 discriminator 3 view .LVU496
 1755 00c6 04F11803 		add	r3, r4, #24
 1756 00ca 6B44     		add	r3, sp, r3
 1757 00cc 13F8101C 		ldrb	r1, [r3, #-16]	@ zero_extendqisi2
 147:Core/Src/NOS_LIB_Driver/Src/WS2812B.c ****         NOS_WS2812B_Matrix_SetSymvol(matrix, buff[i], i + startpos);
 1758              		.loc 1 147 17 discriminator 3 view .LVU497
 1759 00d0 3031     		adds	r1, r1, #48
 1760 00d2 C9B2     		uxtb	r1, r1
 1761 00d4 03F8101C 		strb	r1, [r3, #-16]
 148:Core/Src/NOS_LIB_Driver/Src/WS2812B.c ****     }
 1762              		.loc 1 148 9 is_stmt 1 discriminator 3 view .LVU498
 1763 00d8 0BEB0402 		add	r2, fp, r4
 1764 00dc D2B2     		uxtb	r2, r2
 1765 00de 0198     		ldr	r0, [sp, #4]
 1766 00e0 FFF7FEFF 		bl	NOS_WS2812B_Matrix_SetSymvol
 1767              	.LVL121:
 145:Core/Src/NOS_LIB_Driver/Src/WS2812B.c ****     {
 1768              		.loc 1 145 33 discriminator 3 view .LVU499
 1769 00e4 0134     		adds	r4, r4, #1
 1770              	.LVL122:
 1771              	.L131:
 145:Core/Src/NOS_LIB_Driver/Src/WS2812B.c ****     {
 1772              		.loc 1 145 23 discriminator 1 view .LVU500
 1773 00e6 A245     		cmp	r10, r4
 1774 00e8 EDDA     		bge	.L132
ARM GAS  C:\Users\igorn\AppData\Local\Temp\ccHqPtul.s 			page 48


 1775              	.LBE13:
 150:Core/Src/NOS_LIB_Driver/Src/WS2812B.c **** 
 1776              		.loc 1 150 1 is_stmt 0 view .LVU501
 1777 00ea 07B0     		add	sp, sp, #28
 1778              		.cfi_def_cfa_offset 52
 1779              		@ sp needed
 1780 00ec BDEC048B 		vldm	sp!, {d8-d9}
 1781              		.cfi_restore 82
 1782              		.cfi_restore 83
 1783              		.cfi_restore 80
 1784              		.cfi_restore 81
 1785              		.cfi_def_cfa_offset 36
 1786 00f0 BDE8F08F 		pop	{r4, r5, r6, r7, r8, r9, r10, fp, pc}
 1787              	.LVL123:
 1788              	.L135:
 150:Core/Src/NOS_LIB_Driver/Src/WS2812B.c **** 
 1789              		.loc 1 150 1 view .LVU502
 1790 00f4 AFF30080 		.align	3
 1791              	.L134:
 1792 00f8 00000000 		.word	0
 1793 00fc 00002440 		.word	1076101120
 1794 0100 CDCCCCCC 		.word	-858993459
 1795              		.cfi_endproc
 1796              	.LFE139:
 1798              		.section	.rodata.NOS_WS2812B_Matrix_PrintFloatNumber.str1.4,"aMS",%progbits,1
 1799              		.align	2
 1800              	.LC1:
 1801 0000 2E00     		.ascii	".\000"
 1802              		.section	.text.NOS_WS2812B_Matrix_PrintFloatNumber,"ax",%progbits
 1803              		.align	1
 1804              		.global	NOS_WS2812B_Matrix_PrintFloatNumber
 1805              		.syntax unified
 1806              		.thumb
 1807              		.thumb_func
 1809              	NOS_WS2812B_Matrix_PrintFloatNumber:
 1810              	.LVL124:
 1811              	.LFB140:
 153:Core/Src/NOS_LIB_Driver/Src/WS2812B.c ****     if (num > 0.0f)
 1812              		.loc 1 153 1 is_stmt 1 view -0
 1813              		.cfi_startproc
 1814              		@ args = 0, pretend = 0, frame = 0
 1815              		@ frame_needed = 0, uses_anonymous_args = 0
 154:Core/Src/NOS_LIB_Driver/Src/WS2812B.c ****     {
 1816              		.loc 1 154 5 view .LVU504
 154:Core/Src/NOS_LIB_Driver/Src/WS2812B.c ****     {
 1817              		.loc 1 154 8 is_stmt 0 view .LVU505
 1818 0000 B5EEC00A 		vcmpe.f32	s0, #0
 1819 0004 F1EE10FA 		vmrs	APSR_nzcv, FPSCR
 1820 0008 00DC     		bgt	.L144
 1821 000a 7047     		bx	lr
 1822              	.L144:
 153:Core/Src/NOS_LIB_Driver/Src/WS2812B.c ****     if (num > 0.0f)
 1823              		.loc 1 153 1 view .LVU506
 1824 000c 70B5     		push	{r4, r5, r6, lr}
 1825              		.cfi_def_cfa_offset 16
 1826              		.cfi_offset 4, -16
 1827              		.cfi_offset 5, -12
ARM GAS  C:\Users\igorn\AppData\Local\Temp\ccHqPtul.s 			page 49


 1828              		.cfi_offset 6, -8
 1829              		.cfi_offset 14, -4
 1830 000e 2DED028B 		vpush.64	{d8}
 1831              		.cfi_def_cfa_offset 24
 1832              		.cfi_offset 80, -24
 1833              		.cfi_offset 81, -20
 1834 0012 0546     		mov	r5, r0
 1835 0014 0E46     		mov	r6, r1
 1836              	.LBB14:
 156:Core/Src/NOS_LIB_Driver/Src/WS2812B.c ****         float after = num - (float)before;
 1837              		.loc 1 156 9 is_stmt 1 view .LVU507
 156:Core/Src/NOS_LIB_Driver/Src/WS2812B.c ****         float after = num - (float)before;
 1838              		.loc 1 156 13 is_stmt 0 view .LVU508
 1839 0016 FDEEC08A 		vcvt.s32.f32	s17, s0
 1840              	.LVL125:
 157:Core/Src/NOS_LIB_Driver/Src/WS2812B.c ****         int af = after * 100;
 1841              		.loc 1 157 9 is_stmt 1 view .LVU509
 157:Core/Src/NOS_LIB_Driver/Src/WS2812B.c ****         int af = after * 100;
 1842              		.loc 1 157 29 is_stmt 0 view .LVU510
 1843 001a F8EEE87A 		vcvt.f32.s32	s15, s17
 157:Core/Src/NOS_LIB_Driver/Src/WS2812B.c ****         int af = after * 100;
 1844              		.loc 1 157 15 view .LVU511
 1845 001e 30EE678A 		vsub.f32	s16, s0, s15
 1846              	.LVL126:
 158:Core/Src/NOS_LIB_Driver/Src/WS2812B.c ****         int pow = NOS_Math_GetNumberPower(before);
 1847              		.loc 1 158 9 is_stmt 1 view .LVU512
 158:Core/Src/NOS_LIB_Driver/Src/WS2812B.c ****         int pow = NOS_Math_GetNumberPower(before);
 1848              		.loc 1 158 24 is_stmt 0 view .LVU513
 1849 0022 DFED127A 		vldr.32	s15, .L145
 1850 0026 28EE278A 		vmul.f32	s16, s16, s15
 1851              	.LVL127:
 158:Core/Src/NOS_LIB_Driver/Src/WS2812B.c ****         int pow = NOS_Math_GetNumberPower(before);
 1852              		.loc 1 158 13 view .LVU514
 1853 002a BDEEC88A 		vcvt.s32.f32	s16, s16
 1854              	.LVL128:
 159:Core/Src/NOS_LIB_Driver/Src/WS2812B.c ****         NOS_WS2812B_Matrix_PrintIntNumber(matrix, before, startpos, pow);
 1855              		.loc 1 159 9 is_stmt 1 view .LVU515
 159:Core/Src/NOS_LIB_Driver/Src/WS2812B.c ****         NOS_WS2812B_Matrix_PrintIntNumber(matrix, before, startpos, pow);
 1856              		.loc 1 159 19 is_stmt 0 view .LVU516
 1857 002e 18EE900A 		vmov	r0, s17	@ int
 1858              	.LVL129:
 159:Core/Src/NOS_LIB_Driver/Src/WS2812B.c ****         NOS_WS2812B_Matrix_PrintIntNumber(matrix, before, startpos, pow);
 1859              		.loc 1 159 19 view .LVU517
 1860 0032 FFF7FEFF 		bl	NOS_Math_GetNumberPower
 1861              	.LVL130:
 160:Core/Src/NOS_LIB_Driver/Src/WS2812B.c ****         NOS_WS2812B_Matrix_PrintStaticString(matrix, ".", startpos + pow, 1);
 1862              		.loc 1 160 9 is_stmt 1 view .LVU518
 1863 0036 C4B2     		uxtb	r4, r0
 1864 0038 2346     		mov	r3, r4
 1865 003a 3246     		mov	r2, r6
 1866 003c 18EE901A 		vmov	r1, s17	@ int
 1867 0040 2846     		mov	r0, r5
 1868              	.LVL131:
 160:Core/Src/NOS_LIB_Driver/Src/WS2812B.c ****         NOS_WS2812B_Matrix_PrintStaticString(matrix, ".", startpos + pow, 1);
 1869              		.loc 1 160 9 is_stmt 0 view .LVU519
 1870 0042 FFF7FEFF 		bl	NOS_WS2812B_Matrix_PrintIntNumber
 1871              	.LVL132:
ARM GAS  C:\Users\igorn\AppData\Local\Temp\ccHqPtul.s 			page 50


 161:Core/Src/NOS_LIB_Driver/Src/WS2812B.c ****         NOS_WS2812B_Matrix_PrintIntNumber(matrix, af, startpos + pow + 1, 2);
 1872              		.loc 1 161 9 is_stmt 1 view .LVU520
 1873 0046 3444     		add	r4, r4, r6
 1874 0048 E4B2     		uxtb	r4, r4
 1875 004a 0123     		movs	r3, #1
 1876 004c 2246     		mov	r2, r4
 1877 004e 0849     		ldr	r1, .L145+4
 1878 0050 2846     		mov	r0, r5
 1879 0052 FFF7FEFF 		bl	NOS_WS2812B_Matrix_PrintStaticString
 1880              	.LVL133:
 162:Core/Src/NOS_LIB_Driver/Src/WS2812B.c ****     }
 1881              		.loc 1 162 9 view .LVU521
 1882 0056 621C     		adds	r2, r4, #1
 1883 0058 0223     		movs	r3, #2
 1884 005a D2B2     		uxtb	r2, r2
 1885 005c 18EE101A 		vmov	r1, s16	@ int
 1886 0060 2846     		mov	r0, r5
 1887 0062 FFF7FEFF 		bl	NOS_WS2812B_Matrix_PrintIntNumber
 1888              	.LVL134:
 1889              	.LBE14:
 164:Core/Src/NOS_LIB_Driver/Src/WS2812B.c **** 
 1890              		.loc 1 164 1 is_stmt 0 view .LVU522
 1891 0066 BDEC028B 		vldm	sp!, {d8}
 1892              		.cfi_restore 80
 1893              		.cfi_restore 81
 1894              		.cfi_def_cfa_offset 16
 1895              	.LVL135:
 164:Core/Src/NOS_LIB_Driver/Src/WS2812B.c **** 
 1896              		.loc 1 164 1 view .LVU523
 1897 006a 70BD     		pop	{r4, r5, r6, pc}
 1898              	.LVL136:
 1899              	.L146:
 164:Core/Src/NOS_LIB_Driver/Src/WS2812B.c **** 
 1900              		.loc 1 164 1 view .LVU524
 1901              		.align	2
 1902              	.L145:
 1903 006c 0000C842 		.word	1120403456
 1904 0070 00000000 		.word	.LC1
 1905              		.cfi_endproc
 1906              	.LFE140:
 1908              		.section	.text.NOS_WS2812B_Matrix_PrintRealTime,"ax",%progbits
 1909              		.align	1
 1910              		.global	NOS_WS2812B_Matrix_PrintRealTime
 1911              		.syntax unified
 1912              		.thumb
 1913              		.thumb_func
 1915              	NOS_WS2812B_Matrix_PrintRealTime:
 1916              	.LVL137:
 1917              	.LFB141:
 167:Core/Src/NOS_LIB_Driver/Src/WS2812B.c ****     int startpos = 0;
 1918              		.loc 1 167 1 is_stmt 1 view -0
 1919              		.cfi_startproc
 1920              		@ args = 0, pretend = 0, frame = 8
 1921              		@ frame_needed = 0, uses_anonymous_args = 0
 167:Core/Src/NOS_LIB_Driver/Src/WS2812B.c ****     int startpos = 0;
 1922              		.loc 1 167 1 is_stmt 0 view .LVU526
 1923 0000 2DE9F043 		push	{r4, r5, r6, r7, r8, r9, lr}
ARM GAS  C:\Users\igorn\AppData\Local\Temp\ccHqPtul.s 			page 51


 1924              		.cfi_def_cfa_offset 28
 1925              		.cfi_offset 4, -28
 1926              		.cfi_offset 5, -24
 1927              		.cfi_offset 6, -20
 1928              		.cfi_offset 7, -16
 1929              		.cfi_offset 8, -12
 1930              		.cfi_offset 9, -8
 1931              		.cfi_offset 14, -4
 1932 0004 83B0     		sub	sp, sp, #12
 1933              		.cfi_def_cfa_offset 40
 1934 0006 0546     		mov	r5, r0
 1935 0008 02AB     		add	r3, sp, #8
 1936 000a 03E90600 		stmdb	r3, {r1, r2}
 168:Core/Src/NOS_LIB_Driver/Src/WS2812B.c ****     if (rt.format == Hour24)
 1937              		.loc 1 168 5 is_stmt 1 view .LVU527
 1938              	.LVL138:
 169:Core/Src/NOS_LIB_Driver/Src/WS2812B.c ****     {
 1939              		.loc 1 169 5 view .LVU528
 169:Core/Src/NOS_LIB_Driver/Src/WS2812B.c ****     {
 1940              		.loc 1 169 11 is_stmt 0 view .LVU529
 1941 000e 9DF80730 		ldrb	r3, [sp, #7]	@ zero_extendqisi2
 169:Core/Src/NOS_LIB_Driver/Src/WS2812B.c ****     {
 1942              		.loc 1 169 8 view .LVU530
 1943 0012 6BB3     		cbz	r3, .L154
 168:Core/Src/NOS_LIB_Driver/Src/WS2812B.c ****     if (rt.format == Hour24)
 1944              		.loc 1 168 9 view .LVU531
 1945 0014 4FF00009 		mov	r9, #0
 1946              	.L148:
 1947              	.LVL139:
 174:Core/Src/NOS_LIB_Driver/Src/WS2812B.c ****     {
 1948              		.loc 1 174 5 is_stmt 1 view .LVU532
 174:Core/Src/NOS_LIB_Driver/Src/WS2812B.c ****     {
 1949              		.loc 1 174 8 is_stmt 0 view .LVU533
 1950 0018 012B     		cmp	r3, #1
 1951 001a 4FD1     		bne	.L149
 176:Core/Src/NOS_LIB_Driver/Src/WS2812B.c ****         {
 1952              		.loc 1 176 9 is_stmt 1 view .LVU534
 176:Core/Src/NOS_LIB_Driver/Src/WS2812B.c ****         {
 1953              		.loc 1 176 15 is_stmt 0 view .LVU535
 1954 001c 9DF80440 		ldrb	r4, [sp, #4]	@ zero_extendqisi2
 176:Core/Src/NOS_LIB_Driver/Src/WS2812B.c ****         {
 1955              		.loc 1 176 12 view .LVU536
 1956 0020 0C2C     		cmp	r4, #12
 1957 0022 28D9     		bls	.L150
 178:Core/Src/NOS_LIB_Driver/Src/WS2812B.c ****             NOS_WS2812B_Matrix_SetSymvol(matrix, (char)(rt.hour - 12) % 10 + 48, startpos + 1);
 1958              		.loc 1 178 13 is_stmt 1 view .LVU537
 178:Core/Src/NOS_LIB_Driver/Src/WS2812B.c ****             NOS_WS2812B_Matrix_SetSymvol(matrix, (char)(rt.hour - 12) % 10 + 48, startpos + 1);
 1959              		.loc 1 178 50 is_stmt 0 view .LVU538
 1960 0024 0C3C     		subs	r4, r4, #12
 1961 0026 E4B2     		uxtb	r4, r4
 178:Core/Src/NOS_LIB_Driver/Src/WS2812B.c ****             NOS_WS2812B_Matrix_SetSymvol(matrix, (char)(rt.hour - 12) % 10 + 48, startpos + 1);
 1962              		.loc 1 178 13 view .LVU539
 1963 0028 5FFA89F7 		uxtb	r7, r9
 1964 002c 574E     		ldr	r6, .L156
 1965 002e A6FB0436 		umull	r3, r6, r6, r4
 1966 0032 F608     		lsrs	r6, r6, #3
 1967 0034 3A46     		mov	r2, r7
ARM GAS  C:\Users\igorn\AppData\Local\Temp\ccHqPtul.s 			page 52


 1968 0036 06F13001 		add	r1, r6, #48
 1969 003a 2846     		mov	r0, r5
 1970              	.LVL140:
 178:Core/Src/NOS_LIB_Driver/Src/WS2812B.c ****             NOS_WS2812B_Matrix_SetSymvol(matrix, (char)(rt.hour - 12) % 10 + 48, startpos + 1);
 1971              		.loc 1 178 13 view .LVU540
 1972 003c FFF7FEFF 		bl	NOS_WS2812B_Matrix_SetSymvol
 1973              	.LVL141:
 179:Core/Src/NOS_LIB_Driver/Src/WS2812B.c ****             NOS_WS2812B_Matrix_SetSymvol(matrix, 'P', startpos + 8);
 1974              		.loc 1 179 13 is_stmt 1 view .LVU541
 1975 0040 06EB8606 		add	r6, r6, r6, lsl #2
 1976 0044 A4EB4604 		sub	r4, r4, r6, lsl #1
 1977 0048 04F13001 		add	r1, r4, #48
 1978 004c 7A1C     		adds	r2, r7, #1
 1979 004e C9B2     		uxtb	r1, r1
 1980 0050 2846     		mov	r0, r5
 1981 0052 FFF7FEFF 		bl	NOS_WS2812B_Matrix_SetSymvol
 1982              	.LVL142:
 180:Core/Src/NOS_LIB_Driver/Src/WS2812B.c ****             NOS_WS2812B_Matrix_SetSymvol(matrix, 'M', startpos + 9);
 1983              		.loc 1 180 13 view .LVU542
 1984 0056 07F10802 		add	r2, r7, #8
 1985 005a 5021     		movs	r1, #80
 1986 005c 2846     		mov	r0, r5
 1987 005e FFF7FEFF 		bl	NOS_WS2812B_Matrix_SetSymvol
 1988              	.LVL143:
 181:Core/Src/NOS_LIB_Driver/Src/WS2812B.c ****         }
 1989              		.loc 1 181 13 view .LVU543
 1990 0062 07F10902 		add	r2, r7, #9
 1991 0066 4D21     		movs	r1, #77
 1992 0068 2846     		mov	r0, r5
 1993 006a FFF7FEFF 		bl	NOS_WS2812B_Matrix_SetSymvol
 1994              	.LVL144:
 1995 006e 43E0     		b	.L151
 1996              	.LVL145:
 1997              	.L154:
 171:Core/Src/NOS_LIB_Driver/Src/WS2812B.c ****     }
 1998              		.loc 1 171 18 is_stmt 0 view .LVU544
 1999 0070 4FF00109 		mov	r9, #1
 2000 0074 D0E7     		b	.L148
 2001              	.LVL146:
 2002              	.L150:
 185:Core/Src/NOS_LIB_Driver/Src/WS2812B.c ****             NOS_WS2812B_Matrix_SetSymvol(matrix, (char)(rt.hour) % 10 + 48, startpos + 1);
 2003              		.loc 1 185 13 is_stmt 1 view .LVU545
 2004 0076 5FFA89F7 		uxtb	r7, r9
 2005 007a 444E     		ldr	r6, .L156
 2006 007c A6FB0436 		umull	r3, r6, r6, r4
 2007 0080 F608     		lsrs	r6, r6, #3
 2008 0082 3A46     		mov	r2, r7
 2009 0084 06F13001 		add	r1, r6, #48
 2010 0088 2846     		mov	r0, r5
 2011              	.LVL147:
 185:Core/Src/NOS_LIB_Driver/Src/WS2812B.c ****             NOS_WS2812B_Matrix_SetSymvol(matrix, (char)(rt.hour) % 10 + 48, startpos + 1);
 2012              		.loc 1 185 13 is_stmt 0 view .LVU546
 2013 008a FFF7FEFF 		bl	NOS_WS2812B_Matrix_SetSymvol
 2014              	.LVL148:
 186:Core/Src/NOS_LIB_Driver/Src/WS2812B.c ****             NOS_WS2812B_Matrix_SetSymvol(matrix, 'A', startpos + 8);
 2015              		.loc 1 186 13 is_stmt 1 view .LVU547
 2016 008e 06EB8606 		add	r6, r6, r6, lsl #2
ARM GAS  C:\Users\igorn\AppData\Local\Temp\ccHqPtul.s 			page 53


 2017 0092 A4EB4601 		sub	r1, r4, r6, lsl #1
 2018 0096 3031     		adds	r1, r1, #48
 2019 0098 7A1C     		adds	r2, r7, #1
 2020 009a C9B2     		uxtb	r1, r1
 2021 009c 2846     		mov	r0, r5
 2022 009e FFF7FEFF 		bl	NOS_WS2812B_Matrix_SetSymvol
 2023              	.LVL149:
 187:Core/Src/NOS_LIB_Driver/Src/WS2812B.c ****             NOS_WS2812B_Matrix_SetSymvol(matrix, 'M', startpos + 9);
 2024              		.loc 1 187 13 view .LVU548
 2025 00a2 07F10802 		add	r2, r7, #8
 2026 00a6 4121     		movs	r1, #65
 2027 00a8 2846     		mov	r0, r5
 2028 00aa FFF7FEFF 		bl	NOS_WS2812B_Matrix_SetSymvol
 2029              	.LVL150:
 188:Core/Src/NOS_LIB_Driver/Src/WS2812B.c ****         }
 2030              		.loc 1 188 13 view .LVU549
 2031 00ae 07F10902 		add	r2, r7, #9
 2032 00b2 4D21     		movs	r1, #77
 2033 00b4 2846     		mov	r0, r5
 2034 00b6 FFF7FEFF 		bl	NOS_WS2812B_Matrix_SetSymvol
 2035              	.LVL151:
 2036 00ba 1DE0     		b	.L151
 2037              	.LVL152:
 2038              	.L149:
 193:Core/Src/NOS_LIB_Driver/Src/WS2812B.c ****         NOS_WS2812B_Matrix_SetSymvol(matrix, (char)(rt.hour) % 10 + 48, startpos + 1);
 2039              		.loc 1 193 9 view .LVU550
 193:Core/Src/NOS_LIB_Driver/Src/WS2812B.c ****         NOS_WS2812B_Matrix_SetSymvol(matrix, (char)(rt.hour) % 10 + 48, startpos + 1);
 2040              		.loc 1 193 55 is_stmt 0 view .LVU551
 2041 00bc 9DF80460 		ldrb	r6, [sp, #4]	@ zero_extendqisi2
 193:Core/Src/NOS_LIB_Driver/Src/WS2812B.c ****         NOS_WS2812B_Matrix_SetSymvol(matrix, (char)(rt.hour) % 10 + 48, startpos + 1);
 2042              		.loc 1 193 9 view .LVU552
 2043 00c0 5FFA89F7 		uxtb	r7, r9
 2044 00c4 314C     		ldr	r4, .L156
 2045 00c6 A4FB0634 		umull	r3, r4, r4, r6
 2046 00ca E408     		lsrs	r4, r4, #3
 2047 00cc 3A46     		mov	r2, r7
 2048 00ce 04F13001 		add	r1, r4, #48
 2049 00d2 2846     		mov	r0, r5
 2050              	.LVL153:
 193:Core/Src/NOS_LIB_Driver/Src/WS2812B.c ****         NOS_WS2812B_Matrix_SetSymvol(matrix, (char)(rt.hour) % 10 + 48, startpos + 1);
 2051              		.loc 1 193 9 view .LVU553
 2052 00d4 FFF7FEFF 		bl	NOS_WS2812B_Matrix_SetSymvol
 2053              	.LVL154:
 194:Core/Src/NOS_LIB_Driver/Src/WS2812B.c ****         NOS_WS2812B_Matrix_SetSymvol(matrix, ' ', startpos + 8);
 2054              		.loc 1 194 9 is_stmt 1 view .LVU554
 2055 00d8 04EB8404 		add	r4, r4, r4, lsl #2
 2056 00dc A6EB4401 		sub	r1, r6, r4, lsl #1
 2057 00e0 3031     		adds	r1, r1, #48
 2058 00e2 7A1C     		adds	r2, r7, #1
 2059 00e4 C9B2     		uxtb	r1, r1
 2060 00e6 2846     		mov	r0, r5
 2061 00e8 FFF7FEFF 		bl	NOS_WS2812B_Matrix_SetSymvol
 2062              	.LVL155:
 195:Core/Src/NOS_LIB_Driver/Src/WS2812B.c ****     }
 2063              		.loc 1 195 9 view .LVU555
 2064 00ec 07F10802 		add	r2, r7, #8
 2065 00f0 2021     		movs	r1, #32
ARM GAS  C:\Users\igorn\AppData\Local\Temp\ccHqPtul.s 			page 54


 2066 00f2 2846     		mov	r0, r5
 2067 00f4 FFF7FEFF 		bl	NOS_WS2812B_Matrix_SetSymvol
 2068              	.LVL156:
 2069              	.L151:
 198:Core/Src/NOS_LIB_Driver/Src/WS2812B.c ****     NOS_WS2812B_Matrix_SetSymvol(matrix, (char)(rt.min % 10) + 48, startpos + 4);
 2070              		.loc 1 198 5 view .LVU556
 198:Core/Src/NOS_LIB_Driver/Src/WS2812B.c ****     NOS_WS2812B_Matrix_SetSymvol(matrix, (char)(rt.min % 10) + 48, startpos + 4);
 2071              		.loc 1 198 51 is_stmt 0 view .LVU557
 2072 00f8 9DF80580 		ldrb	r8, [sp, #5]	@ zero_extendqisi2
 198:Core/Src/NOS_LIB_Driver/Src/WS2812B.c ****     NOS_WS2812B_Matrix_SetSymvol(matrix, (char)(rt.min % 10) + 48, startpos + 4);
 2073              		.loc 1 198 5 view .LVU558
 2074 00fc 5FFA89F6 		uxtb	r6, r9
 2075 0100 224C     		ldr	r4, .L156
 2076 0102 A4FB0837 		umull	r3, r7, r4, r8
 2077 0106 FF08     		lsrs	r7, r7, #3
 2078 0108 09F10302 		add	r2, r9, #3
 2079 010c 07F13001 		add	r1, r7, #48
 2080 0110 2846     		mov	r0, r5
 2081 0112 FFF7FEFF 		bl	NOS_WS2812B_Matrix_SetSymvol
 2082              	.LVL157:
 199:Core/Src/NOS_LIB_Driver/Src/WS2812B.c **** 
 2083              		.loc 1 199 5 is_stmt 1 view .LVU559
 2084 0116 07EB8707 		add	r7, r7, r7, lsl #2
 2085 011a A8EB4701 		sub	r1, r8, r7, lsl #1
 2086 011e 3031     		adds	r1, r1, #48
 2087 0120 321D     		adds	r2, r6, #4
 2088 0122 C9B2     		uxtb	r1, r1
 2089 0124 2846     		mov	r0, r5
 2090 0126 FFF7FEFF 		bl	NOS_WS2812B_Matrix_SetSymvol
 2091              	.LVL158:
 201:Core/Src/NOS_LIB_Driver/Src/WS2812B.c ****     NOS_WS2812B_Matrix_SetSymvol(matrix, (char)rt.sec % 10 + 48, startpos + 7);
 2092              		.loc 1 201 5 view .LVU560
 201:Core/Src/NOS_LIB_Driver/Src/WS2812B.c ****     NOS_WS2812B_Matrix_SetSymvol(matrix, (char)rt.sec % 10 + 48, startpos + 7);
 2093              		.loc 1 201 50 is_stmt 0 view .LVU561
 2094 012a 9DF80670 		ldrb	r7, [sp, #6]	@ zero_extendqisi2
 201:Core/Src/NOS_LIB_Driver/Src/WS2812B.c ****     NOS_WS2812B_Matrix_SetSymvol(matrix, (char)rt.sec % 10 + 48, startpos + 7);
 2095              		.loc 1 201 5 view .LVU562
 2096 012e A4FB0734 		umull	r3, r4, r4, r7
 2097 0132 E408     		lsrs	r4, r4, #3
 2098 0134 B21D     		adds	r2, r6, #6
 2099 0136 04F13001 		add	r1, r4, #48
 2100 013a 2846     		mov	r0, r5
 2101 013c FFF7FEFF 		bl	NOS_WS2812B_Matrix_SetSymvol
 2102              	.LVL159:
 202:Core/Src/NOS_LIB_Driver/Src/WS2812B.c **** 
 2103              		.loc 1 202 5 is_stmt 1 view .LVU563
 2104 0140 04EB8401 		add	r1, r4, r4, lsl #2
 2105 0144 A7EB4101 		sub	r1, r7, r1, lsl #1
 2106 0148 3031     		adds	r1, r1, #48
 2107 014a F21D     		adds	r2, r6, #7
 2108 014c C9B2     		uxtb	r1, r1
 2109 014e 2846     		mov	r0, r5
 2110 0150 FFF7FEFF 		bl	NOS_WS2812B_Matrix_SetSymvol
 2111              	.LVL160:
 204:Core/Src/NOS_LIB_Driver/Src/WS2812B.c ****     {
 2112              		.loc 1 204 5 view .LVU564
 204:Core/Src/NOS_LIB_Driver/Src/WS2812B.c ****     {
ARM GAS  C:\Users\igorn\AppData\Local\Temp\ccHqPtul.s 			page 55


 2113              		.loc 1 204 8 is_stmt 0 view .LVU565
 2114 0154 17F0010F 		tst	r7, #1
 2115 0158 0CD1     		bne	.L152
 206:Core/Src/NOS_LIB_Driver/Src/WS2812B.c ****         NOS_WS2812B_Matrix_SetSymvol(matrix, ':', startpos + 5);
 2116              		.loc 1 206 9 is_stmt 1 view .LVU566
 2117 015a B21C     		adds	r2, r6, #2
 2118 015c 3A21     		movs	r1, #58
 2119 015e 2846     		mov	r0, r5
 2120 0160 FFF7FEFF 		bl	NOS_WS2812B_Matrix_SetSymvol
 2121              	.LVL161:
 207:Core/Src/NOS_LIB_Driver/Src/WS2812B.c ****     }
 2122              		.loc 1 207 9 view .LVU567
 2123 0164 721D     		adds	r2, r6, #5
 2124 0166 3A21     		movs	r1, #58
 2125 0168 2846     		mov	r0, r5
 2126 016a FFF7FEFF 		bl	NOS_WS2812B_Matrix_SetSymvol
 2127              	.LVL162:
 2128              	.L147:
 214:Core/Src/NOS_LIB_Driver/Src/WS2812B.c **** 
 2129              		.loc 1 214 1 is_stmt 0 view .LVU568
 2130 016e 03B0     		add	sp, sp, #12
 2131              		.cfi_remember_state
 2132              		.cfi_def_cfa_offset 28
 2133              		@ sp needed
 2134 0170 BDE8F083 		pop	{r4, r5, r6, r7, r8, r9, pc}
 2135              	.LVL163:
 2136              	.L152:
 2137              		.cfi_restore_state
 211:Core/Src/NOS_LIB_Driver/Src/WS2812B.c ****         NOS_WS2812B_Matrix_SetSymvol(matrix, ' ', startpos + 5);
 2138              		.loc 1 211 9 is_stmt 1 view .LVU569
 2139 0174 B21C     		adds	r2, r6, #2
 2140 0176 2021     		movs	r1, #32
 2141 0178 2846     		mov	r0, r5
 2142 017a FFF7FEFF 		bl	NOS_WS2812B_Matrix_SetSymvol
 2143              	.LVL164:
 212:Core/Src/NOS_LIB_Driver/Src/WS2812B.c ****     }
 2144              		.loc 1 212 9 view .LVU570
 2145 017e 721D     		adds	r2, r6, #5
 2146 0180 2021     		movs	r1, #32
 2147 0182 2846     		mov	r0, r5
 2148 0184 FFF7FEFF 		bl	NOS_WS2812B_Matrix_SetSymvol
 2149              	.LVL165:
 214:Core/Src/NOS_LIB_Driver/Src/WS2812B.c **** 
 2150              		.loc 1 214 1 is_stmt 0 view .LVU571
 2151 0188 F1E7     		b	.L147
 2152              	.L157:
 2153 018a 00BF     		.align	2
 2154              	.L156:
 2155 018c CDCCCCCC 		.word	-858993459
 2156              		.cfi_endproc
 2157              	.LFE141:
 2159              		.section	.text.NOS_WS2812B_Matrix_PrintTemperature,"ax",%progbits
 2160              		.align	1
 2161              		.global	NOS_WS2812B_Matrix_PrintTemperature
 2162              		.syntax unified
 2163              		.thumb
 2164              		.thumb_func
ARM GAS  C:\Users\igorn\AppData\Local\Temp\ccHqPtul.s 			page 56


 2166              	NOS_WS2812B_Matrix_PrintTemperature:
 2167              	.LVL166:
 2168              	.LFB144:
 274:Core/Src/NOS_LIB_Driver/Src/WS2812B.c ****     if (temperature > 0)
 2169              		.loc 1 274 1 is_stmt 1 view -0
 2170              		.cfi_startproc
 2171              		@ args = 0, pretend = 0, frame = 0
 2172              		@ frame_needed = 0, uses_anonymous_args = 0
 274:Core/Src/NOS_LIB_Driver/Src/WS2812B.c ****     if (temperature > 0)
 2173              		.loc 1 274 1 is_stmt 0 view .LVU573
 2174 0000 38B5     		push	{r3, r4, r5, lr}
 2175              		.cfi_def_cfa_offset 16
 2176              		.cfi_offset 3, -16
 2177              		.cfi_offset 4, -12
 2178              		.cfi_offset 5, -8
 2179              		.cfi_offset 14, -4
 2180 0002 0546     		mov	r5, r0
 275:Core/Src/NOS_LIB_Driver/Src/WS2812B.c ****     {
 2181              		.loc 1 275 5 is_stmt 1 view .LVU574
 275:Core/Src/NOS_LIB_Driver/Src/WS2812B.c ****     {
 2182              		.loc 1 275 8 is_stmt 0 view .LVU575
 2183 0004 0C1E     		subs	r4, r1, #0
 2184 0006 16DD     		ble	.L159
 277:Core/Src/NOS_LIB_Driver/Src/WS2812B.c ****     }
 2185              		.loc 1 277 9 is_stmt 1 view .LVU576
 2186 0008 0022     		movs	r2, #0
 2187 000a 2B21     		movs	r1, #43
 2188              	.LVL167:
 277:Core/Src/NOS_LIB_Driver/Src/WS2812B.c ****     }
 2189              		.loc 1 277 9 is_stmt 0 view .LVU577
 2190 000c FFF7FEFF 		bl	NOS_WS2812B_Matrix_SetSymvol
 2191              	.LVL168:
 2192              	.L160:
 284:Core/Src/NOS_LIB_Driver/Src/WS2812B.c ****     NOS_WS2812B_Matrix_SetSymvol(matrix, 'C', 4);
 2193              		.loc 1 284 5 is_stmt 1 view .LVU578
 2194 0010 0322     		movs	r2, #3
 2195 0012 2A21     		movs	r1, #42
 2196 0014 2846     		mov	r0, r5
 2197 0016 FFF7FEFF 		bl	NOS_WS2812B_Matrix_SetSymvol
 2198              	.LVL169:
 285:Core/Src/NOS_LIB_Driver/Src/WS2812B.c **** 
 2199              		.loc 1 285 5 view .LVU579
 2200 001a 0422     		movs	r2, #4
 2201 001c 4321     		movs	r1, #67
 2202 001e 2846     		mov	r0, r5
 2203 0020 FFF7FEFF 		bl	NOS_WS2812B_Matrix_SetSymvol
 2204              	.LVL170:
 287:Core/Src/NOS_LIB_Driver/Src/WS2812B.c ****     if (temperature < 0)
 2205              		.loc 1 287 5 view .LVU580
 288:Core/Src/NOS_LIB_Driver/Src/WS2812B.c ****     {
 2206              		.loc 1 288 5 view .LVU581
 288:Core/Src/NOS_LIB_Driver/Src/WS2812B.c ****     {
 2207              		.loc 1 288 8 is_stmt 0 view .LVU582
 2208 0024 002C     		cmp	r4, #0
 2209 0026 12DB     		blt	.L168
 298:Core/Src/NOS_LIB_Driver/Src/WS2812B.c ****     }
 2210              		.loc 1 298 9 is_stmt 1 view .LVU583
ARM GAS  C:\Users\igorn\AppData\Local\Temp\ccHqPtul.s 			page 57


 298:Core/Src/NOS_LIB_Driver/Src/WS2812B.c ****     }
 2211              		.loc 1 298 17 is_stmt 0 view .LVU584
 2212 0028 E1B2     		uxtb	r1, r4
 2213              	.LVL171:
 2214              	.L164:
 301:Core/Src/NOS_LIB_Driver/Src/WS2812B.c **** }
 2215              		.loc 1 301 5 is_stmt 1 view .LVU585
 2216 002a 0223     		movs	r3, #2
 2217 002c 0122     		movs	r2, #1
 2218 002e 2846     		mov	r0, r5
 2219 0030 FFF7FEFF 		bl	NOS_WS2812B_Matrix_PrintIntNumber
 2220              	.LVL172:
 302:Core/Src/NOS_LIB_Driver/Src/WS2812B.c **** 
 2221              		.loc 1 302 1 is_stmt 0 view .LVU586
 2222 0034 38BD     		pop	{r3, r4, r5, pc}
 2223              	.LVL173:
 2224              	.L159:
 281:Core/Src/NOS_LIB_Driver/Src/WS2812B.c ****     }
 2225              		.loc 1 281 9 is_stmt 1 view .LVU587
 2226 0036 0022     		movs	r2, #0
 2227 0038 2D21     		movs	r1, #45
 2228              	.LVL174:
 281:Core/Src/NOS_LIB_Driver/Src/WS2812B.c ****     }
 2229              		.loc 1 281 9 is_stmt 0 view .LVU588
 2230 003a FFF7FEFF 		bl	NOS_WS2812B_Matrix_SetSymvol
 2231              	.LVL175:
 281:Core/Src/NOS_LIB_Driver/Src/WS2812B.c ****     }
 2232              		.loc 1 281 9 view .LVU589
 2233 003e E7E7     		b	.L160
 2234              	.LVL176:
 2235              	.L163:
 292:Core/Src/NOS_LIB_Driver/Src/WS2812B.c ****             counter++;
 2236              		.loc 1 292 13 is_stmt 1 view .LVU590
 292:Core/Src/NOS_LIB_Driver/Src/WS2812B.c ****             counter++;
 2237              		.loc 1 292 24 is_stmt 0 view .LVU591
 2238 0040 0134     		adds	r4, r4, #1
 2239              	.LVL177:
 292:Core/Src/NOS_LIB_Driver/Src/WS2812B.c ****             counter++;
 2240              		.loc 1 292 24 view .LVU592
 2241 0042 24B2     		sxth	r4, r4
 2242              	.LVL178:
 293:Core/Src/NOS_LIB_Driver/Src/WS2812B.c ****         }
 2243              		.loc 1 293 13 is_stmt 1 view .LVU593
 293:Core/Src/NOS_LIB_Driver/Src/WS2812B.c ****         }
 2244              		.loc 1 293 20 is_stmt 0 view .LVU594
 2245 0044 0131     		adds	r1, r1, #1
 2246              	.LVL179:
 293:Core/Src/NOS_LIB_Driver/Src/WS2812B.c ****         }
 2247              		.loc 1 293 20 view .LVU595
 2248 0046 C9B2     		uxtb	r1, r1
 2249              	.LVL180:
 2250              	.L161:
 290:Core/Src/NOS_LIB_Driver/Src/WS2812B.c ****         {
 2251              		.loc 1 290 28 is_stmt 1 view .LVU596
 2252 0048 002C     		cmp	r4, #0
 2253 004a F9DB     		blt	.L163
 2254 004c EDE7     		b	.L164
ARM GAS  C:\Users\igorn\AppData\Local\Temp\ccHqPtul.s 			page 58


 2255              	.LVL181:
 2256              	.L168:
 287:Core/Src/NOS_LIB_Driver/Src/WS2812B.c ****     if (temperature < 0)
 2257              		.loc 1 287 13 is_stmt 0 view .LVU597
 2258 004e 0021     		movs	r1, #0
 2259 0050 FAE7     		b	.L161
 2260              		.cfi_endproc
 2261              	.LFE144:
 2263              		.section	.rodata.NOS_WS2812B_Matrix_PrintDetectorValue.str1.4,"aMS",%progbits,1
 2264              		.align	2
 2265              	.LC2:
 2266 0000 7553762F 		.ascii	"uSv/Hour\000"
 2266      486F7572 
 2266      00
 2267 0009 000000   		.align	2
 2268              	.LC3:
 2269 000c 6D6B3342 		.ascii	"mk3B/god\000"
 2269      2F676F64 
 2269      00
 2270              		.section	.text.NOS_WS2812B_Matrix_PrintDetectorValue,"ax",%progbits
 2271              		.align	1
 2272              		.global	NOS_WS2812B_Matrix_PrintDetectorValue
 2273              		.syntax unified
 2274              		.thumb
 2275              		.thumb_func
 2277              	NOS_WS2812B_Matrix_PrintDetectorValue:
 2278              	.LVL182:
 2279              	.LFB145:
 305:Core/Src/NOS_LIB_Driver/Src/WS2812B.c ****     if (detector->value.data < 10.0f)
 2280              		.loc 1 305 1 is_stmt 1 view -0
 2281              		.cfi_startproc
 2282              		@ args = 8, pretend = 0, frame = 0
 2283              		@ frame_needed = 0, uses_anonymous_args = 0
 305:Core/Src/NOS_LIB_Driver/Src/WS2812B.c ****     if (detector->value.data < 10.0f)
 2284              		.loc 1 305 1 is_stmt 0 view .LVU599
 2285 0000 F8B5     		push	{r3, r4, r5, r6, r7, lr}
 2286              		.cfi_def_cfa_offset 24
 2287              		.cfi_offset 3, -24
 2288              		.cfi_offset 4, -20
 2289              		.cfi_offset 5, -16
 2290              		.cfi_offset 6, -12
 2291              		.cfi_offset 7, -8
 2292              		.cfi_offset 14, -4
 2293 0002 0546     		mov	r5, r0
 2294 0004 0C46     		mov	r4, r1
 2295 0006 1646     		mov	r6, r2
 2296 0008 1F46     		mov	r7, r3
 306:Core/Src/NOS_LIB_Driver/Src/WS2812B.c ****     {
 2297              		.loc 1 306 5 is_stmt 1 view .LVU600
 306:Core/Src/NOS_LIB_Driver/Src/WS2812B.c ****     {
 2298              		.loc 1 306 24 is_stmt 0 view .LVU601
 2299 000a 91ED010A 		vldr.32	s0, [r1, #4]
 306:Core/Src/NOS_LIB_Driver/Src/WS2812B.c ****     {
 2300              		.loc 1 306 8 view .LVU602
 2301 000e F2EE047A 		vmov.f32	s15, #1.0e+1
 2302 0012 B4EEE70A 		vcmpe.f32	s0, s15
 2303 0016 F1EE10FA 		vmrs	APSR_nzcv, FPSCR
ARM GAS  C:\Users\igorn\AppData\Local\Temp\ccHqPtul.s 			page 59


 2304 001a 1FD5     		bpl	.L186
 308:Core/Src/NOS_LIB_Driver/Src/WS2812B.c ****         NOS_WS2812B_Matrix_PrintFloatNumber(matrix, detector->value.data, 2);
 2305              		.loc 1 308 9 is_stmt 1 view .LVU603
 2306 001c 0122     		movs	r2, #1
 2307              	.LVL183:
 308:Core/Src/NOS_LIB_Driver/Src/WS2812B.c ****         NOS_WS2812B_Matrix_PrintFloatNumber(matrix, detector->value.data, 2);
 2308              		.loc 1 308 9 is_stmt 0 view .LVU604
 2309 001e 2021     		movs	r1, #32
 2310              	.LVL184:
 308:Core/Src/NOS_LIB_Driver/Src/WS2812B.c ****         NOS_WS2812B_Matrix_PrintFloatNumber(matrix, detector->value.data, 2);
 2311              		.loc 1 308 9 view .LVU605
 2312 0020 FFF7FEFF 		bl	NOS_WS2812B_Matrix_SetSymvol
 2313              	.LVL185:
 309:Core/Src/NOS_LIB_Driver/Src/WS2812B.c ****     }
 2314              		.loc 1 309 9 is_stmt 1 view .LVU606
 2315 0024 0221     		movs	r1, #2
 2316 0026 94ED010A 		vldr.32	s0, [r4, #4]
 2317 002a 2846     		mov	r0, r5
 2318 002c FFF7FEFF 		bl	NOS_WS2812B_Matrix_PrintFloatNumber
 2319              	.LVL186:
 2320              	.L172:
 316:Core/Src/NOS_LIB_Driver/Src/WS2812B.c ****     {
 2321              		.loc 1 316 5 view .LVU607
 2322 0030 C6B1     		cbz	r6, .L173
 2323 0032 012E     		cmp	r6, #1
 2324 0034 1DD0     		beq	.L174
 2325              	.L175:
 329:Core/Src/NOS_LIB_Driver/Src/WS2812B.c ****     {
 2326              		.loc 1 329 5 view .LVU608
 329:Core/Src/NOS_LIB_Driver/Src/WS2812B.c ****     {
 2327              		.loc 1 329 24 is_stmt 0 view .LVU609
 2328 0036 D4ED017A 		vldr.32	s15, [r4, #4]
 329:Core/Src/NOS_LIB_Driver/Src/WS2812B.c ****     {
 2329              		.loc 1 329 55 view .LVU610
 2330 003a 94ED027A 		vldr.32	s14, [r4, #8]
 329:Core/Src/NOS_LIB_Driver/Src/WS2812B.c ****     {
 2331              		.loc 1 329 8 view .LVU611
 2332 003e F4EEC77A 		vcmpe.f32	s15, s14
 2333 0042 F1EE10FA 		vmrs	APSR_nzcv, FPSCR
 2334 0046 1BDB     		blt	.L176
 329:Core/Src/NOS_LIB_Driver/Src/WS2812B.c ****     {
 2335              		.loc 1 329 110 discriminator 1 view .LVU612
 2336 0048 94ED037A 		vldr.32	s14, [r4, #12]
 329:Core/Src/NOS_LIB_Driver/Src/WS2812B.c ****     {
 2337              		.loc 1 329 61 discriminator 1 view .LVU613
 2338 004c F4EEC77A 		vcmpe.f32	s15, s14
 2339 0050 F1EE10FA 		vmrs	APSR_nzcv, FPSCR
 2340 0054 14D5     		bpl	.L176
 331:Core/Src/NOS_LIB_Driver/Src/WS2812B.c ****     }
 2341              		.loc 1 331 9 is_stmt 1 view .LVU614
 331:Core/Src/NOS_LIB_Driver/Src/WS2812B.c ****     }
 2342              		.loc 1 331 27 is_stmt 0 view .LVU615
 2343 0056 069B     		ldr	r3, [sp, #24]
 2344 0058 EB60     		str	r3, [r5, #12]
 2345 005a 19E0     		b	.L169
 2346              	.LVL187:
 2347              	.L186:
ARM GAS  C:\Users\igorn\AppData\Local\Temp\ccHqPtul.s 			page 60


 313:Core/Src/NOS_LIB_Driver/Src/WS2812B.c ****     }
 2348              		.loc 1 313 9 is_stmt 1 view .LVU616
 2349 005c 0121     		movs	r1, #1
 2350              	.LVL188:
 313:Core/Src/NOS_LIB_Driver/Src/WS2812B.c ****     }
 2351              		.loc 1 313 9 is_stmt 0 view .LVU617
 2352 005e FFF7FEFF 		bl	NOS_WS2812B_Matrix_PrintFloatNumber
 2353              	.LVL189:
 313:Core/Src/NOS_LIB_Driver/Src/WS2812B.c ****     }
 2354              		.loc 1 313 9 view .LVU618
 2355 0062 E5E7     		b	.L172
 2356              	.L173:
 319:Core/Src/NOS_LIB_Driver/Src/WS2812B.c ****         break;
 2357              		.loc 1 319 9 is_stmt 1 view .LVU619
 2358 0064 0823     		movs	r3, #8
 2359 0066 0722     		movs	r2, #7
 2360 0068 0B49     		ldr	r1, .L189
 2361 006a 2846     		mov	r0, r5
 2362 006c FFF7FEFF 		bl	NOS_WS2812B_Matrix_PrintStaticString
 2363              	.LVL190:
 320:Core/Src/NOS_LIB_Driver/Src/WS2812B.c ****     case Ukrainian:
 2364              		.loc 1 320 9 view .LVU620
 2365 0070 E1E7     		b	.L175
 2366              	.L174:
 322:Core/Src/NOS_LIB_Driver/Src/WS2812B.c ****         break;
 2367              		.loc 1 322 9 view .LVU621
 2368 0072 0823     		movs	r3, #8
 2369 0074 0722     		movs	r2, #7
 2370 0076 0949     		ldr	r1, .L189+4
 2371 0078 2846     		mov	r0, r5
 2372 007a FFF7FEFF 		bl	NOS_WS2812B_Matrix_PrintStaticString
 2373              	.LVL191:
 323:Core/Src/NOS_LIB_Driver/Src/WS2812B.c **** 
 2374              		.loc 1 323 9 view .LVU622
 2375 007e DAE7     		b	.L175
 2376              	.L176:
 333:Core/Src/NOS_LIB_Driver/Src/WS2812B.c ****     {
 2377              		.loc 1 333 10 view .LVU623
 333:Core/Src/NOS_LIB_Driver/Src/WS2812B.c ****     {
 2378              		.loc 1 333 61 is_stmt 0 view .LVU624
 2379 0080 94ED037A 		vldr.32	s14, [r4, #12]
 333:Core/Src/NOS_LIB_Driver/Src/WS2812B.c ****     {
 2380              		.loc 1 333 13 view .LVU625
 2381 0084 F4EEC77A 		vcmpe.f32	s15, s14
 2382 0088 F1EE10FA 		vmrs	APSR_nzcv, FPSCR
 2383 008c 01DB     		blt	.L187
 335:Core/Src/NOS_LIB_Driver/Src/WS2812B.c ****     }
 2384              		.loc 1 335 9 is_stmt 1 view .LVU626
 335:Core/Src/NOS_LIB_Driver/Src/WS2812B.c ****     }
 2385              		.loc 1 335 27 is_stmt 0 view .LVU627
 2386 008e EF60     		str	r7, [r5, #12]
 2387              	.L169:
 341:Core/Src/NOS_LIB_Driver/Src/WS2812B.c **** 
 2388              		.loc 1 341 1 view .LVU628
 2389 0090 F8BD     		pop	{r3, r4, r5, r6, r7, pc}
 2390              	.LVL192:
 2391              	.L187:
ARM GAS  C:\Users\igorn\AppData\Local\Temp\ccHqPtul.s 			page 61


 339:Core/Src/NOS_LIB_Driver/Src/WS2812B.c ****     }
 2392              		.loc 1 339 9 is_stmt 1 view .LVU629
 339:Core/Src/NOS_LIB_Driver/Src/WS2812B.c ****     }
 2393              		.loc 1 339 27 is_stmt 0 view .LVU630
 2394 0092 079B     		ldr	r3, [sp, #28]
 2395 0094 EB60     		str	r3, [r5, #12]
 341:Core/Src/NOS_LIB_Driver/Src/WS2812B.c **** 
 2396              		.loc 1 341 1 view .LVU631
 2397 0096 FBE7     		b	.L169
 2398              	.L190:
 2399              		.align	2
 2400              	.L189:
 2401 0098 00000000 		.word	.LC2
 2402 009c 0C000000 		.word	.LC3
 2403              		.cfi_endproc
 2404              	.LFE145:
 2406              		.section	.text.NOS_WS2812B_Matrix_FillColor,"ax",%progbits
 2407              		.align	1
 2408              		.global	NOS_WS2812B_Matrix_FillColor
 2409              		.syntax unified
 2410              		.thumb
 2411              		.thumb_func
 2413              	NOS_WS2812B_Matrix_FillColor:
 2414              	.LVL193:
 2415              	.LFB147:
 352:Core/Src/NOS_LIB_Driver/Src/WS2812B.c ****     uint8_t symvolCount = matrix->size->col / 6;
 2416              		.loc 1 352 1 is_stmt 1 view -0
 2417              		.cfi_startproc
 2418              		@ args = 0, pretend = 0, frame = 0
 2419              		@ frame_needed = 0, uses_anonymous_args = 0
 352:Core/Src/NOS_LIB_Driver/Src/WS2812B.c ****     uint8_t symvolCount = matrix->size->col / 6;
 2420              		.loc 1 352 1 is_stmt 0 view .LVU633
 2421 0000 F8B5     		push	{r3, r4, r5, r6, r7, lr}
 2422              		.cfi_def_cfa_offset 24
 2423              		.cfi_offset 3, -24
 2424              		.cfi_offset 4, -20
 2425              		.cfi_offset 5, -16
 2426              		.cfi_offset 6, -12
 2427              		.cfi_offset 7, -8
 2428              		.cfi_offset 14, -4
 2429 0002 0646     		mov	r6, r0
 2430 0004 0F46     		mov	r7, r1
 353:Core/Src/NOS_LIB_Driver/Src/WS2812B.c ****     for (int i = 0; i < symvolCount; i++)
 2431              		.loc 1 353 5 is_stmt 1 view .LVU634
 353:Core/Src/NOS_LIB_Driver/Src/WS2812B.c ****     for (int i = 0; i < symvolCount; i++)
 2432              		.loc 1 353 33 is_stmt 0 view .LVU635
 2433 0006 8368     		ldr	r3, [r0, #8]
 353:Core/Src/NOS_LIB_Driver/Src/WS2812B.c ****     for (int i = 0; i < symvolCount; i++)
 2434              		.loc 1 353 39 view .LVU636
 2435 0008 1D78     		ldrb	r5, [r3]	@ zero_extendqisi2
 353:Core/Src/NOS_LIB_Driver/Src/WS2812B.c ****     for (int i = 0; i < symvolCount; i++)
 2436              		.loc 1 353 13 view .LVU637
 2437 000a 084B     		ldr	r3, .L195
 2438 000c A3FB0535 		umull	r3, r5, r3, r5
 2439 0010 AD08     		lsrs	r5, r5, #2
 2440              	.LVL194:
 354:Core/Src/NOS_LIB_Driver/Src/WS2812B.c ****     {
ARM GAS  C:\Users\igorn\AppData\Local\Temp\ccHqPtul.s 			page 62


 2441              		.loc 1 354 5 is_stmt 1 view .LVU638
 2442              	.LBB15:
 354:Core/Src/NOS_LIB_Driver/Src/WS2812B.c ****     {
 2443              		.loc 1 354 10 view .LVU639
 354:Core/Src/NOS_LIB_Driver/Src/WS2812B.c ****     {
 2444              		.loc 1 354 14 is_stmt 0 view .LVU640
 2445 0012 0024     		movs	r4, #0
 354:Core/Src/NOS_LIB_Driver/Src/WS2812B.c ****     {
 2446              		.loc 1 354 5 view .LVU641
 2447 0014 05E0     		b	.L192
 2448              	.LVL195:
 2449              	.L193:
 356:Core/Src/NOS_LIB_Driver/Src/WS2812B.c ****     }
 2450              		.loc 1 356 9 is_stmt 1 discriminator 3 view .LVU642
 2451 0016 E2B2     		uxtb	r2, r4
 2452 0018 7B21     		movs	r1, #123
 2453 001a 3046     		mov	r0, r6
 2454 001c FFF7FEFF 		bl	NOS_WS2812B_Matrix_SetSymvol
 2455              	.LVL196:
 354:Core/Src/NOS_LIB_Driver/Src/WS2812B.c ****     {
 2456              		.loc 1 354 39 discriminator 3 view .LVU643
 2457 0020 0134     		adds	r4, r4, #1
 2458              	.LVL197:
 2459              	.L192:
 354:Core/Src/NOS_LIB_Driver/Src/WS2812B.c ****     {
 2460              		.loc 1 354 23 discriminator 1 view .LVU644
 2461 0022 A542     		cmp	r5, r4
 2462 0024 F7DC     		bgt	.L193
 2463              	.LBE15:
 358:Core/Src/NOS_LIB_Driver/Src/WS2812B.c **** }
 2464              		.loc 1 358 5 view .LVU645
 358:Core/Src/NOS_LIB_Driver/Src/WS2812B.c **** }
 2465              		.loc 1 358 23 is_stmt 0 view .LVU646
 2466 0026 F760     		str	r7, [r6, #12]
 359:Core/Src/NOS_LIB_Driver/Src/WS2812B.c **** 
 2467              		.loc 1 359 1 view .LVU647
 2468 0028 F8BD     		pop	{r3, r4, r5, r6, r7, pc}
 2469              	.LVL198:
 2470              	.L196:
 359:Core/Src/NOS_LIB_Driver/Src/WS2812B.c **** 
 2471              		.loc 1 359 1 view .LVU648
 2472 002a 00BF     		.align	2
 2473              	.L195:
 2474 002c ABAAAAAA 		.word	-1431655765
 2475              		.cfi_endproc
 2476              	.LFE147:
 2478              		.global	Num_9
 2479              		.section	.data.Num_9,"aw"
 2480              		.align	2
 2483              	Num_9:
 2484 0000 4C929292 		.ascii	"L\222\222\222|"
 2484      7C
 2485              		.global	Num_8
 2486              		.section	.data.Num_8,"aw"
 2487              		.align	2
 2490              	Num_8:
 2491 0000 6C929292 		.ascii	"l\222\222\222l"
ARM GAS  C:\Users\igorn\AppData\Local\Temp\ccHqPtul.s 			page 63


 2491      6C
 2492              		.global	Num_7
 2493              		.section	.data.Num_7,"aw"
 2494              		.align	2
 2497              	Num_7:
 2498 0000 0202F20A 		.ascii	"\002\002\362\012\006"
 2498      06
 2499              		.global	Num_6
 2500              		.section	.data.Num_6,"aw"
 2501              		.align	2
 2504              	Num_6:
 2505 0000 7C929292 		.ascii	"|\222\222\222d"
 2505      64
 2506              		.global	Num_5
 2507              		.section	.data.Num_5,"aw"
 2508              		.align	2
 2511              	Num_5:
 2512 0000 8E929292 		.ascii	"\216\222\222\222b"
 2512      62
 2513              		.global	Num_4
 2514              		.section	.data.Num_4,"aw"
 2515              		.align	2
 2518              	Num_4:
 2519 0000 0E101010 		.ascii	"\016\020\020\020\376"
 2519      FE
 2520              		.global	Num_3
 2521              		.section	.data.Num_3,"aw"
 2522              		.align	2
 2525              	Num_3:
 2526 0000 44929292 		.ascii	"D\222\222\222l"
 2526      6C
 2527              		.global	Num_2
 2528              		.section	.data.Num_2,"aw"
 2529              		.align	2
 2532              	Num_2:
 2533 0000 84C2A292 		.ascii	"\204\302\242\222\214"
 2533      8C
 2534              		.global	Num_1
 2535              		.section	.data.Num_1,"aw"
 2536              		.align	2
 2539              	Num_1:
 2540 0000 8884FE80 		.ascii	"\210\204\376\200\200"
 2540      80
 2541              		.global	Num_0
 2542              		.section	.data.Num_0,"aw"
 2543              		.align	2
 2546              	Num_0:
 2547 0000 7CA2928A 		.ascii	"|\242\222\212|"
 2547      7C
 2548              		.global	Attemption
 2549              		.section	.data.Attemption,"aw"
 2550              		.align	2
 2553              	Attemption:
 2554 0000 0000BE00 		.ascii	"\000\000\276\000\000"
 2554      00
 2555              		.global	FullSym
 2556              		.section	.data.FullSym,"aw"
ARM GAS  C:\Users\igorn\AppData\Local\Temp\ccHqPtul.s 			page 64


 2557              		.align	2
 2560              	FullSym:
 2561 0000 FFFFFFFF 		.ascii	"\377\377\377\377\377"
 2561      FF
 2562              		.global	Celcium
 2563              		.section	.data.Celcium,"aw"
 2564              		.align	2
 2567              	Celcium:
 2568 0000 0000040A 		.ascii	"\000\000\004\012\004"
 2568      04
 2569              		.global	Multiply
 2570              		.section	.data.Multiply,"aw"
 2571              		.align	2
 2574              	Multiply:
 2575 0000 44281028 		.ascii	"D(\020(D"
 2575      44
 2576              		.global	Minus
 2577              		.section	.data.Minus,"aw"
 2578              		.align	2
 2581              	Minus:
 2582 0000 10101010 		.ascii	"\020\020\020\020\020"
 2582      10
 2583              		.global	Plus
 2584              		.section	.data.Plus,"aw"
 2585              		.align	2
 2588              	Plus:
 2589 0000 10107C10 		.ascii	"\020\020|\020\020"
 2589      10
 2590              		.global	Slash
 2591              		.section	.data.Slash,"aw"
 2592              		.align	2
 2595              	Slash:
 2596 0000 40201008 		.ascii	"@ \020\010\004"
 2596      04
 2597              		.global	DoubleDot
 2598              		.section	.data.DoubleDot,"aw"
 2599              		.align	2
 2602              	DoubleDot:
 2603 0000 00004400 		.ascii	"\000\000D\000\000"
 2603      00
 2604              		.global	Dot
 2605              		.section	.data.Dot,"aw"
 2606              		.align	2
 2609              	Dot:
 2610 0000 00008000 		.ascii	"\000\000\200\000\000"
 2610      00
 2611              		.global	Space
 2612              		.section	.bss.Space,"aw",%nobits
 2613              		.align	2
 2616              	Space:
 2617 0000 00000000 		.space	5
 2617      00
 2618              		.global	Ukr_ch
 2619              		.section	.data.Ukr_ch,"aw"
 2620              		.align	2
 2623              	Ukr_ch:
 2624 0000 18202020 		.ascii	"\030   \370"
ARM GAS  C:\Users\igorn\AppData\Local\Temp\ccHqPtul.s 			page 65


 2624      F8
 2625              		.global	Ukr_d
 2626              		.section	.data.Ukr_d,"aw"
 2627              		.align	2
 2630              	Ukr_d:
 2631 0000 C0784878 		.ascii	"\300xHx\300"
 2631      C0
 2632              		.global	Ukr_g
 2633              		.section	.data.Ukr_g,"aw"
 2634              		.align	2
 2637              	Ukr_g:
 2638 0000 F8080808 		.ascii	"\370\010\010\010\000"
 2638      00
 2639              		.global	Ukr_k
 2640              		.section	.data.Ukr_k,"aw"
 2641              		.align	2
 2644              	Ukr_k:
 2645 0000 F8205088 		.ascii	"\370 P\210\000"
 2645      00
 2646              		.global	Ukr_m
 2647              		.section	.data.Ukr_m,"aw"
 2648              		.align	2
 2651              	Ukr_m:
 2652 0000 F8102010 		.ascii	"\370\020 \020\370"
 2652      F8
 2653              		.global	Eng_r
 2654              		.section	.data.Eng_r,"aw"
 2655              		.align	2
 2658              	Eng_r:
 2659 0000 F8100808 		.ascii	"\370\020\010\010\010"
 2659      08
 2660              		.global	Eng_o
 2661              		.section	.data.Eng_o,"aw"
 2662              		.align	2
 2665              	Eng_o:
 2666 0000 70888888 		.ascii	"p\210\210\210p"
 2666      70
 2667              		.global	Eng_u
 2668              		.section	.data.Eng_u,"aw"
 2669              		.align	2
 2672              	Eng_u:
 2673 0000 78808080 		.ascii	"x\200\200\200x"
 2673      78
 2674              		.global	Eng_v
 2675              		.section	.data.Eng_v,"aw"
 2676              		.align	2
 2679              	Eng_v:
 2680 0000 38408040 		.ascii	"8@\200@8"
 2680      38
 2681              		.global	Eng_c
 2682              		.section	.data.Eng_c,"aw"
 2683              		.align	2
 2686              	Eng_c:
 2687 0000 70888888 		.ascii	"p\210\210\210\000"
 2687      00
 2688              		.global	Eng_a
 2689              		.section	.data.Eng_a,"aw"
ARM GAS  C:\Users\igorn\AppData\Local\Temp\ccHqPtul.s 			page 66


 2690              		.align	2
 2693              	Eng_a:
 2694 0000 40A8A8A8 		.ascii	"@\250\250\250p"
 2694      70
 2695              		.global	Eng_Z
 2696              		.section	.data.Eng_Z,"aw"
 2697              		.align	2
 2700              	Eng_Z:
 2701 0000 C2A2928A 		.ascii	"\302\242\222\212\206"
 2701      86
 2702              		.global	Eng_Y
 2703              		.section	.data.Eng_Y,"aw"
 2704              		.align	2
 2707              	Eng_Y:
 2708 0000 0204F804 		.ascii	"\002\004\370\004\002"
 2708      02
 2709              		.global	Eng_X
 2710              		.section	.data.Eng_X,"aw"
 2711              		.align	2
 2714              	Eng_X:
 2715 0000 C6281028 		.ascii	"\306(\020(\306"
 2715      C6
 2716              		.global	Eng_W
 2717              		.section	.data.Eng_W,"aw"
 2718              		.align	2
 2721              	Eng_W:
 2722 0000 7E807880 		.ascii	"~\200x\200~"
 2722      7E
 2723              		.global	Eng_V
 2724              		.section	.data.Eng_V,"aw"
 2725              		.align	2
 2728              	Eng_V:
 2729 0000 3E408040 		.ascii	">@\200@>"
 2729      3E
 2730              		.global	Eng_U
 2731              		.section	.data.Eng_U,"aw"
 2732              		.align	2
 2735              	Eng_U:
 2736 0000 7E808080 		.ascii	"~\200\200\200~"
 2736      7E
 2737              		.global	Eng_T
 2738              		.section	.data.Eng_T,"aw"
 2739              		.align	2
 2742              	Eng_T:
 2743 0000 0202FE02 		.ascii	"\002\002\376\002\002"
 2743      02
 2744              		.global	Eng_S
 2745              		.section	.data.Eng_S,"aw"
 2746              		.align	2
 2749              	Eng_S:
 2750 0000 4C929292 		.ascii	"L\222\222\222d"
 2750      64
 2751              		.global	Eng_R
 2752              		.section	.data.Eng_R,"aw"
 2753              		.align	2
 2756              	Eng_R:
 2757 0000 FE123252 		.ascii	"\376\0222R\214"
ARM GAS  C:\Users\igorn\AppData\Local\Temp\ccHqPtul.s 			page 67


 2757      8C
 2758              		.global	Eng_Q
 2759              		.section	.data.Eng_Q,"aw"
 2760              		.align	2
 2763              	Eng_Q:
 2764 0000 7C82A242 		.ascii	"|\202\242B\274"
 2764      BC
 2765              		.global	Eng_P
 2766              		.section	.data.Eng_P,"aw"
 2767              		.align	2
 2770              	Eng_P:
 2771 0000 FE121212 		.ascii	"\376\022\022\022\014"
 2771      0C
 2772              		.global	Eng_O
 2773              		.section	.data.Eng_O,"aw"
 2774              		.align	2
 2777              	Eng_O:
 2778 0000 7C828282 		.ascii	"|\202\202\202|"
 2778      7C
 2779              		.global	Eng_N
 2780              		.section	.data.Eng_N,"aw"
 2781              		.align	2
 2784              	Eng_N:
 2785 0000 FE081020 		.ascii	"\376\010\020 \376"
 2785      FE
 2786              		.global	Eng_M
 2787              		.section	.data.Eng_M,"aw"
 2788              		.align	2
 2791              	Eng_M:
 2792 0000 FE040804 		.ascii	"\376\004\010\004\376"
 2792      FE
 2793              		.global	Eng_L
 2794              		.section	.data.Eng_L,"aw"
 2795              		.align	2
 2798              	Eng_L:
 2799 0000 FE808080 		.ascii	"\376\200\200\200\200"
 2799      80
 2800              		.global	Eng_K
 2801              		.section	.data.Eng_K,"aw"
 2802              		.align	2
 2805              	Eng_K:
 2806 0000 FE102844 		.ascii	"\376\020(D\202"
 2806      82
 2807              		.global	Eng_J
 2808              		.section	.data.Eng_J,"aw"
 2809              		.align	2
 2812              	Eng_J:
 2813 0000 40808080 		.ascii	"@\200\200\200~"
 2813      7E
 2814              		.global	Eng_I
 2815              		.section	.data.Eng_I,"aw"
 2816              		.align	2
 2819              	Eng_I:
 2820 0000 0082FE82 		.ascii	"\000\202\376\202\000"
 2820      00
 2821              		.global	Eng_H
 2822              		.section	.data.Eng_H,"aw"
ARM GAS  C:\Users\igorn\AppData\Local\Temp\ccHqPtul.s 			page 68


 2823              		.align	2
 2826              	Eng_H:
 2827 0000 FE101010 		.ascii	"\376\020\020\020\376"
 2827      FE
 2828              		.global	Eng_G
 2829              		.section	.data.Eng_G,"aw"
 2830              		.align	2
 2833              	Eng_G:
 2834 0000 7C829292 		.ascii	"|\202\222\222t"
 2834      74
 2835              		.global	Eng_F
 2836              		.section	.data.Eng_F,"aw"
 2837              		.align	2
 2840              	Eng_F:
 2841 0000 FE121212 		.ascii	"\376\022\022\022\002"
 2841      02
 2842              		.global	Eng_E
 2843              		.section	.data.Eng_E,"aw"
 2844              		.align	2
 2847              	Eng_E:
 2848 0000 FE929292 		.ascii	"\376\222\222\222\202"
 2848      82
 2849              		.global	Eng_D
 2850              		.section	.data.Eng_D,"aw"
 2851              		.align	2
 2854              	Eng_D:
 2855 0000 FE828282 		.ascii	"\376\202\202\202|"
 2855      7C
 2856              		.global	Eng_C
 2857              		.section	.data.Eng_C,"aw"
 2858              		.align	2
 2861              	Eng_C:
 2862 0000 7C828282 		.ascii	"|\202\202\202D"
 2862      44
 2863              		.global	Eng_B
 2864              		.section	.data.Eng_B,"aw"
 2865              		.align	2
 2868              	Eng_B:
 2869 0000 FE929292 		.ascii	"\376\222\222\222l"
 2869      6C
 2870              		.global	Eng_A
 2871              		.section	.data.Eng_A,"aw"
 2872              		.align	2
 2875              	Eng_A:
 2876 0000 FC121212 		.ascii	"\374\022\022\022\374"
 2876      FC
 2877              		.text
 2878              	.Letext0:
 2879              		.file 2 "c:\\users\\igorn\\appdata\\roaming\\code\\user\\globalstorage\\bmd.stm32-for-vscode\\@xpa
 2880              		.file 3 "c:\\users\\igorn\\appdata\\roaming\\code\\user\\globalstorage\\bmd.stm32-for-vscode\\@xpa
 2881              		.file 4 "Core/Src/NOS_LIB_Driver/Inc/NOS_Typedefs.h"
 2882              		.file 5 "Core/Src/NOS_LIB_Driver/Inc/CharLib(7x5).h"
 2883              		.file 6 "c:\\users\\igorn\\appdata\\roaming\\code\\user\\globalstorage\\bmd.stm32-for-vscode\\@xpa
 2884              		.file 7 "Core/Src/NOS_LIB_Driver/Inc/NOS_Math.h"
 2885              		.file 8 "<built-in>"
ARM GAS  C:\Users\igorn\AppData\Local\Temp\ccHqPtul.s 			page 69

